
build-output/sysroot/boot/hexahedron-kernel.elf:     file format elf32-i386


Disassembly of section .text:

00100000 <__kernel_start>:
  100000:	02 b0 ad 1b 07 00    	add    0x71bad(%eax),%dh
  100006:	00 00                	add    %al,(%eax)
  100008:	f7 4f 52 e4 00 00 10 	testl  $0x100000e4,0x52(%edi)
  10000f:	00 00                	add    %al,(%eax)
  100011:	00 10                	add    %dl,(%eax)
  100013:	00 00                	add    %al,(%eax)
  100015:	90                   	nop
  100016:	10 00                	adc    %al,(%eax)
  100018:	e6 de                	out    %al,$0xde
  10001a:	10 00                	adc    %al,(%eax)
  10001c:	76 33                	jbe    100051 <multiboot2_address_tag+0x11>
  10001e:	10 00                	adc    %al,(%eax)
  100020:	00 00                	add    %al,(%eax)
  100022:	00 00                	add    %al,(%eax)
  100024:	00 04 00             	add    %al,(%eax,%eax,1)
  100027:	00 00                	add    %al,(%eax)
  100029:	03 00                	add    (%eax),%eax
  10002b:	00 20                	add    %ah,(%eax)
  10002d:	00 00                	add    %al,(%eax)
	...

00100030 <multiboot2_header_start>:
  100030:	d6                   	(bad)  
  100031:	50                   	push   %eax
  100032:	52                   	push   %edx
  100033:	e8 00 00 00 00       	call   100038 <multiboot2_header_start+0x8>
  100038:	80 00 00             	addb   $0x0,(%eax)
  10003b:	00 aa ae ad 17     	add    %ch,0x217adae(%edx)

00100040 <multiboot2_address_tag>:
  100040:	02 00                	add    (%eax),%al
  100042:	00 00                	add    %al,(%eax)
  100044:	18 00                	sbb    %al,(%eax)
  100046:	00 00                	add    %al,(%eax)
  100048:	30 00                	xor    %al,(%eax)
  10004a:	10 00                	adc    %al,(%eax)
  10004c:	00 00                	add    %al,(%eax)
  10004e:	10 00                	adc    %al,(%eax)
  100050:	00 90 10 00 e6 de    	add    %dl,-0x2119fff0(%eax)
  100056:	10 00                	adc    %al,(%eax)

00100058 <multiboot2_entry_tag>:
  100058:	03 00                	add    (%eax),%eax
  10005a:	00 00                	add    %al,(%eax)
  10005c:	0c 00                	or     $0x0,%al
  10005e:	00 00                	add    %al,(%eax)
  100060:	76 33                	jbe    100095 <mulitboot2_align_mods+0x5>
  100062:	10 00                	adc    %al,(%eax)
  100064:	00 00                	add    %al,(%eax)
	...

00100068 <multiboot2_fb_tag>:
  100068:	05 00 00 00 14       	add    $0x14000000,%eax
  10006d:	00 00                	add    %al,(%eax)
  10006f:	00 00                	add    %al,(%eax)
  100071:	04 00                	add    $0x0,%al
  100073:	00 00                	add    %al,(%eax)
  100075:	03 00                	add    (%eax),%eax
  100077:	00 20                	add    %ah,(%eax)
  100079:	00 00                	add    %al,(%eax)
  10007b:	00 00                	add    %al,(%eax)
  10007d:	00 00                	add    %al,(%eax)
	...

00100080 <multiboot2_console_flags_tag>:
  100080:	04 00                	add    $0x0,%al
  100082:	00 00                	add    %al,(%eax)
  100084:	0c 00                	or     $0x0,%al
  100086:	00 00                	add    %al,(%eax)
  100088:	02 00                	add    (%eax),%al
  10008a:	00 00                	add    %al,(%eax)
  10008c:	00 00                	add    %al,(%eax)
	...

00100090 <mulitboot2_align_mods>:
  100090:	06                   	push   %es
  100091:	00 00                	add    %al,(%eax)
  100093:	00 08                	add    %cl,(%eax)
  100095:	00 00                	add    %al,(%eax)
	...

00100098 <mulitboot_relocatable_tag>:
  100098:	0a 00                	or     (%eax),%al
  10009a:	00 00                	add    %al,(%eax)
  10009c:	18 00                	sbb    %al,(%eax)
  10009e:	00 00                	add    %al,(%eax)
  1000a0:	00 00                	add    %al,(%eax)
  1000a2:	10 00                	adc    %al,(%eax)
  1000a4:	00 00                	add    %al,(%eax)
  1000a6:	20 00                	and    %al,(%eax)
  1000a8:	00 10                	add    %dl,(%eax)
  1000aa:	00 00                	add    %al,(%eax)
  1000ac:	01 00                	add    %eax,(%eax)
	...

001000b0 <clock_update>:
  1000b0:	55                   	push   %ebp
  1000b1:	89 e5                	mov    %esp,%ebp
  1000b3:	83 ec 28             	sub    $0x28,%esp
  1000b6:	8b 45 08             	mov    0x8(%ebp),%eax
  1000b9:	89 45 e0             	mov    %eax,-0x20(%ebp)
  1000bc:	8b 45 0c             	mov    0xc(%ebp),%eax
  1000bf:	89 45 e4             	mov    %eax,-0x1c(%ebp)
  1000c2:	8b 45 e0             	mov    -0x20(%ebp),%eax
  1000c5:	8b 55 e4             	mov    -0x1c(%ebp),%edx
  1000c8:	a3 18 90 10 00       	mov    %eax,0x109018
  1000cd:	89 15 1c 90 10 00    	mov    %edx,0x10901c
  1000d3:	c7 45 f4 00 00 00 00 	movl   $0x0,-0xc(%ebp)
  1000da:	eb 30                	jmp    10010c <clock_update+0x5c>
  1000dc:	8b 45 f4             	mov    -0xc(%ebp),%eax
  1000df:	8b 04 85 40 90 10 00 	mov    0x109040(,%eax,4),%eax
  1000e6:	85 c0                	test   %eax,%eax
  1000e8:	74 1e                	je     100108 <clock_update+0x58>
  1000ea:	8b 45 f4             	mov    -0xc(%ebp),%eax
  1000ed:	8b 04 85 40 90 10 00 	mov    0x109040(,%eax,4),%eax
  1000f4:	89 45 f0             	mov    %eax,-0x10(%ebp)
  1000f7:	83 ec 08             	sub    $0x8,%esp
  1000fa:	ff 75 e4             	push   -0x1c(%ebp)
  1000fd:	ff 75 e0             	push   -0x20(%ebp)
  100100:	8b 45 f0             	mov    -0x10(%ebp),%eax
  100103:	ff d0                	call   *%eax
  100105:	83 c4 10             	add    $0x10,%esp
  100108:	83 45 f4 01          	addl   $0x1,-0xc(%ebp)
  10010c:	83 7d f4 7f          	cmpl   $0x7f,-0xc(%ebp)
  100110:	7e ca                	jle    1000dc <clock_update+0x2c>
  100112:	90                   	nop
  100113:	90                   	nop
  100114:	c9                   	leave  
  100115:	c3                   	ret    

00100116 <clock_gettimeofday>:
  100116:	55                   	push   %ebp
  100117:	89 e5                	mov    %esp,%ebp
  100119:	83 ec 28             	sub    $0x28,%esp
  10011c:	a1 00 90 10 00       	mov    0x109000,%eax
  100121:	ff d0                	call   *%eax
  100123:	89 45 f0             	mov    %eax,-0x10(%ebp)
  100126:	89 55 f4             	mov    %edx,-0xc(%ebp)
  100129:	a1 08 90 10 00       	mov    0x109008,%eax
  10012e:	8d 55 e0             	lea    -0x20(%ebp),%edx
  100131:	52                   	push   %edx
  100132:	8d 55 e8             	lea    -0x18(%ebp),%edx
  100135:	52                   	push   %edx
  100136:	ff 75 f4             	push   -0xc(%ebp)
  100139:	ff 75 f0             	push   -0x10(%ebp)
  10013c:	ff d0                	call   *%eax
  10013e:	83 c4 10             	add    $0x10,%esp
  100141:	a1 10 90 10 00       	mov    0x109010,%eax
  100146:	8b 15 14 90 10 00    	mov    0x109014,%edx
  10014c:	89 c1                	mov    %eax,%ecx
  10014e:	8b 45 e8             	mov    -0x18(%ebp),%eax
  100151:	8b 55 ec             	mov    -0x14(%ebp),%edx
  100154:	01 c8                	add    %ecx,%eax
  100156:	89 c2                	mov    %eax,%edx
  100158:	8b 45 08             	mov    0x8(%ebp),%eax
  10015b:	89 10                	mov    %edx,(%eax)
  10015d:	8b 45 e0             	mov    -0x20(%ebp),%eax
  100160:	8b 55 e4             	mov    -0x1c(%ebp),%edx
  100163:	89 c2                	mov    %eax,%edx
  100165:	8b 45 08             	mov    0x8(%ebp),%eax
  100168:	89 50 04             	mov    %edx,0x4(%eax)
  10016b:	b8 00 00 00 00       	mov    $0x0,%eax
  100170:	c9                   	leave  
  100171:	c3                   	ret    

00100172 <clock_settimeofday>:
  100172:	55                   	push   %ebp
  100173:	89 e5                	mov    %esp,%ebp
  100175:	53                   	push   %ebx
  100176:	83 ec 14             	sub    $0x14,%esp
  100179:	83 7d 08 00          	cmpl   $0x0,0x8(%ebp)
  10017d:	75 07                	jne    100186 <clock_settimeofday+0x14>
  10017f:	b8 ea ff ff ff       	mov    $0xffffffea,%eax
  100184:	eb 66                	jmp    1001ec <clock_settimeofday+0x7a>
  100186:	8b 45 08             	mov    0x8(%ebp),%eax
  100189:	8b 40 04             	mov    0x4(%eax),%eax
  10018c:	3d 40 42 0f 00       	cmp    $0xf4240,%eax
  100191:	7e 07                	jle    10019a <clock_settimeofday+0x28>
  100193:	b8 ea ff ff ff       	mov    $0xffffffea,%eax
  100198:	eb 52                	jmp    1001ec <clock_settimeofday+0x7a>
  10019a:	e8 30 54 00 00       	call   1055cf <now>
  10019f:	89 45 f0             	mov    %eax,-0x10(%ebp)
  1001a2:	89 55 f4             	mov    %edx,-0xc(%ebp)
  1001a5:	8b 0d 10 90 10 00    	mov    0x109010,%ecx
  1001ab:	8b 1d 14 90 10 00    	mov    0x109014,%ebx
  1001b1:	8b 45 08             	mov    0x8(%ebp),%eax
  1001b4:	8b 00                	mov    (%eax),%eax
  1001b6:	99                   	cltd   
  1001b7:	2b 45 f0             	sub    -0x10(%ebp),%eax
  1001ba:	1b 55 f4             	sbb    -0xc(%ebp),%edx
  1001bd:	01 c8                	add    %ecx,%eax
  1001bf:	11 da                	adc    %ebx,%edx
  1001c1:	a3 10 90 10 00       	mov    %eax,0x109010
  1001c6:	89 15 14 90 10 00    	mov    %edx,0x109014
  1001cc:	8b 0d 0c 90 10 00    	mov    0x10900c,%ecx
  1001d2:	a1 10 90 10 00       	mov    0x109010,%eax
  1001d7:	8b 15 14 90 10 00    	mov    0x109014,%edx
  1001dd:	83 ec 08             	sub    $0x8,%esp
  1001e0:	52                   	push   %edx
  1001e1:	50                   	push   %eax
  1001e2:	ff d1                	call   *%ecx
  1001e4:	83 c4 10             	add    $0x10,%esp
  1001e7:	b8 00 00 00 00       	mov    $0x0,%eax
  1001ec:	8b 5d fc             	mov    -0x4(%ebp),%ebx
  1001ef:	c9                   	leave  
  1001f0:	c3                   	ret    

001001f1 <clock_relative>:
  1001f1:	55                   	push   %ebp
  1001f2:	89 e5                	mov    %esp,%ebp
  1001f4:	56                   	push   %esi
  1001f5:	53                   	push   %ebx
  1001f6:	83 ec 20             	sub    $0x20,%esp
  1001f9:	a1 00 90 10 00       	mov    0x109000,%eax
  1001fe:	ff d0                	call   *%eax
  100200:	89 45 f0             	mov    %eax,-0x10(%ebp)
  100203:	89 55 f4             	mov    %edx,-0xc(%ebp)
  100206:	a1 08 90 10 00       	mov    0x109008,%eax
  10020b:	8d 55 e0             	lea    -0x20(%ebp),%edx
  10020e:	52                   	push   %edx
  10020f:	8d 55 e8             	lea    -0x18(%ebp),%edx
  100212:	52                   	push   %edx
  100213:	ff 75 f4             	push   -0xc(%ebp)
  100216:	ff 75 f0             	push   -0x10(%ebp)
  100219:	ff d0                	call   *%eax
  10021b:	83 c4 10             	add    $0x10,%esp
  10021e:	8b 4d 0c             	mov    0xc(%ebp),%ecx
  100221:	bb 00 00 00 00       	mov    $0x0,%ebx
  100226:	8b 45 e8             	mov    -0x18(%ebp),%eax
  100229:	8b 55 ec             	mov    -0x14(%ebp),%edx
  10022c:	01 c8                	add    %ecx,%eax
  10022e:	11 da                	adc    %ebx,%edx
  100230:	bb 3f 42 0f 00       	mov    $0xf423f,%ebx
  100235:	b9 00 00 00 00       	mov    $0x0,%ecx
  10023a:	39 c3                	cmp    %eax,%ebx
  10023c:	19 d1                	sbb    %edx,%ecx
  10023e:	73 65                	jae    1002a5 <clock_relative+0xb4>
  100240:	8b 45 e8             	mov    -0x18(%ebp),%eax
  100243:	8b 55 ec             	mov    -0x14(%ebp),%edx
  100246:	89 c2                	mov    %eax,%edx
  100248:	8b 45 08             	mov    0x8(%ebp),%eax
  10024b:	8d 34 02             	lea    (%edx,%eax,1),%esi
  10024e:	8b 4d 0c             	mov    0xc(%ebp),%ecx
  100251:	bb 00 00 00 00       	mov    $0x0,%ebx
  100256:	8b 45 e0             	mov    -0x20(%ebp),%eax
  100259:	8b 55 e4             	mov    -0x1c(%ebp),%edx
  10025c:	01 c8                	add    %ecx,%eax
  10025e:	11 da                	adc    %ebx,%edx
  100260:	6a 00                	push   $0x0
  100262:	68 40 42 0f 00       	push   $0xf4240
  100267:	52                   	push   %edx
  100268:	50                   	push   %eax
  100269:	e8 a2 53 00 00       	call   105610 <__udivdi3>
  10026e:	83 c4 10             	add    $0x10,%esp
  100271:	8d 14 06             	lea    (%esi,%eax,1),%edx
  100274:	8b 45 10             	mov    0x10(%ebp),%eax
  100277:	89 10                	mov    %edx,(%eax)
  100279:	8b 4d 0c             	mov    0xc(%ebp),%ecx
  10027c:	bb 00 00 00 00       	mov    $0x0,%ebx
  100281:	8b 45 e0             	mov    -0x20(%ebp),%eax
  100284:	8b 55 e4             	mov    -0x1c(%ebp),%edx
  100287:	01 c8                	add    %ecx,%eax
  100289:	11 da                	adc    %ebx,%edx
  10028b:	6a 00                	push   $0x0
  10028d:	68 40 42 0f 00       	push   $0xf4240
  100292:	52                   	push   %edx
  100293:	50                   	push   %eax
  100294:	e8 97 54 00 00       	call   105730 <__umoddi3>
  100299:	83 c4 10             	add    $0x10,%esp
  10029c:	89 c2                	mov    %eax,%edx
  10029e:	8b 45 14             	mov    0x14(%ebp),%eax
  1002a1:	89 10                	mov    %edx,(%eax)
  1002a3:	eb 24                	jmp    1002c9 <clock_relative+0xd8>
  1002a5:	8b 45 e8             	mov    -0x18(%ebp),%eax
  1002a8:	8b 55 ec             	mov    -0x14(%ebp),%edx
  1002ab:	89 c2                	mov    %eax,%edx
  1002ad:	8b 45 08             	mov    0x8(%ebp),%eax
  1002b0:	01 c2                	add    %eax,%edx
  1002b2:	8b 45 10             	mov    0x10(%ebp),%eax
  1002b5:	89 10                	mov    %edx,(%eax)
  1002b7:	8b 45 e0             	mov    -0x20(%ebp),%eax
  1002ba:	8b 55 e4             	mov    -0x1c(%ebp),%edx
  1002bd:	89 c2                	mov    %eax,%edx
  1002bf:	8b 45 0c             	mov    0xc(%ebp),%eax
  1002c2:	01 c2                	add    %eax,%edx
  1002c4:	8b 45 14             	mov    0x14(%ebp),%eax
  1002c7:	89 10                	mov    %edx,(%eax)
  1002c9:	90                   	nop
  1002ca:	8d 65 f8             	lea    -0x8(%ebp),%esp
  1002cd:	5b                   	pop    %ebx
  1002ce:	5e                   	pop    %esi
  1002cf:	5d                   	pop    %ebp
  1002d0:	c3                   	ret    

001002d1 <clock_registerUpdateCallback>:
  1002d1:	55                   	push   %ebp
  1002d2:	89 e5                	mov    %esp,%ebp
  1002d4:	83 ec 10             	sub    $0x10,%esp
  1002d7:	c7 45 fc ff ff ff ff 	movl   $0xffffffff,-0x4(%ebp)
  1002de:	c7 45 f8 00 00 00 00 	movl   $0x0,-0x8(%ebp)
  1002e5:	eb 1a                	jmp    100301 <clock_registerUpdateCallback+0x30>
  1002e7:	8b 45 f8             	mov    -0x8(%ebp),%eax
  1002ea:	8b 04 85 40 90 10 00 	mov    0x109040(,%eax,4),%eax
  1002f1:	85 c0                	test   %eax,%eax
  1002f3:	74 08                	je     1002fd <clock_registerUpdateCallback+0x2c>
  1002f5:	8b 45 f8             	mov    -0x8(%ebp),%eax
  1002f8:	89 45 fc             	mov    %eax,-0x4(%ebp)
  1002fb:	eb 0a                	jmp    100307 <clock_registerUpdateCallback+0x36>
  1002fd:	83 45 f8 01          	addl   $0x1,-0x8(%ebp)
  100301:	83 7d f8 7f          	cmpl   $0x7f,-0x8(%ebp)
  100305:	7e e0                	jle    1002e7 <clock_registerUpdateCallback+0x16>
  100307:	83 7d fc ff          	cmpl   $0xffffffff,-0x4(%ebp)
  10030b:	75 07                	jne    100314 <clock_registerUpdateCallback+0x43>
  10030d:	b8 ea ff ff ff       	mov    $0xffffffea,%eax
  100312:	eb 10                	jmp    100324 <clock_registerUpdateCallback+0x53>
  100314:	8b 45 fc             	mov    -0x4(%ebp),%eax
  100317:	8b 55 08             	mov    0x8(%ebp),%edx
  10031a:	89 14 85 40 90 10 00 	mov    %edx,0x109040(,%eax,4)
  100321:	8b 45 fc             	mov    -0x4(%ebp),%eax
  100324:	c9                   	leave  
  100325:	c3                   	ret    

00100326 <clock_unregisterUpdateCallback>:
  100326:	55                   	push   %ebp
  100327:	89 e5                	mov    %esp,%ebp
  100329:	83 7d 08 00          	cmpl   $0x0,0x8(%ebp)
  10032d:	78 10                	js     10033f <clock_unregisterUpdateCallback+0x19>
  10032f:	8b 45 08             	mov    0x8(%ebp),%eax
  100332:	c7 04 85 40 90 10 00 	movl   $0x0,0x109040(,%eax,4)
  100339:	00 00 00 00 
  10033d:	eb 01                	jmp    100340 <clock_unregisterUpdateCallback+0x1a>
  10033f:	90                   	nop
  100340:	5d                   	pop    %ebp
  100341:	c3                   	ret    

00100342 <clock_getBoottime>:
  100342:	55                   	push   %ebp
  100343:	89 e5                	mov    %esp,%ebp
  100345:	a1 10 90 10 00       	mov    0x109010,%eax
  10034a:	8b 15 14 90 10 00    	mov    0x109014,%edx
  100350:	5d                   	pop    %ebp
  100351:	c3                   	ret    

00100352 <clock_setDevice>:
  100352:	55                   	push   %ebp
  100353:	89 e5                	mov    %esp,%ebp
  100355:	8b 45 08             	mov    0x8(%ebp),%eax
  100358:	a3 00 90 10 00       	mov    %eax,0x109000
  10035d:	8b 45 0c             	mov    0xc(%ebp),%eax
  100360:	a3 04 90 10 00       	mov    %eax,0x109004
  100365:	8b 45 10             	mov    0x10(%ebp),%eax
  100368:	a3 08 90 10 00       	mov    %eax,0x109008
  10036d:	8b 45 14             	mov    0x14(%ebp),%eax
  100370:	a3 0c 90 10 00       	mov    %eax,0x10900c
  100375:	8b 45 18             	mov    0x18(%ebp),%eax
  100378:	a3 10 90 10 00       	mov    %eax,0x109010
  10037d:	8b 45 1c             	mov    0x1c(%ebp),%eax
  100380:	a3 14 90 10 00       	mov    %eax,0x109014
  100385:	c7 05 20 90 10 00 01 	movl   $0x1,0x109020
  10038c:	00 00 00 
  10038f:	90                   	nop
  100390:	5d                   	pop    %ebp
  100391:	c3                   	ret    

00100392 <clock_isReady>:
  100392:	55                   	push   %ebp
  100393:	89 e5                	mov    %esp,%ebp
  100395:	a1 20 90 10 00       	mov    0x109020,%eax
  10039a:	5d                   	pop    %ebp
  10039b:	c3                   	ret    

0010039c <serial_print>:
  10039c:	55                   	push   %ebp
  10039d:	89 e5                	mov    %esp,%ebp
  10039f:	83 ec 18             	sub    $0x18,%esp
  1003a2:	8b 45 0c             	mov    0xc(%ebp),%eax
  1003a5:	88 45 f4             	mov    %al,-0xc(%ebp)
  1003a8:	a1 40 92 10 00       	mov    0x109240,%eax
  1003ad:	85 c0                	test   %eax,%eax
  1003af:	75 07                	jne    1003b8 <serial_print+0x1c>
  1003b1:	b8 00 00 00 00       	mov    $0x0,%eax
  1003b6:	eb 27                	jmp    1003df <serial_print+0x43>
  1003b8:	80 7d f4 0a          	cmpb   $0xa,-0xc(%ebp)
  1003bc:	75 0f                	jne    1003cd <serial_print+0x31>
  1003be:	a1 40 92 10 00       	mov    0x109240,%eax
  1003c3:	83 ec 0c             	sub    $0xc,%esp
  1003c6:	6a 0d                	push   $0xd
  1003c8:	ff d0                	call   *%eax
  1003ca:	83 c4 10             	add    $0x10,%esp
  1003cd:	a1 40 92 10 00       	mov    0x109240,%eax
  1003d2:	0f be 55 f4          	movsbl -0xc(%ebp),%edx
  1003d6:	83 ec 0c             	sub    $0xc,%esp
  1003d9:	52                   	push   %edx
  1003da:	ff d0                	call   *%eax
  1003dc:	83 c4 10             	add    $0x10,%esp
  1003df:	c9                   	leave  
  1003e0:	c3                   	ret    

001003e1 <serial_setWriteMethod>:
  1003e1:	55                   	push   %ebp
  1003e2:	89 e5                	mov    %esp,%ebp
  1003e4:	83 7d 08 00          	cmpl   $0x0,0x8(%ebp)
  1003e8:	74 08                	je     1003f2 <serial_setWriteMethod+0x11>
  1003ea:	8b 45 08             	mov    0x8(%ebp),%eax
  1003ed:	a3 40 92 10 00       	mov    %eax,0x109240
  1003f2:	90                   	nop
  1003f3:	5d                   	pop    %ebp
  1003f4:	c3                   	ret    

001003f5 <serial_printf>:
  1003f5:	55                   	push   %ebp
  1003f6:	89 e5                	mov    %esp,%ebp
  1003f8:	83 ec 18             	sub    $0x18,%esp
  1003fb:	8d 45 0c             	lea    0xc(%ebp),%eax
  1003fe:	89 45 f0             	mov    %eax,-0x10(%ebp)
  100401:	8b 45 f0             	mov    -0x10(%ebp),%eax
  100404:	50                   	push   %eax
  100405:	ff 75 08             	push   0x8(%ebp)
  100408:	6a 00                	push   $0x0
  10040a:	68 9c 03 10 00       	push   $0x10039c
  10040f:	e8 c0 34 00 00       	call   1038d4 <xvasprintf>
  100414:	83 c4 10             	add    $0x10,%esp
  100417:	89 45 f4             	mov    %eax,-0xc(%ebp)
  10041a:	8b 45 f4             	mov    -0xc(%ebp),%eax
  10041d:	c9                   	leave  
  10041e:	c3                   	ret    

0010041f <debug_print>:
  10041f:	55                   	push   %ebp
  100420:	89 e5                	mov    %esp,%ebp
  100422:	83 ec 18             	sub    $0x18,%esp
  100425:	8b 45 0c             	mov    0xc(%ebp),%eax
  100428:	88 45 f4             	mov    %al,-0xc(%ebp)
  10042b:	a1 44 92 10 00       	mov    0x109244,%eax
  100430:	85 c0                	test   %eax,%eax
  100432:	75 07                	jne    10043b <debug_print+0x1c>
  100434:	b8 00 00 00 00       	mov    $0x0,%eax
  100439:	eb 27                	jmp    100462 <debug_print+0x43>
  10043b:	80 7d f4 0a          	cmpb   $0xa,-0xc(%ebp)
  10043f:	75 0f                	jne    100450 <debug_print+0x31>
  100441:	a1 44 92 10 00       	mov    0x109244,%eax
  100446:	83 ec 0c             	sub    $0xc,%esp
  100449:	6a 0d                	push   $0xd
  10044b:	ff d0                	call   *%eax
  10044d:	83 c4 10             	add    $0x10,%esp
  100450:	a1 44 92 10 00       	mov    0x109244,%eax
  100455:	0f be 55 f4          	movsbl -0xc(%ebp),%edx
  100459:	83 ec 0c             	sub    $0xc,%esp
  10045c:	52                   	push   %edx
  10045d:	ff d0                	call   *%eax
  10045f:	83 c4 10             	add    $0x10,%esp
  100462:	c9                   	leave  
  100463:	c3                   	ret    

00100464 <debug_write>:
  100464:	55                   	push   %ebp
  100465:	89 e5                	mov    %esp,%ebp
  100467:	83 ec 18             	sub    $0x18,%esp
  10046a:	c7 45 f4 00 00 00 00 	movl   $0x0,-0xc(%ebp)
  100471:	eb 20                	jmp    100493 <debug_write+0x2f>
  100473:	8b 55 0c             	mov    0xc(%ebp),%edx
  100476:	8b 45 f4             	mov    -0xc(%ebp),%eax
  100479:	01 d0                	add    %edx,%eax
  10047b:	0f b6 00             	movzbl (%eax),%eax
  10047e:	0f be c0             	movsbl %al,%eax
  100481:	83 ec 08             	sub    $0x8,%esp
  100484:	50                   	push   %eax
  100485:	6a 00                	push   $0x0
  100487:	e8 93 ff ff ff       	call   10041f <debug_print>
  10048c:	83 c4 10             	add    $0x10,%esp
  10048f:	83 45 f4 01          	addl   $0x1,-0xc(%ebp)
  100493:	8b 45 f4             	mov    -0xc(%ebp),%eax
  100496:	3b 45 08             	cmp    0x8(%ebp),%eax
  100499:	72 d8                	jb     100473 <debug_write+0xf>
  10049b:	b8 00 00 00 00       	mov    $0x0,%eax
  1004a0:	c9                   	leave  
  1004a1:	c3                   	ret    

001004a2 <dprintf_internal>:
  1004a2:	55                   	push   %ebp
  1004a3:	89 e5                	mov    %esp,%ebp
  1004a5:	81 ec a8 00 00 00    	sub    $0xa8,%esp
  1004ab:	83 7d 10 00          	cmpl   $0x0,0x10(%ebp)
  1004af:	0f 84 42 01 00 00    	je     1005f7 <dprintf_internal+0x155>
  1004b5:	83 7d 10 04          	cmpl   $0x4,0x10(%ebp)
  1004b9:	74 68                	je     100523 <dprintf_internal+0x81>
  1004bb:	83 7d 10 04          	cmpl   $0x4,0x10(%ebp)
  1004bf:	77 7a                	ja     10053b <dprintf_internal+0x99>
  1004c1:	83 7d 10 03          	cmpl   $0x3,0x10(%ebp)
  1004c5:	74 44                	je     10050b <dprintf_internal+0x69>
  1004c7:	83 7d 10 03          	cmpl   $0x3,0x10(%ebp)
  1004cb:	77 6e                	ja     10053b <dprintf_internal+0x99>
  1004cd:	83 7d 10 01          	cmpl   $0x1,0x10(%ebp)
  1004d1:	74 08                	je     1004db <dprintf_internal+0x39>
  1004d3:	83 7d 10 02          	cmpl   $0x2,0x10(%ebp)
  1004d7:	74 1a                	je     1004f3 <dprintf_internal+0x51>
  1004d9:	eb 60                	jmp    10053b <dprintf_internal+0x99>
  1004db:	83 ec 04             	sub    $0x4,%esp
  1004de:	6a 04                	push   $0x4
  1004e0:	68 ee 60 10 00       	push   $0x1060ee
  1004e5:	8d 45 e7             	lea    -0x19(%ebp),%eax
  1004e8:	50                   	push   %eax
  1004e9:	e8 18 42 00 00       	call   104706 <strncpy>
  1004ee:	83 c4 10             	add    $0x10,%esp
  1004f1:	eb 5e                	jmp    100551 <dprintf_internal+0xaf>
  1004f3:	83 ec 04             	sub    $0x4,%esp
  1004f6:	6a 04                	push   $0x4
  1004f8:	68 f3 60 10 00       	push   $0x1060f3
  1004fd:	8d 45 e7             	lea    -0x19(%ebp),%eax
  100500:	50                   	push   %eax
  100501:	e8 00 42 00 00       	call   104706 <strncpy>
  100506:	83 c4 10             	add    $0x10,%esp
  100509:	eb 46                	jmp    100551 <dprintf_internal+0xaf>
  10050b:	83 ec 04             	sub    $0x4,%esp
  10050e:	6a 04                	push   $0x4
  100510:	68 f8 60 10 00       	push   $0x1060f8
  100515:	8d 45 e7             	lea    -0x19(%ebp),%eax
  100518:	50                   	push   %eax
  100519:	e8 e8 41 00 00       	call   104706 <strncpy>
  10051e:	83 c4 10             	add    $0x10,%esp
  100521:	eb 2e                	jmp    100551 <dprintf_internal+0xaf>
  100523:	83 ec 04             	sub    $0x4,%esp
  100526:	6a 04                	push   $0x4
  100528:	68 fd 60 10 00       	push   $0x1060fd
  10052d:	8d 45 e7             	lea    -0x19(%ebp),%eax
  100530:	50                   	push   %eax
  100531:	e8 d0 41 00 00       	call   104706 <strncpy>
  100536:	83 c4 10             	add    $0x10,%esp
  100539:	eb 16                	jmp    100551 <dprintf_internal+0xaf>
  10053b:	83 ec 04             	sub    $0x4,%esp
  10053e:	6a 04                	push   $0x4
  100540:	68 02 61 10 00       	push   $0x106102
  100545:	8d 45 e7             	lea    -0x19(%ebp),%eax
  100548:	50                   	push   %eax
  100549:	e8 b8 41 00 00       	call   104706 <strncpy>
  10054e:	83 c4 10             	add    $0x10,%esp
  100551:	c6 45 eb 00          	movb   $0x0,-0x15(%ebp)
  100555:	c7 45 f4 00 00 00 00 	movl   $0x0,-0xc(%ebp)
  10055c:	e8 31 fe ff ff       	call   100392 <clock_isReady>
  100561:	85 c0                	test   %eax,%eax
  100563:	75 22                	jne    100587 <dprintf_internal+0xe5>
  100565:	8d 45 e7             	lea    -0x19(%ebp),%eax
  100568:	50                   	push   %eax
  100569:	68 07 61 10 00       	push   $0x106107
  10056e:	68 80 00 00 00       	push   $0x80
  100573:	8d 85 67 ff ff ff    	lea    -0x99(%ebp),%eax
  100579:	50                   	push   %eax
  10057a:	e8 00 40 00 00       	call   10457f <snprintf>
  10057f:	83 c4 10             	add    $0x10,%esp
  100582:	89 45 f4             	mov    %eax,-0xc(%ebp)
  100585:	eb 59                	jmp    1005e0 <dprintf_internal+0x13e>
  100587:	83 ec 0c             	sub    $0xc,%esp
  10058a:	8d 85 5c ff ff ff    	lea    -0xa4(%ebp),%eax
  100590:	50                   	push   %eax
  100591:	e8 fb 4f 00 00       	call   105591 <time>
  100596:	83 c4 10             	add    $0x10,%esp
  100599:	83 ec 0c             	sub    $0xc,%esp
  10059c:	8d 85 5c ff ff ff    	lea    -0xa4(%ebp),%eax
  1005a2:	50                   	push   %eax
  1005a3:	e8 37 46 00 00       	call   104bdf <localtime>
  1005a8:	83 c4 10             	add    $0x10,%esp
  1005ab:	89 45 f0             	mov    %eax,-0x10(%ebp)
  1005ae:	83 ec 0c             	sub    $0xc,%esp
  1005b1:	ff 75 f0             	push   -0x10(%ebp)
  1005b4:	e8 b4 4f 00 00       	call   10556d <asctime>
  1005b9:	83 c4 10             	add    $0x10,%esp
  1005bc:	83 ec 0c             	sub    $0xc,%esp
  1005bf:	8d 55 e7             	lea    -0x19(%ebp),%edx
  1005c2:	52                   	push   %edx
  1005c3:	50                   	push   %eax
  1005c4:	68 1e 61 10 00       	push   $0x10611e
  1005c9:	68 80 00 00 00       	push   $0x80
  1005ce:	8d 85 67 ff ff ff    	lea    -0x99(%ebp),%eax
  1005d4:	50                   	push   %eax
  1005d5:	e8 a5 3f 00 00       	call   10457f <snprintf>
  1005da:	83 c4 20             	add    $0x20,%esp
  1005dd:	89 45 f4             	mov    %eax,-0xc(%ebp)
  1005e0:	83 ec 08             	sub    $0x8,%esp
  1005e3:	8d 85 67 ff ff ff    	lea    -0x99(%ebp),%eax
  1005e9:	50                   	push   %eax
  1005ea:	ff 75 f4             	push   -0xc(%ebp)
  1005ed:	e8 72 fe ff ff       	call   100464 <debug_write>
  1005f2:	83 c4 10             	add    $0x10,%esp
  1005f5:	eb 01                	jmp    1005f8 <dprintf_internal+0x156>
  1005f7:	90                   	nop
  1005f8:	8d 45 18             	lea    0x18(%ebp),%eax
  1005fb:	89 85 60 ff ff ff    	mov    %eax,-0xa0(%ebp)
  100601:	8b 85 60 ff ff ff    	mov    -0xa0(%ebp),%eax
  100607:	50                   	push   %eax
  100608:	ff 75 14             	push   0x14(%ebp)
  10060b:	6a 00                	push   $0x0
  10060d:	68 1f 04 10 00       	push   $0x10041f
  100612:	e8 bd 32 00 00       	call   1038d4 <xvasprintf>
  100617:	83 c4 10             	add    $0x10,%esp
  10061a:	89 45 ec             	mov    %eax,-0x14(%ebp)
  10061d:	8b 45 ec             	mov    -0x14(%ebp),%eax
  100620:	c9                   	leave  
  100621:	c3                   	ret    

00100622 <debug_setOutput>:
  100622:	55                   	push   %ebp
  100623:	89 e5                	mov    %esp,%ebp
  100625:	8b 45 08             	mov    0x8(%ebp),%eax
  100628:	a3 44 92 10 00       	mov    %eax,0x109244
  10062d:	90                   	nop
  10062e:	5d                   	pop    %ebp
  10062f:	c3                   	ret    

00100630 <kernel_panic_putchar>:
  100630:	55                   	push   %ebp
  100631:	89 e5                	mov    %esp,%ebp
  100633:	83 ec 18             	sub    $0x18,%esp
  100636:	8b 45 0c             	mov    0xc(%ebp),%eax
  100639:	88 45 f4             	mov    %al,-0xc(%ebp)
  10063c:	0f be 45 f4          	movsbl -0xc(%ebp),%eax
  100640:	83 ec 0c             	sub    $0xc,%esp
  100643:	50                   	push   %eax
  100644:	68 bc 62 10 00       	push   $0x1062bc
  100649:	6a 00                	push   $0x0
  10064b:	6a 2b                	push   $0x2b
  10064d:	68 bf 62 10 00       	push   $0x1062bf
  100652:	e8 4b fe ff ff       	call   1004a2 <dprintf_internal>
  100657:	83 c4 20             	add    $0x20,%esp
  10065a:	b8 00 00 00 00       	mov    $0x0,%eax
  10065f:	c9                   	leave  
  100660:	c3                   	ret    

00100661 <kernel_panic_extended>:
  100661:	55                   	push   %ebp
  100662:	89 e5                	mov    %esp,%ebp
  100664:	83 ec 18             	sub    $0x18,%esp
  100667:	8b 55 08             	mov    0x8(%ebp),%edx
  10066a:	a1 20 80 10 00       	mov    0x108020,%eax
  10066f:	39 c2                	cmp    %eax,%edx
  100671:	7c 15                	jl     100688 <kernel_panic_extended+0x27>
  100673:	ff 75 08             	push   0x8(%ebp)
  100676:	68 d4 62 10 00       	push   $0x1062d4
  10067b:	ff 75 0c             	push   0xc(%ebp)
  10067e:	6a 02                	push   $0x2
  100680:	e8 dc ff ff ff       	call   100661 <kernel_panic_extended>
  100685:	83 c4 10             	add    $0x10,%esp
  100688:	e8 c3 1b 00 00       	call   102250 <arch_panic_prepare>
  10068d:	68 14 63 10 00       	push   $0x106314
  100692:	6a 00                	push   $0x0
  100694:	6a 40                	push   $0x40
  100696:	68 bf 62 10 00       	push   $0x1062bf
  10069b:	e8 02 fe ff ff       	call   1004a2 <dprintf_internal>
  1006a0:	83 c4 10             	add    $0x10,%esp
  1006a3:	68 18 63 10 00       	push   $0x106318
  1006a8:	6a 00                	push   $0x0
  1006aa:	6a 41                	push   $0x41
  1006ac:	68 bf 62 10 00       	push   $0x1062bf
  1006b1:	e8 ec fd ff ff       	call   1004a2 <dprintf_internal>
  1006b6:	83 c4 10             	add    $0x10,%esp
  1006b9:	68 60 63 10 00       	push   $0x106360
  1006be:	6a 00                	push   $0x0
  1006c0:	6a 42                	push   $0x42
  1006c2:	68 bf 62 10 00       	push   $0x1062bf
  1006c7:	e8 d6 fd ff ff       	call   1004a2 <dprintf_internal>
  1006cc:	83 c4 10             	add    $0x10,%esp
  1006cf:	68 a4 63 10 00       	push   $0x1063a4
  1006d4:	6a 00                	push   $0x0
  1006d6:	6a 43                	push   $0x43
  1006d8:	68 bf 62 10 00       	push   $0x1062bf
  1006dd:	e8 c0 fd ff ff       	call   1004a2 <dprintf_internal>
  1006e2:	83 c4 10             	add    $0x10,%esp
  1006e5:	8b 45 08             	mov    0x8(%ebp),%eax
  1006e8:	8b 04 85 24 80 10 00 	mov    0x108024(,%eax,4),%eax
  1006ef:	83 ec 08             	sub    $0x8,%esp
  1006f2:	ff 75 0c             	push   0xc(%ebp)
  1006f5:	50                   	push   %eax
  1006f6:	68 dd 63 10 00       	push   $0x1063dd
  1006fb:	6a 00                	push   $0x0
  1006fd:	6a 45                	push   $0x45
  1006ff:	68 bf 62 10 00       	push   $0x1062bf
  100704:	e8 99 fd ff ff       	call   1004a2 <dprintf_internal>
  100709:	83 c4 20             	add    $0x20,%esp
  10070c:	8d 45 14             	lea    0x14(%ebp),%eax
  10070f:	89 45 f4             	mov    %eax,-0xc(%ebp)
  100712:	8b 45 f4             	mov    -0xc(%ebp),%eax
  100715:	50                   	push   %eax
  100716:	ff 75 10             	push   0x10(%ebp)
  100719:	6a 00                	push   $0x0
  10071b:	68 30 06 10 00       	push   $0x100630
  100720:	e8 af 31 00 00       	call   1038d4 <xvasprintf>
  100725:	83 c4 10             	add    $0x10,%esp
  100728:	8b 45 08             	mov    0x8(%ebp),%eax
  10072b:	8b 04 85 34 80 10 00 	mov    0x108034(,%eax,4),%eax
  100732:	83 ec 0c             	sub    $0xc,%esp
  100735:	50                   	push   %eax
  100736:	68 f9 63 10 00       	push   $0x1063f9
  10073b:	6a 00                	push   $0x0
  10073d:	6a 4d                	push   $0x4d
  10073f:	68 bf 62 10 00       	push   $0x1062bf
  100744:	e8 59 fd ff ff       	call   1004a2 <dprintf_internal>
  100749:	83 c4 20             	add    $0x20,%esp
  10074c:	68 00 64 10 00       	push   $0x106400
  100751:	6a 00                	push   $0x0
  100753:	6a 50                	push   $0x50
  100755:	68 bf 62 10 00       	push   $0x1062bf
  10075a:	e8 43 fd ff ff       	call   1004a2 <dprintf_internal>
  10075f:	83 c4 10             	add    $0x10,%esp
  100762:	e8 ef 1a 00 00       	call   102256 <arch_panic_finalize>
  100767:	90                   	nop
  100768:	c9                   	leave  
  100769:	c3                   	ret    

0010076a <kernel_panic>:
  10076a:	55                   	push   %ebp
  10076b:	89 e5                	mov    %esp,%ebp
  10076d:	83 ec 08             	sub    $0x8,%esp
  100770:	8b 55 08             	mov    0x8(%ebp),%edx
  100773:	a1 20 80 10 00       	mov    0x108020,%eax
  100778:	39 c2                	cmp    %eax,%edx
  10077a:	7c 15                	jl     100791 <kernel_panic+0x27>
  10077c:	ff 75 08             	push   0x8(%ebp)
  10077f:	68 54 64 10 00       	push   $0x106454
  100784:	ff 75 0c             	push   0xc(%ebp)
  100787:	6a 02                	push   $0x2
  100789:	e8 d3 fe ff ff       	call   100661 <kernel_panic_extended>
  10078e:	83 c4 10             	add    $0x10,%esp
  100791:	e8 ba 1a 00 00       	call   102250 <arch_panic_prepare>
  100796:	68 14 63 10 00       	push   $0x106314
  10079b:	6a 00                	push   $0x0
  10079d:	6a 63                	push   $0x63
  10079f:	68 bf 62 10 00       	push   $0x1062bf
  1007a4:	e8 f9 fc ff ff       	call   1004a2 <dprintf_internal>
  1007a9:	83 c4 10             	add    $0x10,%esp
  1007ac:	68 18 63 10 00       	push   $0x106318
  1007b1:	6a 00                	push   $0x0
  1007b3:	6a 64                	push   $0x64
  1007b5:	68 bf 62 10 00       	push   $0x1062bf
  1007ba:	e8 e3 fc ff ff       	call   1004a2 <dprintf_internal>
  1007bf:	83 c4 10             	add    $0x10,%esp
  1007c2:	68 60 63 10 00       	push   $0x106360
  1007c7:	6a 00                	push   $0x0
  1007c9:	6a 65                	push   $0x65
  1007cb:	68 bf 62 10 00       	push   $0x1062bf
  1007d0:	e8 cd fc ff ff       	call   1004a2 <dprintf_internal>
  1007d5:	83 c4 10             	add    $0x10,%esp
  1007d8:	68 a4 63 10 00       	push   $0x1063a4
  1007dd:	6a 00                	push   $0x0
  1007df:	6a 66                	push   $0x66
  1007e1:	68 bf 62 10 00       	push   $0x1062bf
  1007e6:	e8 b7 fc ff ff       	call   1004a2 <dprintf_internal>
  1007eb:	83 c4 10             	add    $0x10,%esp
  1007ee:	8b 45 08             	mov    0x8(%ebp),%eax
  1007f1:	8b 04 85 24 80 10 00 	mov    0x108024(,%eax,4),%eax
  1007f8:	83 ec 08             	sub    $0x8,%esp
  1007fb:	ff 75 0c             	push   0xc(%ebp)
  1007fe:	50                   	push   %eax
  1007ff:	68 dd 63 10 00       	push   $0x1063dd
  100804:	6a 00                	push   $0x0
  100806:	6a 67                	push   $0x67
  100808:	68 bf 62 10 00       	push   $0x1062bf
  10080d:	e8 90 fc ff ff       	call   1004a2 <dprintf_internal>
  100812:	83 c4 20             	add    $0x20,%esp
  100815:	8b 45 08             	mov    0x8(%ebp),%eax
  100818:	8b 04 85 34 80 10 00 	mov    0x108034(,%eax,4),%eax
  10081f:	83 ec 0c             	sub    $0xc,%esp
  100822:	50                   	push   %eax
  100823:	68 8b 64 10 00       	push   $0x10648b
  100828:	6a 00                	push   $0x0
  10082a:	6a 68                	push   $0x68
  10082c:	68 bf 62 10 00       	push   $0x1062bf
  100831:	e8 6c fc ff ff       	call   1004a2 <dprintf_internal>
  100836:	83 c4 20             	add    $0x20,%esp
  100839:	68 00 64 10 00       	push   $0x106400
  10083e:	6a 00                	push   $0x0
  100840:	6a 6b                	push   $0x6b
  100842:	68 bf 62 10 00       	push   $0x1062bf
  100847:	e8 56 fc ff ff       	call   1004a2 <dprintf_internal>
  10084c:	83 c4 10             	add    $0x10,%esp
  10084f:	e8 02 1a 00 00       	call   102256 <arch_panic_finalize>
  100854:	90                   	nop
  100855:	c9                   	leave  
  100856:	c3                   	ret    

00100857 <kernel_panic_prepare>:
  100857:	55                   	push   %ebp
  100858:	89 e5                	mov    %esp,%ebp
  10085a:	83 ec 08             	sub    $0x8,%esp
  10085d:	e8 ee 19 00 00       	call   102250 <arch_panic_prepare>
  100862:	68 14 63 10 00       	push   $0x106314
  100867:	6a 00                	push   $0x0
  100869:	6a 75                	push   $0x75
  10086b:	68 bf 62 10 00       	push   $0x1062bf
  100870:	e8 2d fc ff ff       	call   1004a2 <dprintf_internal>
  100875:	83 c4 10             	add    $0x10,%esp
  100878:	68 18 63 10 00       	push   $0x106318
  10087d:	6a 00                	push   $0x0
  10087f:	6a 76                	push   $0x76
  100881:	68 bf 62 10 00       	push   $0x1062bf
  100886:	e8 17 fc ff ff       	call   1004a2 <dprintf_internal>
  10088b:	83 c4 10             	add    $0x10,%esp
  10088e:	68 60 63 10 00       	push   $0x106360
  100893:	6a 00                	push   $0x0
  100895:	6a 77                	push   $0x77
  100897:	68 bf 62 10 00       	push   $0x1062bf
  10089c:	e8 01 fc ff ff       	call   1004a2 <dprintf_internal>
  1008a1:	83 c4 10             	add    $0x10,%esp
  1008a4:	68 a4 63 10 00       	push   $0x1063a4
  1008a9:	6a 00                	push   $0x0
  1008ab:	6a 78                	push   $0x78
  1008ad:	68 bf 62 10 00       	push   $0x1062bf
  1008b2:	e8 eb fb ff ff       	call   1004a2 <dprintf_internal>
  1008b7:	83 c4 10             	add    $0x10,%esp
  1008ba:	90                   	nop
  1008bb:	c9                   	leave  
  1008bc:	c3                   	ret    

001008bd <kernel_panic_finalize>:
  1008bd:	55                   	push   %ebp
  1008be:	89 e5                	mov    %esp,%ebp
  1008c0:	83 ec 08             	sub    $0x8,%esp
  1008c3:	68 00 64 10 00       	push   $0x106400
  1008c8:	6a 00                	push   $0x0
  1008ca:	6a 7f                	push   $0x7f
  1008cc:	68 bf 62 10 00       	push   $0x1062bf
  1008d1:	e8 cc fb ff ff       	call   1004a2 <dprintf_internal>
  1008d6:	83 c4 10             	add    $0x10,%esp
  1008d9:	e8 78 19 00 00       	call   102256 <arch_panic_finalize>
  1008de:	90                   	nop
  1008df:	c9                   	leave  
  1008e0:	c3                   	ret    

001008e1 <pmm_init>:
  1008e1:	55                   	push   %ebp
  1008e2:	89 e5                	mov    %esp,%ebp
  1008e4:	83 ec 08             	sub    $0x8,%esp
  1008e7:	83 7d 08 00          	cmpl   $0x0,0x8(%ebp)
  1008eb:	74 06                	je     1008f3 <pmm_init+0x12>
  1008ed:	83 7d 0c 00          	cmpl   $0x0,0xc(%ebp)
  1008f1:	75 12                	jne    100905 <pmm_init+0x24>
  1008f3:	83 ec 08             	sub    $0x8,%esp
  1008f6:	68 8e 64 10 00       	push   $0x10648e
  1008fb:	6a 02                	push   $0x2
  1008fd:	e8 68 fe ff ff       	call   10076a <kernel_panic>
  100902:	83 c4 10             	add    $0x10,%esp
  100905:	8b 45 08             	mov    0x8(%ebp),%eax
  100908:	a3 50 92 10 00       	mov    %eax,0x109250
  10090d:	a1 50 92 10 00       	mov    0x109250,%eax
  100912:	c1 e8 0c             	shr    $0xc,%eax
  100915:	a3 58 92 10 00       	mov    %eax,0x109258
  10091a:	a1 58 92 10 00       	mov    0x109258,%eax
  10091f:	a3 54 92 10 00       	mov    %eax,0x109254
  100924:	8b 45 0c             	mov    0xc(%ebp),%eax
  100927:	a3 48 92 10 00       	mov    %eax,0x109248
  10092c:	a1 58 92 10 00       	mov    0x109258,%eax
  100931:	a3 4c 92 10 00       	mov    %eax,0x10924c
  100936:	a1 4c 92 10 00       	mov    0x10924c,%eax
  10093b:	c1 e8 03             	shr    $0x3,%eax
  10093e:	89 c2                	mov    %eax,%edx
  100940:	a1 48 92 10 00       	mov    0x109248,%eax
  100945:	83 ec 04             	sub    $0x4,%esp
  100948:	52                   	push   %edx
  100949:	6a 0f                	push   $0xf
  10094b:	50                   	push   %eax
  10094c:	e8 88 3d 00 00       	call   1046d9 <memset>
  100951:	83 c4 10             	add    $0x10,%esp
  100954:	b8 00 00 00 00       	mov    $0x0,%eax
  100959:	c9                   	leave  
  10095a:	c3                   	ret    

0010095b <pmm_setFrame>:
  10095b:	55                   	push   %ebp
  10095c:	89 e5                	mov    %esp,%ebp
  10095e:	56                   	push   %esi
  10095f:	53                   	push   %ebx
  100960:	8b 15 48 92 10 00    	mov    0x109248,%edx
  100966:	8b 45 08             	mov    0x8(%ebp),%eax
  100969:	8d 48 1f             	lea    0x1f(%eax),%ecx
  10096c:	85 c0                	test   %eax,%eax
  10096e:	0f 48 c1             	cmovs  %ecx,%eax
  100971:	c1 f8 05             	sar    $0x5,%eax
  100974:	89 c3                	mov    %eax,%ebx
  100976:	89 d8                	mov    %ebx,%eax
  100978:	c1 e0 02             	shl    $0x2,%eax
  10097b:	01 d0                	add    %edx,%eax
  10097d:	8b 10                	mov    (%eax),%edx
  10097f:	8b 45 08             	mov    0x8(%ebp),%eax
  100982:	83 e0 1f             	and    $0x1f,%eax
  100985:	be 01 00 00 00       	mov    $0x1,%esi
  10098a:	89 c1                	mov    %eax,%ecx
  10098c:	d3 e6                	shl    %cl,%esi
  10098e:	89 f0                	mov    %esi,%eax
  100990:	89 c6                	mov    %eax,%esi
  100992:	a1 48 92 10 00       	mov    0x109248,%eax
  100997:	89 d9                	mov    %ebx,%ecx
  100999:	c1 e1 02             	shl    $0x2,%ecx
  10099c:	01 c8                	add    %ecx,%eax
  10099e:	09 f2                	or     %esi,%edx
  1009a0:	89 10                	mov    %edx,(%eax)
  1009a2:	90                   	nop
  1009a3:	5b                   	pop    %ebx
  1009a4:	5e                   	pop    %esi
  1009a5:	5d                   	pop    %ebp
  1009a6:	c3                   	ret    

001009a7 <pmm_clearFrame>:
  1009a7:	55                   	push   %ebp
  1009a8:	89 e5                	mov    %esp,%ebp
  1009aa:	56                   	push   %esi
  1009ab:	53                   	push   %ebx
  1009ac:	8b 15 48 92 10 00    	mov    0x109248,%edx
  1009b2:	8b 45 08             	mov    0x8(%ebp),%eax
  1009b5:	8d 48 1f             	lea    0x1f(%eax),%ecx
  1009b8:	85 c0                	test   %eax,%eax
  1009ba:	0f 48 c1             	cmovs  %ecx,%eax
  1009bd:	c1 f8 05             	sar    $0x5,%eax
  1009c0:	89 c3                	mov    %eax,%ebx
  1009c2:	89 d8                	mov    %ebx,%eax
  1009c4:	c1 e0 02             	shl    $0x2,%eax
  1009c7:	01 d0                	add    %edx,%eax
  1009c9:	8b 10                	mov    (%eax),%edx
  1009cb:	8b 45 08             	mov    0x8(%ebp),%eax
  1009ce:	83 e0 1f             	and    $0x1f,%eax
  1009d1:	be 01 00 00 00       	mov    $0x1,%esi
  1009d6:	89 c1                	mov    %eax,%ecx
  1009d8:	d3 e6                	shl    %cl,%esi
  1009da:	89 f0                	mov    %esi,%eax
  1009dc:	f7 d0                	not    %eax
  1009de:	89 c6                	mov    %eax,%esi
  1009e0:	a1 48 92 10 00       	mov    0x109248,%eax
  1009e5:	89 d9                	mov    %ebx,%ecx
  1009e7:	c1 e1 02             	shl    $0x2,%ecx
  1009ea:	01 c8                	add    %ecx,%eax
  1009ec:	21 f2                	and    %esi,%edx
  1009ee:	89 10                	mov    %edx,(%eax)
  1009f0:	90                   	nop
  1009f1:	5b                   	pop    %ebx
  1009f2:	5e                   	pop    %esi
  1009f3:	5d                   	pop    %ebp
  1009f4:	c3                   	ret    

001009f5 <pmm_testFrame>:
  1009f5:	55                   	push   %ebp
  1009f6:	89 e5                	mov    %esp,%ebp
  1009f8:	53                   	push   %ebx
  1009f9:	8b 15 48 92 10 00    	mov    0x109248,%edx
  1009ff:	8b 45 08             	mov    0x8(%ebp),%eax
  100a02:	8d 48 1f             	lea    0x1f(%eax),%ecx
  100a05:	85 c0                	test   %eax,%eax
  100a07:	0f 48 c1             	cmovs  %ecx,%eax
  100a0a:	c1 f8 05             	sar    $0x5,%eax
  100a0d:	c1 e0 02             	shl    $0x2,%eax
  100a10:	01 d0                	add    %edx,%eax
  100a12:	8b 00                	mov    (%eax),%eax
  100a14:	8b 55 08             	mov    0x8(%ebp),%edx
  100a17:	83 e2 1f             	and    $0x1f,%edx
  100a1a:	bb 01 00 00 00       	mov    $0x1,%ebx
  100a1f:	89 d1                	mov    %edx,%ecx
  100a21:	d3 e3                	shl    %cl,%ebx
  100a23:	89 da                	mov    %ebx,%edx
  100a25:	21 d0                	and    %edx,%eax
  100a27:	8b 5d fc             	mov    -0x4(%ebp),%ebx
  100a2a:	c9                   	leave  
  100a2b:	c3                   	ret    

00100a2c <pmm_findFirstFrame>:
  100a2c:	55                   	push   %ebp
  100a2d:	89 e5                	mov    %esp,%ebp
  100a2f:	53                   	push   %ebx
  100a30:	83 ec 10             	sub    $0x10,%esp
  100a33:	c7 45 f8 00 00 00 00 	movl   $0x0,-0x8(%ebp)
  100a3a:	eb 5d                	jmp    100a99 <pmm_findFirstFrame+0x6d>
  100a3c:	a1 48 92 10 00       	mov    0x109248,%eax
  100a41:	8b 55 f8             	mov    -0x8(%ebp),%edx
  100a44:	c1 e2 02             	shl    $0x2,%edx
  100a47:	01 d0                	add    %edx,%eax
  100a49:	8b 00                	mov    (%eax),%eax
  100a4b:	83 f8 ff             	cmp    $0xffffffff,%eax
  100a4e:	74 45                	je     100a95 <pmm_findFirstFrame+0x69>
  100a50:	c7 45 f4 00 00 00 00 	movl   $0x0,-0xc(%ebp)
  100a57:	eb 36                	jmp    100a8f <pmm_findFirstFrame+0x63>
  100a59:	a1 48 92 10 00       	mov    0x109248,%eax
  100a5e:	8b 55 f8             	mov    -0x8(%ebp),%edx
  100a61:	c1 e2 02             	shl    $0x2,%edx
  100a64:	01 d0                	add    %edx,%eax
  100a66:	8b 10                	mov    (%eax),%edx
  100a68:	8b 45 f4             	mov    -0xc(%ebp),%eax
  100a6b:	bb 01 00 00 00       	mov    $0x1,%ebx
  100a70:	89 c1                	mov    %eax,%ecx
  100a72:	d3 e3                	shl    %cl,%ebx
  100a74:	89 d8                	mov    %ebx,%eax
  100a76:	21 d0                	and    %edx,%eax
  100a78:	85 c0                	test   %eax,%eax
  100a7a:	75 0f                	jne    100a8b <pmm_findFirstFrame+0x5f>
  100a7c:	8b 45 f8             	mov    -0x8(%ebp),%eax
  100a7f:	c1 e0 05             	shl    $0x5,%eax
  100a82:	89 c2                	mov    %eax,%edx
  100a84:	8b 45 f4             	mov    -0xc(%ebp),%eax
  100a87:	01 d0                	add    %edx,%eax
  100a89:	eb 20                	jmp    100aab <pmm_findFirstFrame+0x7f>
  100a8b:	83 45 f4 01          	addl   $0x1,-0xc(%ebp)
  100a8f:	83 7d f4 1f          	cmpl   $0x1f,-0xc(%ebp)
  100a93:	76 c4                	jbe    100a59 <pmm_findFirstFrame+0x2d>
  100a95:	83 45 f8 01          	addl   $0x1,-0x8(%ebp)
  100a99:	a1 4c 92 10 00       	mov    0x10924c,%eax
  100a9e:	c1 e8 05             	shr    $0x5,%eax
  100aa1:	39 45 f8             	cmp    %eax,-0x8(%ebp)
  100aa4:	72 96                	jb     100a3c <pmm_findFirstFrame+0x10>
  100aa6:	b8 f4 ff ff ff       	mov    $0xfffffff4,%eax
  100aab:	8b 5d fc             	mov    -0x4(%ebp),%ebx
  100aae:	c9                   	leave  
  100aaf:	c3                   	ret    

00100ab0 <pmm_findFirstFrames>:
  100ab0:	55                   	push   %ebp
  100ab1:	89 e5                	mov    %esp,%ebp
  100ab3:	53                   	push   %ebx
  100ab4:	83 ec 20             	sub    $0x20,%esp
  100ab7:	83 7d 08 00          	cmpl   $0x0,0x8(%ebp)
  100abb:	75 0a                	jne    100ac7 <pmm_findFirstFrames+0x17>
  100abd:	b8 00 00 00 00       	mov    $0x0,%eax
  100ac2:	e9 e7 00 00 00       	jmp    100bae <pmm_findFirstFrames+0xfe>
  100ac7:	83 7d 08 01          	cmpl   $0x1,0x8(%ebp)
  100acb:	75 0a                	jne    100ad7 <pmm_findFirstFrames+0x27>
  100acd:	e8 5a ff ff ff       	call   100a2c <pmm_findFirstFrame>
  100ad2:	e9 d7 00 00 00       	jmp    100bae <pmm_findFirstFrames+0xfe>
  100ad7:	c7 45 f8 00 00 00 00 	movl   $0x0,-0x8(%ebp)
  100ade:	e9 b5 00 00 00       	jmp    100b98 <pmm_findFirstFrames+0xe8>
  100ae3:	a1 48 92 10 00       	mov    0x109248,%eax
  100ae8:	8b 55 f8             	mov    -0x8(%ebp),%edx
  100aeb:	c1 e2 02             	shl    $0x2,%edx
  100aee:	01 d0                	add    %edx,%eax
  100af0:	8b 00                	mov    (%eax),%eax
  100af2:	83 f8 ff             	cmp    $0xffffffff,%eax
  100af5:	0f 84 99 00 00 00    	je     100b94 <pmm_findFirstFrames+0xe4>
  100afb:	c7 45 f4 00 00 00 00 	movl   $0x0,-0xc(%ebp)
  100b02:	e9 83 00 00 00       	jmp    100b8a <pmm_findFirstFrames+0xda>
  100b07:	a1 48 92 10 00       	mov    0x109248,%eax
  100b0c:	8b 55 f8             	mov    -0x8(%ebp),%edx
  100b0f:	c1 e2 02             	shl    $0x2,%edx
  100b12:	01 d0                	add    %edx,%eax
  100b14:	8b 10                	mov    (%eax),%edx
  100b16:	8b 45 f4             	mov    -0xc(%ebp),%eax
  100b19:	bb 01 00 00 00       	mov    $0x1,%ebx
  100b1e:	89 c1                	mov    %eax,%ecx
  100b20:	d3 e3                	shl    %cl,%ebx
  100b22:	89 d8                	mov    %ebx,%eax
  100b24:	21 d0                	and    %edx,%eax
  100b26:	85 c0                	test   %eax,%eax
  100b28:	75 5c                	jne    100b86 <pmm_findFirstFrames+0xd6>
  100b2a:	8b 45 f8             	mov    -0x8(%ebp),%eax
  100b2d:	c1 e0 05             	shl    $0x5,%eax
  100b30:	89 c2                	mov    %eax,%edx
  100b32:	8b 45 f4             	mov    -0xc(%ebp),%eax
  100b35:	01 d0                	add    %edx,%eax
  100b37:	89 45 e8             	mov    %eax,-0x18(%ebp)
  100b3a:	c7 45 f0 00 00 00 00 	movl   $0x0,-0x10(%ebp)
  100b41:	c7 45 ec 00 00 00 00 	movl   $0x0,-0x14(%ebp)
  100b48:	eb 34                	jmp    100b7e <pmm_findFirstFrames+0xce>
  100b4a:	8b 55 e8             	mov    -0x18(%ebp),%edx
  100b4d:	8b 45 ec             	mov    -0x14(%ebp),%eax
  100b50:	01 d0                	add    %edx,%eax
  100b52:	50                   	push   %eax
  100b53:	e8 9d fe ff ff       	call   1009f5 <pmm_testFrame>
  100b58:	83 c4 04             	add    $0x4,%esp
  100b5b:	85 c0                	test   %eax,%eax
  100b5d:	75 04                	jne    100b63 <pmm_findFirstFrames+0xb3>
  100b5f:	83 45 f0 01          	addl   $0x1,-0x10(%ebp)
  100b63:	8b 45 f0             	mov    -0x10(%ebp),%eax
  100b66:	3b 45 08             	cmp    0x8(%ebp),%eax
  100b69:	75 0f                	jne    100b7a <pmm_findFirstFrames+0xca>
  100b6b:	8b 45 f8             	mov    -0x8(%ebp),%eax
  100b6e:	c1 e0 05             	shl    $0x5,%eax
  100b71:	89 c2                	mov    %eax,%edx
  100b73:	8b 45 f4             	mov    -0xc(%ebp),%eax
  100b76:	01 d0                	add    %edx,%eax
  100b78:	eb 34                	jmp    100bae <pmm_findFirstFrames+0xfe>
  100b7a:	83 45 ec 01          	addl   $0x1,-0x14(%ebp)
  100b7e:	8b 45 ec             	mov    -0x14(%ebp),%eax
  100b81:	3b 45 08             	cmp    0x8(%ebp),%eax
  100b84:	72 c4                	jb     100b4a <pmm_findFirstFrames+0x9a>
  100b86:	83 45 f4 01          	addl   $0x1,-0xc(%ebp)
  100b8a:	83 7d f4 1f          	cmpl   $0x1f,-0xc(%ebp)
  100b8e:	0f 86 73 ff ff ff    	jbe    100b07 <pmm_findFirstFrames+0x57>
  100b94:	83 45 f8 01          	addl   $0x1,-0x8(%ebp)
  100b98:	a1 4c 92 10 00       	mov    0x10924c,%eax
  100b9d:	c1 e8 05             	shr    $0x5,%eax
  100ba0:	39 45 f8             	cmp    %eax,-0x8(%ebp)
  100ba3:	0f 82 3a ff ff ff    	jb     100ae3 <pmm_findFirstFrames+0x33>
  100ba9:	b8 f4 ff ff ff       	mov    $0xfffffff4,%eax
  100bae:	8b 5d fc             	mov    -0x4(%ebp),%ebx
  100bb1:	c9                   	leave  
  100bb2:	c3                   	ret    

00100bb3 <pmm_initializeRegion>:
  100bb3:	55                   	push   %ebp
  100bb4:	89 e5                	mov    %esp,%ebp
  100bb6:	83 ec 10             	sub    $0x10,%esp
  100bb9:	83 7d 0c 00          	cmpl   $0x0,0xc(%ebp)
  100bbd:	74 4c                	je     100c0b <pmm_initializeRegion+0x58>
  100bbf:	83 7d 08 00          	cmpl   $0x0,0x8(%ebp)
  100bc3:	74 08                	je     100bcd <pmm_initializeRegion+0x1a>
  100bc5:	8b 45 08             	mov    0x8(%ebp),%eax
  100bc8:	c1 e8 0c             	shr    $0xc,%eax
  100bcb:	eb 05                	jmp    100bd2 <pmm_initializeRegion+0x1f>
  100bcd:	b8 00 00 00 00       	mov    $0x0,%eax
  100bd2:	89 45 fc             	mov    %eax,-0x4(%ebp)
  100bd5:	8b 45 0c             	mov    0xc(%ebp),%eax
  100bd8:	c1 e8 0c             	shr    $0xc,%eax
  100bdb:	89 45 f8             	mov    %eax,-0x8(%ebp)
  100bde:	eb 23                	jmp    100c03 <pmm_initializeRegion+0x50>
  100be0:	8b 45 fc             	mov    -0x4(%ebp),%eax
  100be3:	8d 50 01             	lea    0x1(%eax),%edx
  100be6:	89 55 fc             	mov    %edx,-0x4(%ebp)
  100be9:	50                   	push   %eax
  100bea:	e8 b8 fd ff ff       	call   1009a7 <pmm_clearFrame>
  100bef:	83 c4 04             	add    $0x4,%esp
  100bf2:	a1 54 92 10 00       	mov    0x109254,%eax
  100bf7:	83 e8 01             	sub    $0x1,%eax
  100bfa:	a3 54 92 10 00       	mov    %eax,0x109254
  100bff:	83 6d f8 01          	subl   $0x1,-0x8(%ebp)
  100c03:	83 7d f8 00          	cmpl   $0x0,-0x8(%ebp)
  100c07:	7f d7                	jg     100be0 <pmm_initializeRegion+0x2d>
  100c09:	eb 01                	jmp    100c0c <pmm_initializeRegion+0x59>
  100c0b:	90                   	nop
  100c0c:	c9                   	leave  
  100c0d:	c3                   	ret    

00100c0e <pmm_deinitializeRegion>:
  100c0e:	55                   	push   %ebp
  100c0f:	89 e5                	mov    %esp,%ebp
  100c11:	83 ec 10             	sub    $0x10,%esp
  100c14:	83 7d 0c 00          	cmpl   $0x0,0xc(%ebp)
  100c18:	74 4c                	je     100c66 <pmm_deinitializeRegion+0x58>
  100c1a:	83 7d 08 00          	cmpl   $0x0,0x8(%ebp)
  100c1e:	74 08                	je     100c28 <pmm_deinitializeRegion+0x1a>
  100c20:	8b 45 08             	mov    0x8(%ebp),%eax
  100c23:	c1 e8 0c             	shr    $0xc,%eax
  100c26:	eb 05                	jmp    100c2d <pmm_deinitializeRegion+0x1f>
  100c28:	b8 00 00 00 00       	mov    $0x0,%eax
  100c2d:	89 45 fc             	mov    %eax,-0x4(%ebp)
  100c30:	8b 45 0c             	mov    0xc(%ebp),%eax
  100c33:	c1 e8 0c             	shr    $0xc,%eax
  100c36:	89 45 f8             	mov    %eax,-0x8(%ebp)
  100c39:	eb 23                	jmp    100c5e <pmm_deinitializeRegion+0x50>
  100c3b:	8b 45 fc             	mov    -0x4(%ebp),%eax
  100c3e:	8d 50 01             	lea    0x1(%eax),%edx
  100c41:	89 55 fc             	mov    %edx,-0x4(%ebp)
  100c44:	50                   	push   %eax
  100c45:	e8 11 fd ff ff       	call   10095b <pmm_setFrame>
  100c4a:	83 c4 04             	add    $0x4,%esp
  100c4d:	a1 54 92 10 00       	mov    0x109254,%eax
  100c52:	83 c0 01             	add    $0x1,%eax
  100c55:	a3 54 92 10 00       	mov    %eax,0x109254
  100c5a:	83 6d f8 01          	subl   $0x1,-0x8(%ebp)
  100c5e:	83 7d f8 00          	cmpl   $0x0,-0x8(%ebp)
  100c62:	7f d7                	jg     100c3b <pmm_deinitializeRegion+0x2d>
  100c64:	eb 01                	jmp    100c67 <pmm_deinitializeRegion+0x59>
  100c66:	90                   	nop
  100c67:	c9                   	leave  
  100c68:	c3                   	ret    

00100c69 <pmm_allocateBlock>:
  100c69:	55                   	push   %ebp
  100c6a:	89 e5                	mov    %esp,%ebp
  100c6c:	83 ec 18             	sub    $0x18,%esp
  100c6f:	8b 15 58 92 10 00    	mov    0x109258,%edx
  100c75:	a1 54 92 10 00       	mov    0x109254,%eax
  100c7a:	39 c2                	cmp    %eax,%edx
  100c7c:	74 2e                	je     100cac <pmm_allocateBlock+0x43>
  100c7e:	e8 a9 fd ff ff       	call   100a2c <pmm_findFirstFrame>
  100c83:	89 45 f4             	mov    %eax,-0xc(%ebp)
  100c86:	83 7d f4 f4          	cmpl   $0xfffffff4,-0xc(%ebp)
  100c8a:	74 23                	je     100caf <pmm_allocateBlock+0x46>
  100c8c:	ff 75 f4             	push   -0xc(%ebp)
  100c8f:	e8 c7 fc ff ff       	call   10095b <pmm_setFrame>
  100c94:	83 c4 04             	add    $0x4,%esp
  100c97:	a1 54 92 10 00       	mov    0x109254,%eax
  100c9c:	83 c0 01             	add    $0x1,%eax
  100c9f:	a3 54 92 10 00       	mov    %eax,0x109254
  100ca4:	8b 45 f4             	mov    -0xc(%ebp),%eax
  100ca7:	c1 e0 0c             	shl    $0xc,%eax
  100caa:	eb 16                	jmp    100cc2 <pmm_allocateBlock+0x59>
  100cac:	90                   	nop
  100cad:	eb 01                	jmp    100cb0 <pmm_allocateBlock+0x47>
  100caf:	90                   	nop
  100cb0:	83 ec 08             	sub    $0x8,%esp
  100cb3:	68 8e 64 10 00       	push   $0x10648e
  100cb8:	6a 03                	push   $0x3
  100cba:	e8 ab fa ff ff       	call   10076a <kernel_panic>
  100cbf:	83 c4 10             	add    $0x10,%esp
  100cc2:	c9                   	leave  
  100cc3:	c3                   	ret    

00100cc4 <pmm_freeBlock>:
  100cc4:	55                   	push   %ebp
  100cc5:	89 e5                	mov    %esp,%ebp
  100cc7:	83 ec 10             	sub    $0x10,%esp
  100cca:	8b 45 08             	mov    0x8(%ebp),%eax
  100ccd:	25 ff 0f 00 00       	and    $0xfff,%eax
  100cd2:	85 c0                	test   %eax,%eax
  100cd4:	75 30                	jne    100d06 <pmm_freeBlock+0x42>
  100cd6:	83 7d 08 00          	cmpl   $0x0,0x8(%ebp)
  100cda:	74 08                	je     100ce4 <pmm_freeBlock+0x20>
  100cdc:	8b 45 08             	mov    0x8(%ebp),%eax
  100cdf:	c1 e8 0c             	shr    $0xc,%eax
  100ce2:	eb 05                	jmp    100ce9 <pmm_freeBlock+0x25>
  100ce4:	b8 00 00 00 00       	mov    $0x0,%eax
  100ce9:	89 45 fc             	mov    %eax,-0x4(%ebp)
  100cec:	ff 75 fc             	push   -0x4(%ebp)
  100cef:	e8 b3 fc ff ff       	call   1009a7 <pmm_clearFrame>
  100cf4:	83 c4 04             	add    $0x4,%esp
  100cf7:	a1 54 92 10 00       	mov    0x109254,%eax
  100cfc:	83 e8 01             	sub    $0x1,%eax
  100cff:	a3 54 92 10 00       	mov    %eax,0x109254
  100d04:	eb 01                	jmp    100d07 <pmm_freeBlock+0x43>
  100d06:	90                   	nop
  100d07:	c9                   	leave  
  100d08:	c3                   	ret    

00100d09 <pmm_allocateBlocks>:
  100d09:	55                   	push   %ebp
  100d0a:	89 e5                	mov    %esp,%ebp
  100d0c:	83 ec 18             	sub    $0x18,%esp
  100d0f:	83 7d 08 00          	cmpl   $0x0,0x8(%ebp)
  100d13:	75 12                	jne    100d27 <pmm_allocateBlocks+0x1e>
  100d15:	83 ec 08             	sub    $0x8,%esp
  100d18:	68 8e 64 10 00       	push   $0x10648e
  100d1d:	6a 02                	push   $0x2
  100d1f:	e8 46 fa ff ff       	call   10076a <kernel_panic>
  100d24:	83 c4 10             	add    $0x10,%esp
  100d27:	8b 15 58 92 10 00    	mov    0x109258,%edx
  100d2d:	a1 54 92 10 00       	mov    0x109254,%eax
  100d32:	29 c2                	sub    %eax,%edx
  100d34:	39 55 08             	cmp    %edx,0x8(%ebp)
  100d37:	72 12                	jb     100d4b <pmm_allocateBlocks+0x42>
  100d39:	83 ec 08             	sub    $0x8,%esp
  100d3c:	68 8e 64 10 00       	push   $0x10648e
  100d41:	6a 03                	push   $0x3
  100d43:	e8 22 fa ff ff       	call   10076a <kernel_panic>
  100d48:	83 c4 10             	add    $0x10,%esp
  100d4b:	83 ec 0c             	sub    $0xc,%esp
  100d4e:	ff 75 08             	push   0x8(%ebp)
  100d51:	e8 5a fd ff ff       	call   100ab0 <pmm_findFirstFrames>
  100d56:	83 c4 10             	add    $0x10,%esp
  100d59:	89 45 f0             	mov    %eax,-0x10(%ebp)
  100d5c:	83 7d f0 f4          	cmpl   $0xfffffff4,-0x10(%ebp)
  100d60:	75 12                	jne    100d74 <pmm_allocateBlocks+0x6b>
  100d62:	83 ec 08             	sub    $0x8,%esp
  100d65:	68 8e 64 10 00       	push   $0x10648e
  100d6a:	6a 03                	push   $0x3
  100d6c:	e8 f9 f9 ff ff       	call   10076a <kernel_panic>
  100d71:	83 c4 10             	add    $0x10,%esp
  100d74:	c7 45 f4 00 00 00 00 	movl   $0x0,-0xc(%ebp)
  100d7b:	eb 18                	jmp    100d95 <pmm_allocateBlocks+0x8c>
  100d7d:	8b 55 f0             	mov    -0x10(%ebp),%edx
  100d80:	8b 45 f4             	mov    -0xc(%ebp),%eax
  100d83:	01 d0                	add    %edx,%eax
  100d85:	83 ec 0c             	sub    $0xc,%esp
  100d88:	50                   	push   %eax
  100d89:	e8 cd fb ff ff       	call   10095b <pmm_setFrame>
  100d8e:	83 c4 10             	add    $0x10,%esp
  100d91:	83 45 f4 01          	addl   $0x1,-0xc(%ebp)
  100d95:	8b 45 f4             	mov    -0xc(%ebp),%eax
  100d98:	3b 45 08             	cmp    0x8(%ebp),%eax
  100d9b:	72 e0                	jb     100d7d <pmm_allocateBlocks+0x74>
  100d9d:	8b 15 54 92 10 00    	mov    0x109254,%edx
  100da3:	8b 45 08             	mov    0x8(%ebp),%eax
  100da6:	01 d0                	add    %edx,%eax
  100da8:	a3 54 92 10 00       	mov    %eax,0x109254
  100dad:	8b 45 f0             	mov    -0x10(%ebp),%eax
  100db0:	c1 e0 0c             	shl    $0xc,%eax
  100db3:	c9                   	leave  
  100db4:	c3                   	ret    

00100db5 <pmm_freeBlocks>:
  100db5:	55                   	push   %ebp
  100db6:	89 e5                	mov    %esp,%ebp
  100db8:	83 ec 10             	sub    $0x10,%esp
  100dbb:	83 7d 0c 00          	cmpl   $0x0,0xc(%ebp)
  100dbf:	74 4b                	je     100e0c <pmm_freeBlocks+0x57>
  100dc1:	83 7d 08 00          	cmpl   $0x0,0x8(%ebp)
  100dc5:	74 08                	je     100dcf <pmm_freeBlocks+0x1a>
  100dc7:	8b 45 08             	mov    0x8(%ebp),%eax
  100dca:	c1 e8 0c             	shr    $0xc,%eax
  100dcd:	eb 05                	jmp    100dd4 <pmm_freeBlocks+0x1f>
  100dcf:	b8 00 00 00 00       	mov    $0x0,%eax
  100dd4:	89 45 f8             	mov    %eax,-0x8(%ebp)
  100dd7:	c7 45 fc 00 00 00 00 	movl   $0x0,-0x4(%ebp)
  100dde:	eb 15                	jmp    100df5 <pmm_freeBlocks+0x40>
  100de0:	8b 55 f8             	mov    -0x8(%ebp),%edx
  100de3:	8b 45 fc             	mov    -0x4(%ebp),%eax
  100de6:	01 d0                	add    %edx,%eax
  100de8:	50                   	push   %eax
  100de9:	e8 b9 fb ff ff       	call   1009a7 <pmm_clearFrame>
  100dee:	83 c4 04             	add    $0x4,%esp
  100df1:	83 45 fc 01          	addl   $0x1,-0x4(%ebp)
  100df5:	8b 45 fc             	mov    -0x4(%ebp),%eax
  100df8:	3b 45 0c             	cmp    0xc(%ebp),%eax
  100dfb:	72 e3                	jb     100de0 <pmm_freeBlocks+0x2b>
  100dfd:	a1 54 92 10 00       	mov    0x109254,%eax
  100e02:	2b 45 0c             	sub    0xc(%ebp),%eax
  100e05:	a3 54 92 10 00       	mov    %eax,0x109254
  100e0a:	eb 01                	jmp    100e0d <pmm_freeBlocks+0x58>
  100e0c:	90                   	nop
  100e0d:	c9                   	leave  
  100e0e:	c3                   	ret    

00100e0f <pmm_getPhysicalMemorySize>:
  100e0f:	55                   	push   %ebp
  100e10:	89 e5                	mov    %esp,%ebp
  100e12:	a1 50 92 10 00       	mov    0x109250,%eax
  100e17:	5d                   	pop    %ebp
  100e18:	c3                   	ret    

00100e19 <pmm_getMaximumBlocks>:
  100e19:	55                   	push   %ebp
  100e1a:	89 e5                	mov    %esp,%ebp
  100e1c:	a1 58 92 10 00       	mov    0x109258,%eax
  100e21:	5d                   	pop    %ebp
  100e22:	c3                   	ret    

00100e23 <pmm_getUsedBlocks>:
  100e23:	55                   	push   %ebp
  100e24:	89 e5                	mov    %esp,%ebp
  100e26:	a1 54 92 10 00       	mov    0x109254,%eax
  100e2b:	5d                   	pop    %ebp
  100e2c:	c3                   	ret    

00100e2d <pmm_getFreeBlocks>:
  100e2d:	55                   	push   %ebp
  100e2e:	89 e5                	mov    %esp,%ebp
  100e30:	8b 15 58 92 10 00    	mov    0x109258,%edx
  100e36:	a1 54 92 10 00       	mov    0x109254,%eax
  100e3b:	29 c2                	sub    %eax,%edx
  100e3d:	89 d0                	mov    %edx,%eax
  100e3f:	5d                   	pop    %ebp
  100e40:	c3                   	ret    

00100e41 <arch_parse_multiboot2>:
  100e41:	55                   	push   %ebp
  100e42:	89 e5                	mov    %esp,%ebp
  100e44:	b8 00 00 00 00       	mov    $0x0,%eax
  100e49:	5d                   	pop    %ebp
  100e4a:	c3                   	ret    

00100e4b <arch_parse_multiboot1>:
  100e4b:	55                   	push   %ebp
  100e4c:	89 e5                	mov    %esp,%ebp
  100e4e:	53                   	push   %ebx
  100e4f:	83 ec 24             	sub    $0x24,%esp
  100e52:	83 ec 0c             	sub    $0xc,%esp
  100e55:	6a 18                	push   $0x18
  100e57:	e8 02 14 00 00       	call   10225e <arch_allocate_structure>
  100e5c:	83 c4 10             	add    $0x10,%esp
  100e5f:	89 45 dc             	mov    %eax,-0x24(%ebp)
  100e62:	8b 45 08             	mov    0x8(%ebp),%eax
  100e65:	8b 40 10             	mov    0x10(%eax),%eax
  100e68:	83 ec 0c             	sub    $0xc,%esp
  100e6b:	50                   	push   %eax
  100e6c:	e8 f8 38 00 00       	call   104769 <strlen>
  100e71:	83 c4 10             	add    $0x10,%esp
  100e74:	85 c0                	test   %eax,%eax
  100e76:	74 4c                	je     100ec4 <arch_parse_multiboot1+0x79>
  100e78:	8b 45 08             	mov    0x8(%ebp),%eax
  100e7b:	8b 40 10             	mov    0x10(%eax),%eax
  100e7e:	83 ec 0c             	sub    $0xc,%esp
  100e81:	50                   	push   %eax
  100e82:	e8 e2 38 00 00       	call   104769 <strlen>
  100e87:	83 c4 10             	add    $0x10,%esp
  100e8a:	8b 55 08             	mov    0x8(%ebp),%edx
  100e8d:	8b 52 10             	mov    0x10(%edx),%edx
  100e90:	83 ec 08             	sub    $0x8,%esp
  100e93:	50                   	push   %eax
  100e94:	52                   	push   %edx
  100e95:	e8 fb 13 00 00       	call   102295 <arch_relocate_structure>
  100e9a:	83 c4 10             	add    $0x10,%esp
  100e9d:	89 c2                	mov    %eax,%edx
  100e9f:	8b 45 dc             	mov    -0x24(%ebp),%eax
  100ea2:	89 10                	mov    %edx,(%eax)
  100ea4:	8b 45 dc             	mov    -0x24(%ebp),%eax
  100ea7:	8b 18                	mov    (%eax),%ebx
  100ea9:	8b 45 dc             	mov    -0x24(%ebp),%eax
  100eac:	8b 00                	mov    (%eax),%eax
  100eae:	83 ec 0c             	sub    $0xc,%esp
  100eb1:	50                   	push   %eax
  100eb2:	e8 b2 38 00 00       	call   104769 <strlen>
  100eb7:	83 c4 10             	add    $0x10,%esp
  100eba:	83 e8 01             	sub    $0x1,%eax
  100ebd:	01 d8                	add    %ebx,%eax
  100ebf:	c6 00 00             	movb   $0x0,(%eax)
  100ec2:	eb 14                	jmp    100ed8 <arch_parse_multiboot1+0x8d>
  100ec4:	83 ec 0c             	sub    $0xc,%esp
  100ec7:	6a 01                	push   $0x1
  100ec9:	e8 90 13 00 00       	call   10225e <arch_allocate_structure>
  100ece:	83 c4 10             	add    $0x10,%esp
  100ed1:	89 c2                	mov    %eax,%edx
  100ed3:	8b 45 dc             	mov    -0x24(%ebp),%eax
  100ed6:	89 10                	mov    %edx,(%eax)
  100ed8:	8b 45 08             	mov    0x8(%ebp),%eax
  100edb:	8b 40 40             	mov    0x40(%eax),%eax
  100ede:	83 ec 0c             	sub    $0xc,%esp
  100ee1:	50                   	push   %eax
  100ee2:	e8 82 38 00 00       	call   104769 <strlen>
  100ee7:	83 c4 10             	add    $0x10,%esp
  100eea:	85 c0                	test   %eax,%eax
  100eec:	74 4f                	je     100f3d <arch_parse_multiboot1+0xf2>
  100eee:	8b 45 08             	mov    0x8(%ebp),%eax
  100ef1:	8b 40 40             	mov    0x40(%eax),%eax
  100ef4:	83 ec 0c             	sub    $0xc,%esp
  100ef7:	50                   	push   %eax
  100ef8:	e8 6c 38 00 00       	call   104769 <strlen>
  100efd:	83 c4 10             	add    $0x10,%esp
  100f00:	8b 55 08             	mov    0x8(%ebp),%edx
  100f03:	8b 52 40             	mov    0x40(%edx),%edx
  100f06:	83 ec 08             	sub    $0x8,%esp
  100f09:	50                   	push   %eax
  100f0a:	52                   	push   %edx
  100f0b:	e8 85 13 00 00       	call   102295 <arch_relocate_structure>
  100f10:	83 c4 10             	add    $0x10,%esp
  100f13:	89 c2                	mov    %eax,%edx
  100f15:	8b 45 dc             	mov    -0x24(%ebp),%eax
  100f18:	89 50 04             	mov    %edx,0x4(%eax)
  100f1b:	8b 45 dc             	mov    -0x24(%ebp),%eax
  100f1e:	8b 58 04             	mov    0x4(%eax),%ebx
  100f21:	8b 45 dc             	mov    -0x24(%ebp),%eax
  100f24:	8b 40 04             	mov    0x4(%eax),%eax
  100f27:	83 ec 0c             	sub    $0xc,%esp
  100f2a:	50                   	push   %eax
  100f2b:	e8 39 38 00 00       	call   104769 <strlen>
  100f30:	83 c4 10             	add    $0x10,%esp
  100f33:	83 e8 01             	sub    $0x1,%eax
  100f36:	01 d8                	add    %ebx,%eax
  100f38:	c6 00 00             	movb   $0x0,(%eax)
  100f3b:	eb 15                	jmp    100f52 <arch_parse_multiboot1+0x107>
  100f3d:	83 ec 0c             	sub    $0xc,%esp
  100f40:	6a 01                	push   $0x1
  100f42:	e8 17 13 00 00       	call   10225e <arch_allocate_structure>
  100f47:	83 c4 10             	add    $0x10,%esp
  100f4a:	89 c2                	mov    %eax,%edx
  100f4c:	8b 45 dc             	mov    -0x24(%ebp),%eax
  100f4f:	89 50 04             	mov    %edx,0x4(%eax)
  100f52:	83 ec 0c             	sub    $0xc,%esp
  100f55:	6a 18                	push   $0x18
  100f57:	e8 02 13 00 00       	call   10225e <arch_allocate_structure>
  100f5c:	83 c4 10             	add    $0x10,%esp
  100f5f:	89 c2                	mov    %eax,%edx
  100f61:	8b 45 dc             	mov    -0x24(%ebp),%eax
  100f64:	89 50 0c             	mov    %edx,0xc(%eax)
  100f67:	8b 45 dc             	mov    -0x24(%ebp),%eax
  100f6a:	8b 48 0c             	mov    0xc(%eax),%ecx
  100f6d:	8b 45 08             	mov    0x8(%ebp),%eax
  100f70:	8b 50 5c             	mov    0x5c(%eax),%edx
  100f73:	8b 40 58             	mov    0x58(%eax),%eax
  100f76:	89 01                	mov    %eax,(%ecx)
  100f78:	89 51 04             	mov    %edx,0x4(%ecx)
  100f7b:	8b 45 dc             	mov    -0x24(%ebp),%eax
  100f7e:	8b 40 0c             	mov    0xc(%eax),%eax
  100f81:	8b 55 08             	mov    0x8(%ebp),%edx
  100f84:	8b 52 64             	mov    0x64(%edx),%edx
  100f87:	89 50 0c             	mov    %edx,0xc(%eax)
  100f8a:	8b 45 dc             	mov    -0x24(%ebp),%eax
  100f8d:	8b 40 0c             	mov    0xc(%eax),%eax
  100f90:	8b 55 08             	mov    0x8(%ebp),%edx
  100f93:	8b 52 68             	mov    0x68(%edx),%edx
  100f96:	89 50 10             	mov    %edx,0x10(%eax)
  100f99:	8b 45 dc             	mov    -0x24(%ebp),%eax
  100f9c:	8b 40 0c             	mov    0xc(%eax),%eax
  100f9f:	8b 55 08             	mov    0x8(%ebp),%edx
  100fa2:	0f b6 52 6c          	movzbl 0x6c(%edx),%edx
  100fa6:	88 50 14             	mov    %dl,0x14(%eax)
  100fa9:	8b 45 dc             	mov    -0x24(%ebp),%eax
  100fac:	8b 40 0c             	mov    0xc(%eax),%eax
  100faf:	8b 55 08             	mov    0x8(%ebp),%edx
  100fb2:	8b 52 60             	mov    0x60(%edx),%edx
  100fb5:	89 50 08             	mov    %edx,0x8(%eax)
  100fb8:	8b 45 08             	mov    0x8(%ebp),%eax
  100fbb:	8b 40 14             	mov    0x14(%eax),%eax
  100fbe:	85 c0                	test   %eax,%eax
  100fc0:	0f 84 51 01 00 00    	je     101117 <arch_parse_multiboot1+0x2cc>
  100fc6:	8b 45 08             	mov    0x8(%ebp),%eax
  100fc9:	8b 40 18             	mov    0x18(%eax),%eax
  100fcc:	89 45 f4             	mov    %eax,-0xc(%ebp)
  100fcf:	83 ec 0c             	sub    $0xc,%esp
  100fd2:	6a 10                	push   $0x10
  100fd4:	e8 85 12 00 00       	call   10225e <arch_allocate_structure>
  100fd9:	83 c4 10             	add    $0x10,%esp
  100fdc:	89 c2                	mov    %eax,%edx
  100fde:	8b 45 dc             	mov    -0x24(%ebp),%eax
  100fe1:	89 50 08             	mov    %edx,0x8(%eax)
  100fe4:	8b 45 f4             	mov    -0xc(%ebp),%eax
  100fe7:	8b 40 08             	mov    0x8(%eax),%eax
  100fea:	83 ec 0c             	sub    $0xc,%esp
  100fed:	50                   	push   %eax
  100fee:	e8 76 37 00 00       	call   104769 <strlen>
  100ff3:	83 c4 10             	add    $0x10,%esp
  100ff6:	8b 55 f4             	mov    -0xc(%ebp),%edx
  100ff9:	8b 52 08             	mov    0x8(%edx),%edx
  100ffc:	83 ec 08             	sub    $0x8,%esp
  100fff:	50                   	push   %eax
  101000:	52                   	push   %edx
  101001:	e8 8f 12 00 00       	call   102295 <arch_relocate_structure>
  101006:	83 c4 10             	add    $0x10,%esp
  101009:	89 c2                	mov    %eax,%edx
  10100b:	8b 45 dc             	mov    -0x24(%ebp),%eax
  10100e:	8b 40 08             	mov    0x8(%eax),%eax
  101011:	89 50 08             	mov    %edx,0x8(%eax)
  101014:	8b 45 dc             	mov    -0x24(%ebp),%eax
  101017:	8b 40 08             	mov    0x8(%eax),%eax
  10101a:	8b 55 f4             	mov    -0xc(%ebp),%edx
  10101d:	8b 12                	mov    (%edx),%edx
  10101f:	89 10                	mov    %edx,(%eax)
  101021:	8b 45 dc             	mov    -0x24(%ebp),%eax
  101024:	8b 40 08             	mov    0x8(%eax),%eax
  101027:	8b 55 f4             	mov    -0xc(%ebp),%edx
  10102a:	8b 52 04             	mov    0x4(%edx),%edx
  10102d:	89 50 04             	mov    %edx,0x4(%eax)
  101030:	8b 45 08             	mov    0x8(%ebp),%eax
  101033:	8b 40 14             	mov    0x14(%eax),%eax
  101036:	83 f8 01             	cmp    $0x1,%eax
  101039:	0f 84 db 00 00 00    	je     10111a <arch_parse_multiboot1+0x2cf>
  10103f:	8b 45 dc             	mov    -0x24(%ebp),%eax
  101042:	8b 40 08             	mov    0x8(%eax),%eax
  101045:	89 45 f0             	mov    %eax,-0x10(%ebp)
  101048:	c7 45 ec 01 00 00 00 	movl   $0x1,-0x14(%ebp)
  10104f:	e9 b2 00 00 00       	jmp    101106 <arch_parse_multiboot1+0x2bb>
  101054:	83 45 f4 10          	addl   $0x10,-0xc(%ebp)
  101058:	83 ec 0c             	sub    $0xc,%esp
  10105b:	6a 10                	push   $0x10
  10105d:	e8 fc 11 00 00       	call   10225e <arch_allocate_structure>
  101062:	83 c4 10             	add    $0x10,%esp
  101065:	89 45 d8             	mov    %eax,-0x28(%ebp)
  101068:	8b 45 f4             	mov    -0xc(%ebp),%eax
  10106b:	8b 40 08             	mov    0x8(%eax),%eax
  10106e:	83 ec 0c             	sub    $0xc,%esp
  101071:	50                   	push   %eax
  101072:	e8 f2 36 00 00       	call   104769 <strlen>
  101077:	83 c4 10             	add    $0x10,%esp
  10107a:	8b 55 f4             	mov    -0xc(%ebp),%edx
  10107d:	8b 52 08             	mov    0x8(%edx),%edx
  101080:	83 ec 08             	sub    $0x8,%esp
  101083:	50                   	push   %eax
  101084:	52                   	push   %edx
  101085:	e8 0b 12 00 00       	call   102295 <arch_relocate_structure>
  10108a:	83 c4 10             	add    $0x10,%esp
  10108d:	89 c2                	mov    %eax,%edx
  10108f:	8b 45 d8             	mov    -0x28(%ebp),%eax
  101092:	89 50 08             	mov    %edx,0x8(%eax)
  101095:	8b 45 f4             	mov    -0xc(%ebp),%eax
  101098:	8b 50 04             	mov    0x4(%eax),%edx
  10109b:	8b 45 f4             	mov    -0xc(%ebp),%eax
  10109e:	8b 00                	mov    (%eax),%eax
  1010a0:	29 c2                	sub    %eax,%edx
  1010a2:	8b 45 f4             	mov    -0xc(%ebp),%eax
  1010a5:	8b 00                	mov    (%eax),%eax
  1010a7:	83 ec 08             	sub    $0x8,%esp
  1010aa:	52                   	push   %edx
  1010ab:	50                   	push   %eax
  1010ac:	e8 e4 11 00 00       	call   102295 <arch_relocate_structure>
  1010b1:	83 c4 10             	add    $0x10,%esp
  1010b4:	8b 55 d8             	mov    -0x28(%ebp),%edx
  1010b7:	89 02                	mov    %eax,(%edx)
  1010b9:	8b 45 d8             	mov    -0x28(%ebp),%eax
  1010bc:	8b 10                	mov    (%eax),%edx
  1010be:	8b 45 f4             	mov    -0xc(%ebp),%eax
  1010c1:	8b 48 04             	mov    0x4(%eax),%ecx
  1010c4:	8b 45 f4             	mov    -0xc(%ebp),%eax
  1010c7:	8b 00                	mov    (%eax),%eax
  1010c9:	29 c1                	sub    %eax,%ecx
  1010cb:	01 ca                	add    %ecx,%edx
  1010cd:	8b 45 d8             	mov    -0x28(%ebp),%eax
  1010d0:	89 50 04             	mov    %edx,0x4(%eax)
  1010d3:	8b 45 d8             	mov    -0x28(%ebp),%eax
  1010d6:	8b 58 08             	mov    0x8(%eax),%ebx
  1010d9:	8b 45 d8             	mov    -0x28(%ebp),%eax
  1010dc:	8b 40 08             	mov    0x8(%eax),%eax
  1010df:	83 ec 0c             	sub    $0xc,%esp
  1010e2:	50                   	push   %eax
  1010e3:	e8 81 36 00 00       	call   104769 <strlen>
  1010e8:	83 c4 10             	add    $0x10,%esp
  1010eb:	83 e8 01             	sub    $0x1,%eax
  1010ee:	01 d8                	add    %ebx,%eax
  1010f0:	c6 00 00             	movb   $0x0,(%eax)
  1010f3:	8b 45 f0             	mov    -0x10(%ebp),%eax
  1010f6:	8b 55 d8             	mov    -0x28(%ebp),%edx
  1010f9:	89 50 0c             	mov    %edx,0xc(%eax)
  1010fc:	8b 45 d8             	mov    -0x28(%ebp),%eax
  1010ff:	89 45 f0             	mov    %eax,-0x10(%ebp)
  101102:	83 45 ec 01          	addl   $0x1,-0x14(%ebp)
  101106:	8b 45 08             	mov    0x8(%ebp),%eax
  101109:	8b 40 14             	mov    0x14(%eax),%eax
  10110c:	39 45 ec             	cmp    %eax,-0x14(%ebp)
  10110f:	0f 82 3f ff ff ff    	jb     101054 <arch_parse_multiboot1+0x209>
  101115:	eb 04                	jmp    10111b <arch_parse_multiboot1+0x2d0>
  101117:	90                   	nop
  101118:	eb 01                	jmp    10111b <arch_parse_multiboot1+0x2d0>
  10111a:	90                   	nop
  10111b:	8b 45 08             	mov    0x8(%ebp),%eax
  10111e:	8b 40 2c             	mov    0x2c(%eax),%eax
  101121:	85 c0                	test   %eax,%eax
  101123:	75 17                	jne    10113c <arch_parse_multiboot1+0x2f1>
  101125:	83 ec 04             	sub    $0x4,%esp
  101128:	68 98 64 10 00       	push   $0x106498
  10112d:	68 06 65 10 00       	push   $0x106506
  101132:	6a 02                	push   $0x2
  101134:	e8 28 f5 ff ff       	call   100661 <kernel_panic_extended>
  101139:	83 c4 10             	add    $0x10,%esp
  10113c:	8b 45 08             	mov    0x8(%ebp),%eax
  10113f:	8b 50 08             	mov    0x8(%eax),%edx
  101142:	8b 45 08             	mov    0x8(%ebp),%eax
  101145:	8b 40 04             	mov    0x4(%eax),%eax
  101148:	01 c2                	add    %eax,%edx
  10114a:	8b 45 dc             	mov    -0x24(%ebp),%eax
  10114d:	89 50 14             	mov    %edx,0x14(%eax)
  101150:	83 ec 0c             	sub    $0xc,%esp
  101153:	6a 18                	push   $0x18
  101155:	e8 04 11 00 00       	call   10225e <arch_allocate_structure>
  10115a:	83 c4 10             	add    $0x10,%esp
  10115d:	89 c2                	mov    %eax,%edx
  10115f:	8b 45 dc             	mov    -0x24(%ebp),%eax
  101162:	89 50 10             	mov    %edx,0x10(%eax)
  101165:	8b 45 dc             	mov    -0x24(%ebp),%eax
  101168:	8b 40 10             	mov    0x10(%eax),%eax
  10116b:	89 45 e4             	mov    %eax,-0x1c(%ebp)
  10116e:	8b 45 dc             	mov    -0x24(%ebp),%eax
  101171:	8b 40 10             	mov    0x10(%eax),%eax
  101174:	89 45 e0             	mov    %eax,-0x20(%ebp)
  101177:	8b 45 08             	mov    0x8(%ebp),%eax
  10117a:	8b 40 30             	mov    0x30(%eax),%eax
  10117d:	89 45 e8             	mov    %eax,-0x18(%ebp)
  101180:	e9 c0 00 00 00       	jmp    101245 <arch_parse_multiboot1+0x3fa>
  101185:	8b 45 e8             	mov    -0x18(%ebp),%eax
  101188:	8b 50 08             	mov    0x8(%eax),%edx
  10118b:	8b 40 04             	mov    0x4(%eax),%eax
  10118e:	8b 4d e0             	mov    -0x20(%ebp),%ecx
  101191:	89 01                	mov    %eax,(%ecx)
  101193:	89 51 04             	mov    %edx,0x4(%ecx)
  101196:	8b 45 e8             	mov    -0x18(%ebp),%eax
  101199:	8b 50 10             	mov    0x10(%eax),%edx
  10119c:	8b 40 0c             	mov    0xc(%eax),%eax
  10119f:	8b 4d e0             	mov    -0x20(%ebp),%ecx
  1011a2:	89 41 08             	mov    %eax,0x8(%ecx)
  1011a5:	89 51 0c             	mov    %edx,0xc(%ecx)
  1011a8:	8b 45 e8             	mov    -0x18(%ebp),%eax
  1011ab:	8b 40 14             	mov    0x14(%eax),%eax
  1011ae:	83 f8 05             	cmp    $0x5,%eax
  1011b1:	74 3f                	je     1011f2 <arch_parse_multiboot1+0x3a7>
  1011b3:	83 f8 05             	cmp    $0x5,%eax
  1011b6:	77 46                	ja     1011fe <arch_parse_multiboot1+0x3b3>
  1011b8:	83 f8 04             	cmp    $0x4,%eax
  1011bb:	74 29                	je     1011e6 <arch_parse_multiboot1+0x39b>
  1011bd:	83 f8 04             	cmp    $0x4,%eax
  1011c0:	77 3c                	ja     1011fe <arch_parse_multiboot1+0x3b3>
  1011c2:	83 f8 01             	cmp    $0x1,%eax
  1011c5:	74 07                	je     1011ce <arch_parse_multiboot1+0x383>
  1011c7:	83 f8 03             	cmp    $0x3,%eax
  1011ca:	74 0e                	je     1011da <arch_parse_multiboot1+0x38f>
  1011cc:	eb 30                	jmp    1011fe <arch_parse_multiboot1+0x3b3>
  1011ce:	8b 45 e0             	mov    -0x20(%ebp),%eax
  1011d1:	c7 40 10 00 00 00 00 	movl   $0x0,0x10(%eax)
  1011d8:	eb 2f                	jmp    101209 <arch_parse_multiboot1+0x3be>
  1011da:	8b 45 e0             	mov    -0x20(%ebp),%eax
  1011dd:	c7 40 10 02 00 00 00 	movl   $0x2,0x10(%eax)
  1011e4:	eb 23                	jmp    101209 <arch_parse_multiboot1+0x3be>
  1011e6:	8b 45 e0             	mov    -0x20(%ebp),%eax
  1011e9:	c7 40 10 03 00 00 00 	movl   $0x3,0x10(%eax)
  1011f0:	eb 17                	jmp    101209 <arch_parse_multiboot1+0x3be>
  1011f2:	8b 45 e0             	mov    -0x20(%ebp),%eax
  1011f5:	c7 40 10 04 00 00 00 	movl   $0x4,0x10(%eax)
  1011fc:	eb 0b                	jmp    101209 <arch_parse_multiboot1+0x3be>
  1011fe:	8b 45 e0             	mov    -0x20(%ebp),%eax
  101201:	c7 40 10 01 00 00 00 	movl   $0x1,0x10(%eax)
  101208:	90                   	nop
  101209:	8b 45 08             	mov    0x8(%ebp),%eax
  10120c:	8b 50 30             	mov    0x30(%eax),%edx
  10120f:	8b 45 e8             	mov    -0x18(%ebp),%eax
  101212:	39 c2                	cmp    %eax,%edx
  101214:	74 0f                	je     101225 <arch_parse_multiboot1+0x3da>
  101216:	8b 45 e4             	mov    -0x1c(%ebp),%eax
  101219:	8b 55 e0             	mov    -0x20(%ebp),%edx
  10121c:	89 50 14             	mov    %edx,0x14(%eax)
  10121f:	8b 45 e0             	mov    -0x20(%ebp),%eax
  101222:	89 45 e4             	mov    %eax,-0x1c(%ebp)
  101225:	83 ec 0c             	sub    $0xc,%esp
  101228:	6a 18                	push   $0x18
  10122a:	e8 2f 10 00 00       	call   10225e <arch_allocate_structure>
  10122f:	83 c4 10             	add    $0x10,%esp
  101232:	89 45 e0             	mov    %eax,-0x20(%ebp)
  101235:	8b 45 e8             	mov    -0x18(%ebp),%eax
  101238:	8b 10                	mov    (%eax),%edx
  10123a:	8b 45 e8             	mov    -0x18(%ebp),%eax
  10123d:	01 d0                	add    %edx,%eax
  10123f:	83 c0 04             	add    $0x4,%eax
  101242:	89 45 e8             	mov    %eax,-0x18(%ebp)
  101245:	8b 45 08             	mov    0x8(%ebp),%eax
  101248:	8b 50 30             	mov    0x30(%eax),%edx
  10124b:	8b 45 08             	mov    0x8(%ebp),%eax
  10124e:	8b 40 2c             	mov    0x2c(%eax),%eax
  101251:	01 d0                	add    %edx,%eax
  101253:	8b 55 e8             	mov    -0x18(%ebp),%edx
  101256:	39 c2                	cmp    %eax,%edx
  101258:	0f 82 27 ff ff ff    	jb     101185 <arch_parse_multiboot1+0x33a>
  10125e:	8b 45 e4             	mov    -0x1c(%ebp),%eax
  101261:	c7 40 14 00 00 00 00 	movl   $0x0,0x14(%eax)
  101268:	8b 45 dc             	mov    -0x24(%ebp),%eax
  10126b:	8b 5d fc             	mov    -0x4(%ebp),%ebx
  10126e:	c9                   	leave  
  10126f:	c3                   	ret    

00101270 <arch_mark_memory>:
  101270:	55                   	push   %ebp
  101271:	89 e5                	mov    %esp,%ebp
  101273:	57                   	push   %edi
  101274:	56                   	push   %esi
  101275:	53                   	push   %ebx
  101276:	83 ec 1c             	sub    $0x1c,%esp
  101279:	8b 45 08             	mov    0x8(%ebp),%eax
  10127c:	8b 40 10             	mov    0x10(%eax),%eax
  10127f:	89 45 e4             	mov    %eax,-0x1c(%ebp)
  101282:	e9 cf 00 00 00       	jmp    101356 <arch_mark_memory+0xe6>
  101287:	8b 45 e4             	mov    -0x1c(%ebp),%eax
  10128a:	8b 50 04             	mov    0x4(%eax),%edx
  10128d:	8b 00                	mov    (%eax),%eax
  10128f:	83 fa 00             	cmp    $0x0,%edx
  101292:	76 3c                	jbe    1012d0 <arch_mark_memory+0x60>
  101294:	8b 45 e4             	mov    -0x1c(%ebp),%eax
  101297:	8b 48 08             	mov    0x8(%eax),%ecx
  10129a:	8b 58 0c             	mov    0xc(%eax),%ebx
  10129d:	8b 45 e4             	mov    -0x1c(%ebp),%eax
  1012a0:	8b 50 04             	mov    0x4(%eax),%edx
  1012a3:	8b 00                	mov    (%eax),%eax
  1012a5:	53                   	push   %ebx
  1012a6:	51                   	push   %ecx
  1012a7:	52                   	push   %edx
  1012a8:	50                   	push   %eax
  1012a9:	68 0c 65 10 00       	push   $0x10650c
  1012ae:	6a 02                	push   $0x2
  1012b0:	68 b2 00 00 00       	push   $0xb2
  1012b5:	68 63 65 10 00       	push   $0x106563
  1012ba:	e8 e3 f1 ff ff       	call   1004a2 <dprintf_internal>
  1012bf:	83 c4 20             	add    $0x20,%esp
  1012c2:	8b 45 e4             	mov    -0x1c(%ebp),%eax
  1012c5:	8b 40 14             	mov    0x14(%eax),%eax
  1012c8:	89 45 e4             	mov    %eax,-0x1c(%ebp)
  1012cb:	e9 86 00 00 00       	jmp    101356 <arch_mark_memory+0xe6>
  1012d0:	8b 45 e4             	mov    -0x1c(%ebp),%eax
  1012d3:	8b 40 10             	mov    0x10(%eax),%eax
  1012d6:	85 c0                	test   %eax,%eax
  1012d8:	75 73                	jne    10134d <arch_mark_memory+0xdd>
  1012da:	8b 45 e4             	mov    -0x1c(%ebp),%eax
  1012dd:	8b 50 0c             	mov    0xc(%eax),%edx
  1012e0:	8b 40 08             	mov    0x8(%eax),%eax
  1012e3:	0f ac d0 0a          	shrd   $0xa,%edx,%eax
  1012e7:	c1 ea 0a             	shr    $0xa,%edx
  1012ea:	89 c1                	mov    %eax,%ecx
  1012ec:	89 d3                	mov    %edx,%ebx
  1012ee:	8b 45 e4             	mov    -0x1c(%ebp),%eax
  1012f1:	8b 30                	mov    (%eax),%esi
  1012f3:	8b 78 04             	mov    0x4(%eax),%edi
  1012f6:	8b 45 e4             	mov    -0x1c(%ebp),%eax
  1012f9:	8b 50 0c             	mov    0xc(%eax),%edx
  1012fc:	8b 40 08             	mov    0x8(%eax),%eax
  1012ff:	01 c6                	add    %eax,%esi
  101301:	11 d7                	adc    %edx,%edi
  101303:	8b 45 e4             	mov    -0x1c(%ebp),%eax
  101306:	8b 50 04             	mov    0x4(%eax),%edx
  101309:	8b 00                	mov    (%eax),%eax
  10130b:	83 ec 08             	sub    $0x8,%esp
  10130e:	53                   	push   %ebx
  10130f:	51                   	push   %ecx
  101310:	57                   	push   %edi
  101311:	56                   	push   %esi
  101312:	52                   	push   %edx
  101313:	50                   	push   %eax
  101314:	68 7c 65 10 00       	push   $0x10657c
  101319:	6a 04                	push   $0x4
  10131b:	68 b8 00 00 00       	push   $0xb8
  101320:	68 63 65 10 00       	push   $0x106563
  101325:	e8 78 f1 ff ff       	call   1004a2 <dprintf_internal>
  10132a:	83 c4 30             	add    $0x30,%esp
  10132d:	8b 45 e4             	mov    -0x1c(%ebp),%eax
  101330:	8b 50 0c             	mov    0xc(%eax),%edx
  101333:	8b 40 08             	mov    0x8(%eax),%eax
  101336:	89 c1                	mov    %eax,%ecx
  101338:	8b 45 e4             	mov    -0x1c(%ebp),%eax
  10133b:	8b 50 04             	mov    0x4(%eax),%edx
  10133e:	8b 00                	mov    (%eax),%eax
  101340:	83 ec 08             	sub    $0x8,%esp
  101343:	51                   	push   %ecx
  101344:	50                   	push   %eax
  101345:	e8 69 f8 ff ff       	call   100bb3 <pmm_initializeRegion>
  10134a:	83 c4 10             	add    $0x10,%esp
  10134d:	8b 45 e4             	mov    -0x1c(%ebp),%eax
  101350:	8b 40 14             	mov    0x14(%eax),%eax
  101353:	89 45 e4             	mov    %eax,-0x1c(%ebp)
  101356:	83 7d e4 00          	cmpl   $0x0,-0x1c(%ebp)
  10135a:	0f 85 27 ff ff ff    	jne    101287 <arch_mark_memory+0x17>
  101360:	c7 45 e0 b0 00 10 00 	movl   $0x1000b0,-0x20(%ebp)
  101367:	8b 45 0c             	mov    0xc(%ebp),%eax
  10136a:	2b 45 e0             	sub    -0x20(%ebp),%eax
  10136d:	c1 e8 0a             	shr    $0xa,%eax
  101370:	83 ec 04             	sub    $0x4,%esp
  101373:	50                   	push   %eax
  101374:	ff 75 0c             	push   0xc(%ebp)
  101377:	ff 75 e0             	push   -0x20(%ebp)
  10137a:	68 c4 65 10 00       	push   $0x1065c4
  10137f:	6a 04                	push   $0x4
  101381:	68 c2 00 00 00       	push   $0xc2
  101386:	68 63 65 10 00       	push   $0x106563
  10138b:	e8 12 f1 ff ff       	call   1004a2 <dprintf_internal>
  101390:	83 c4 20             	add    $0x20,%esp
  101393:	8b 45 0c             	mov    0xc(%ebp),%eax
  101396:	2b 45 e0             	sub    -0x20(%ebp),%eax
  101399:	83 ec 08             	sub    $0x8,%esp
  10139c:	50                   	push   %eax
  10139d:	ff 75 e0             	push   -0x20(%ebp)
  1013a0:	e8 69 f8 ff ff       	call   100c0e <pmm_deinitializeRegion>
  1013a5:	83 c4 10             	add    $0x10,%esp
  1013a8:	e8 6c fa ff ff       	call   100e19 <pmm_getMaximumBlocks>
  1013ad:	89 c3                	mov    %eax,%ebx
  1013af:	e8 79 fa ff ff       	call   100e2d <pmm_getFreeBlocks>
  1013b4:	83 ec 08             	sub    $0x8,%esp
  1013b7:	53                   	push   %ebx
  1013b8:	50                   	push   %eax
  1013b9:	68 08 66 10 00       	push   $0x106608
  1013be:	6a 04                	push   $0x4
  1013c0:	68 c5 00 00 00       	push   $0xc5
  1013c5:	68 63 65 10 00       	push   $0x106563
  1013ca:	e8 d3 f0 ff ff       	call   1004a2 <dprintf_internal>
  1013cf:	83 c4 20             	add    $0x20,%esp
  1013d2:	90                   	nop
  1013d3:	8d 65 f4             	lea    -0xc(%ebp),%esp
  1013d6:	5b                   	pop    %ebx
  1013d7:	5e                   	pop    %esi
  1013d8:	5f                   	pop    %edi
  1013d9:	5d                   	pop    %ebp
  1013da:	c3                   	ret    

001013db <hal_endInterrupt>:
  1013db:	55                   	push   %ebp
  1013dc:	89 e5                	mov    %esp,%ebp
  1013de:	83 ec 08             	sub    $0x8,%esp
  1013e1:	83 7d 08 08          	cmpl   $0x8,0x8(%ebp)
  1013e5:	76 12                	jbe    1013f9 <hal_endInterrupt+0x1e>
  1013e7:	83 ec 08             	sub    $0x8,%esp
  1013ea:	6a 20                	push   $0x20
  1013ec:	68 a0 00 00 00       	push   $0xa0
  1013f1:	e8 0a 0d 00 00       	call   102100 <outportb>
  1013f6:	83 c4 10             	add    $0x10,%esp
  1013f9:	83 ec 08             	sub    $0x8,%esp
  1013fc:	6a 20                	push   $0x20
  1013fe:	6a 20                	push   $0x20
  101400:	e8 fb 0c 00 00       	call   102100 <outportb>
  101405:	83 c4 10             	add    $0x10,%esp
  101408:	90                   	nop
  101409:	c9                   	leave  
  10140a:	c3                   	ret    

0010140b <hal_exceptionHandler>:
  10140b:	55                   	push   %ebp
  10140c:	89 e5                	mov    %esp,%ebp
  10140e:	53                   	push   %ebx
  10140f:	83 ec 04             	sub    $0x4,%esp
  101412:	68 48 66 10 00       	push   $0x106648
  101417:	6a 00                	push   $0x0
  101419:	6a 32                	push   $0x32
  10141b:	68 4b 66 10 00       	push   $0x10664b
  101420:	e8 7d f0 ff ff       	call   1004a2 <dprintf_internal>
  101425:	83 c4 10             	add    $0x10,%esp
  101428:	83 ec 0c             	sub    $0xc,%esp
  10142b:	ff 75 08             	push   0x8(%ebp)
  10142e:	68 64 66 10 00       	push   $0x106664
  101433:	6a 03                	push   $0x3
  101435:	6a 33                	push   $0x33
  101437:	68 4b 66 10 00       	push   $0x10664b
  10143c:	e8 61 f0 ff ff       	call   1004a2 <dprintf_internal>
  101441:	83 c4 20             	add    $0x20,%esp
  101444:	8b 45 0c             	mov    0xc(%ebp),%eax
  101447:	8b 58 18             	mov    0x18(%eax),%ebx
  10144a:	8b 45 0c             	mov    0xc(%ebp),%eax
  10144d:	8b 48 14             	mov    0x14(%eax),%ecx
  101450:	8b 45 0c             	mov    0xc(%ebp),%eax
  101453:	8b 50 10             	mov    0x10(%eax),%edx
  101456:	8b 45 0c             	mov    0xc(%ebp),%eax
  101459:	8b 40 0c             	mov    0xc(%eax),%eax
  10145c:	53                   	push   %ebx
  10145d:	51                   	push   %ecx
  10145e:	52                   	push   %edx
  10145f:	50                   	push   %eax
  101460:	68 8c 66 10 00       	push   $0x10668c
  101465:	6a 01                	push   $0x1
  101467:	6a 34                	push   $0x34
  101469:	68 4b 66 10 00       	push   $0x10664b
  10146e:	e8 2f f0 ff ff       	call   1004a2 <dprintf_internal>
  101473:	83 c4 20             	add    $0x20,%esp
  101476:	8b 45 0c             	mov    0xc(%ebp),%eax
  101479:	8b 58 28             	mov    0x28(%eax),%ebx
  10147c:	8b 45 0c             	mov    0xc(%ebp),%eax
  10147f:	8b 48 24             	mov    0x24(%eax),%ecx
  101482:	8b 45 0c             	mov    0xc(%ebp),%eax
  101485:	8b 50 20             	mov    0x20(%eax),%edx
  101488:	8b 45 0c             	mov    0xc(%ebp),%eax
  10148b:	8b 40 1c             	mov    0x1c(%eax),%eax
  10148e:	53                   	push   %ebx
  10148f:	51                   	push   %ecx
  101490:	52                   	push   %edx
  101491:	50                   	push   %eax
  101492:	68 b4 66 10 00       	push   $0x1066b4
  101497:	6a 01                	push   $0x1
  101499:	6a 35                	push   $0x35
  10149b:	68 4b 66 10 00       	push   $0x10664b
  1014a0:	e8 fd ef ff ff       	call   1004a2 <dprintf_internal>
  1014a5:	83 c4 20             	add    $0x20,%esp
  1014a8:	8b 45 0c             	mov    0xc(%ebp),%eax
  1014ab:	8b 50 30             	mov    0x30(%eax),%edx
  1014ae:	8b 45 0c             	mov    0xc(%ebp),%eax
  1014b1:	8b 40 2c             	mov    0x2c(%eax),%eax
  1014b4:	83 ec 08             	sub    $0x8,%esp
  1014b7:	52                   	push   %edx
  1014b8:	50                   	push   %eax
  1014b9:	68 d9 66 10 00       	push   $0x1066d9
  1014be:	6a 01                	push   $0x1
  1014c0:	6a 36                	push   $0x36
  1014c2:	68 4b 66 10 00       	push   $0x10664b
  1014c7:	e8 d6 ef ff ff       	call   1004a2 <dprintf_internal>
  1014cc:	83 c4 20             	add    $0x20,%esp
  1014cf:	8b 45 0c             	mov    0xc(%ebp),%eax
  1014d2:	8b 58 08             	mov    0x8(%eax),%ebx
  1014d5:	8b 45 0c             	mov    0xc(%ebp),%eax
  1014d8:	8b 48 04             	mov    0x4(%eax),%ecx
  1014db:	8b 45 0c             	mov    0xc(%ebp),%eax
  1014de:	8b 10                	mov    (%eax),%edx
  1014e0:	8b 45 0c             	mov    0xc(%ebp),%eax
  1014e3:	8b 40 34             	mov    0x34(%eax),%eax
  1014e6:	53                   	push   %ebx
  1014e7:	51                   	push   %ecx
  1014e8:	52                   	push   %edx
  1014e9:	50                   	push   %eax
  1014ea:	68 f0 66 10 00       	push   $0x1066f0
  1014ef:	6a 01                	push   $0x1
  1014f1:	6a 37                	push   $0x37
  1014f3:	68 4b 66 10 00       	push   $0x10664b
  1014f8:	e8 a5 ef ff ff       	call   1004a2 <dprintf_internal>
  1014fd:	83 c4 20             	add    $0x20,%esp
  101500:	8b 45 10             	mov    0x10(%ebp),%eax
  101503:	0f b7 40 16          	movzwl 0x16(%eax),%eax
  101507:	0f b7 d8             	movzwl %ax,%ebx
  10150a:	8b 45 10             	mov    0x10(%ebp),%eax
  10150d:	8b 48 18             	mov    0x18(%eax),%ecx
  101510:	8b 45 10             	mov    0x10(%ebp),%eax
  101513:	0f b7 40 10          	movzwl 0x10(%eax),%eax
  101517:	0f b7 d0             	movzwl %ax,%edx
  10151a:	8b 45 10             	mov    0x10(%ebp),%eax
  10151d:	8b 40 12             	mov    0x12(%eax),%eax
  101520:	53                   	push   %ebx
  101521:	51                   	push   %ecx
  101522:	52                   	push   %edx
  101523:	50                   	push   %eax
  101524:	68 14 67 10 00       	push   $0x106714
  101529:	6a 01                	push   $0x1
  10152b:	6a 38                	push   $0x38
  10152d:	68 4b 66 10 00       	push   $0x10664b
  101532:	e8 6b ef ff ff       	call   1004a2 <dprintf_internal>
  101537:	83 c4 20             	add    $0x20,%esp
  10153a:	90                   	nop
  10153b:	eb fd                	jmp    10153a <hal_exceptionHandler+0x12f>

0010153d <hal_interruptHandler>:
  10153d:	55                   	push   %ebp
  10153e:	89 e5                	mov    %esp,%ebp
  101540:	83 ec 18             	sub    $0x18,%esp
  101543:	8b 45 0c             	mov    0xc(%ebp),%eax
  101546:	8b 04 85 60 9a 10 00 	mov    0x109a60(,%eax,4),%eax
  10154d:	85 c0                	test   %eax,%eax
  10154f:	74 3d                	je     10158e <hal_interruptHandler+0x51>
  101551:	8b 45 0c             	mov    0xc(%ebp),%eax
  101554:	8b 04 85 60 9a 10 00 	mov    0x109a60(,%eax,4),%eax
  10155b:	89 45 f4             	mov    %eax,-0xc(%ebp)
  10155e:	83 ec 08             	sub    $0x8,%esp
  101561:	ff 75 14             	push   0x14(%ebp)
  101564:	ff 75 10             	push   0x10(%ebp)
  101567:	8b 45 f4             	mov    -0xc(%ebp),%eax
  10156a:	ff d0                	call   *%eax
  10156c:	83 c4 10             	add    $0x10,%esp
  10156f:	89 45 f0             	mov    %eax,-0x10(%ebp)
  101572:	83 7d f0 00          	cmpl   $0x0,-0x10(%ebp)
  101576:	74 16                	je     10158e <hal_interruptHandler+0x51>
  101578:	68 33 67 10 00       	push   $0x106733
  10157d:	6a 03                	push   $0x3
  10157f:	6a 48                	push   $0x48
  101581:	68 4b 66 10 00       	push   $0x10664b
  101586:	e8 17 ef ff ff       	call   1004a2 <dprintf_internal>
  10158b:	83 c4 10             	add    $0x10,%esp
  10158e:	83 ec 0c             	sub    $0xc,%esp
  101591:	ff 75 0c             	push   0xc(%ebp)
  101594:	e8 42 fe ff ff       	call   1013db <hal_endInterrupt>
  101599:	83 c4 10             	add    $0x10,%esp
  10159c:	90                   	nop
  10159d:	c9                   	leave  
  10159e:	c3                   	ret    

0010159f <hal_registerInterruptHandler>:
  10159f:	55                   	push   %ebp
  1015a0:	89 e5                	mov    %esp,%ebp
  1015a2:	8b 45 08             	mov    0x8(%ebp),%eax
  1015a5:	8b 04 85 60 9a 10 00 	mov    0x109a60(,%eax,4),%eax
  1015ac:	85 c0                	test   %eax,%eax
  1015ae:	74 07                	je     1015b7 <hal_registerInterruptHandler+0x18>
  1015b0:	b8 ea ff ff ff       	mov    $0xffffffea,%eax
  1015b5:	eb 12                	jmp    1015c9 <hal_registerInterruptHandler+0x2a>
  1015b7:	8b 45 08             	mov    0x8(%ebp),%eax
  1015ba:	8b 55 0c             	mov    0xc(%ebp),%edx
  1015bd:	89 14 85 60 9a 10 00 	mov    %edx,0x109a60(,%eax,4)
  1015c4:	b8 00 00 00 00       	mov    $0x0,%eax
  1015c9:	5d                   	pop    %ebp
  1015ca:	c3                   	ret    

001015cb <hal_unregisterInterruptHandler>:
  1015cb:	55                   	push   %ebp
  1015cc:	89 e5                	mov    %esp,%ebp
  1015ce:	8b 45 08             	mov    0x8(%ebp),%eax
  1015d1:	c7 04 85 60 9a 10 00 	movl   $0x0,0x109a60(,%eax,4)
  1015d8:	00 00 00 00 
  1015dc:	90                   	nop
  1015dd:	5d                   	pop    %ebp
  1015de:	c3                   	ret    

001015df <hal_registerInterruptVector>:
  1015df:	55                   	push   %ebp
  1015e0:	89 e5                	mov    %esp,%ebp
  1015e2:	83 ec 0c             	sub    $0xc,%esp
  1015e5:	8b 4d 08             	mov    0x8(%ebp),%ecx
  1015e8:	8b 55 0c             	mov    0xc(%ebp),%edx
  1015eb:	8b 45 10             	mov    0x10(%ebp),%eax
  1015ee:	88 4d fc             	mov    %cl,-0x4(%ebp)
  1015f1:	88 55 f8             	mov    %dl,-0x8(%ebp)
  1015f4:	66 89 45 f4          	mov    %ax,-0xc(%ebp)
  1015f8:	0f b6 45 fc          	movzbl -0x4(%ebp),%eax
  1015fc:	8b 55 14             	mov    0x14(%ebp),%edx
  1015ff:	66 89 14 c5 60 92 10 	mov    %dx,0x109260(,%eax,8)
  101606:	00 
  101607:	8b 45 14             	mov    0x14(%ebp),%eax
  10160a:	c1 e8 10             	shr    $0x10,%eax
  10160d:	89 c2                	mov    %eax,%edx
  10160f:	0f b6 45 fc          	movzbl -0x4(%ebp),%eax
  101613:	66 89 14 c5 66 92 10 	mov    %dx,0x109266(,%eax,8)
  10161a:	00 
  10161b:	0f b6 45 fc          	movzbl -0x4(%ebp),%eax
  10161f:	0f b7 55 f4          	movzwl -0xc(%ebp),%edx
  101623:	66 89 14 c5 62 92 10 	mov    %dx,0x109262(,%eax,8)
  10162a:	00 
  10162b:	0f b6 45 fc          	movzbl -0x4(%ebp),%eax
  10162f:	0f b6 55 f8          	movzbl -0x8(%ebp),%edx
  101633:	88 14 c5 65 92 10 00 	mov    %dl,0x109265(,%eax,8)
  10163a:	b8 00 00 00 00       	mov    $0x0,%eax
  10163f:	c9                   	leave  
  101640:	c3                   	ret    

00101641 <hal_initializePIC>:
  101641:	55                   	push   %ebp
  101642:	89 e5                	mov    %esp,%ebp
  101644:	83 ec 18             	sub    $0x18,%esp
  101647:	83 ec 0c             	sub    $0xc,%esp
  10164a:	6a 21                	push   $0x21
  10164c:	e8 07 0b 00 00       	call   102158 <inportb>
  101651:	83 c4 10             	add    $0x10,%esp
  101654:	88 45 f7             	mov    %al,-0x9(%ebp)
  101657:	83 ec 0c             	sub    $0xc,%esp
  10165a:	68 a1 00 00 00       	push   $0xa1
  10165f:	e8 f4 0a 00 00       	call   102158 <inportb>
  101664:	83 c4 10             	add    $0x10,%esp
  101667:	88 45 f6             	mov    %al,-0xa(%ebp)
  10166a:	83 ec 08             	sub    $0x8,%esp
  10166d:	6a 11                	push   $0x11
  10166f:	6a 20                	push   $0x20
  101671:	e8 8a 0a 00 00       	call   102100 <outportb>
  101676:	83 c4 10             	add    $0x10,%esp
  101679:	83 ec 08             	sub    $0x8,%esp
  10167c:	6a 11                	push   $0x11
  10167e:	68 a0 00 00 00       	push   $0xa0
  101683:	e8 78 0a 00 00       	call   102100 <outportb>
  101688:	83 c4 10             	add    $0x10,%esp
  10168b:	83 ec 08             	sub    $0x8,%esp
  10168e:	6a 20                	push   $0x20
  101690:	6a 21                	push   $0x21
  101692:	e8 69 0a 00 00       	call   102100 <outportb>
  101697:	83 c4 10             	add    $0x10,%esp
  10169a:	83 ec 08             	sub    $0x8,%esp
  10169d:	6a 28                	push   $0x28
  10169f:	68 a1 00 00 00       	push   $0xa1
  1016a4:	e8 57 0a 00 00       	call   102100 <outportb>
  1016a9:	83 c4 10             	add    $0x10,%esp
  1016ac:	83 ec 08             	sub    $0x8,%esp
  1016af:	6a 04                	push   $0x4
  1016b1:	6a 21                	push   $0x21
  1016b3:	e8 48 0a 00 00       	call   102100 <outportb>
  1016b8:	83 c4 10             	add    $0x10,%esp
  1016bb:	83 ec 08             	sub    $0x8,%esp
  1016be:	6a 02                	push   $0x2
  1016c0:	68 a1 00 00 00       	push   $0xa1
  1016c5:	e8 36 0a 00 00       	call   102100 <outportb>
  1016ca:	83 c4 10             	add    $0x10,%esp
  1016cd:	83 ec 08             	sub    $0x8,%esp
  1016d0:	6a 01                	push   $0x1
  1016d2:	6a 21                	push   $0x21
  1016d4:	e8 27 0a 00 00       	call   102100 <outportb>
  1016d9:	83 c4 10             	add    $0x10,%esp
  1016dc:	83 ec 08             	sub    $0x8,%esp
  1016df:	6a 01                	push   $0x1
  1016e1:	68 a1 00 00 00       	push   $0xa1
  1016e6:	e8 15 0a 00 00       	call   102100 <outportb>
  1016eb:	83 c4 10             	add    $0x10,%esp
  1016ee:	0f b6 45 f7          	movzbl -0x9(%ebp),%eax
  1016f2:	83 ec 08             	sub    $0x8,%esp
  1016f5:	50                   	push   %eax
  1016f6:	6a 21                	push   $0x21
  1016f8:	e8 03 0a 00 00       	call   102100 <outportb>
  1016fd:	83 c4 10             	add    $0x10,%esp
  101700:	0f b6 45 f6          	movzbl -0xa(%ebp),%eax
  101704:	83 ec 08             	sub    $0x8,%esp
  101707:	50                   	push   %eax
  101708:	68 a1 00 00 00       	push   $0xa1
  10170d:	e8 ee 09 00 00       	call   102100 <outportb>
  101712:	83 c4 10             	add    $0x10,%esp
  101715:	90                   	nop
  101716:	c9                   	leave  
  101717:	c3                   	ret    

00101718 <hal_initializeInterrupts>:
  101718:	55                   	push   %ebp
  101719:	89 e5                	mov    %esp,%ebp
  10171b:	83 ec 18             	sub    $0x18,%esp
  10171e:	e8 07 1c 00 00       	call   10332a <hal_installGDT>
  101723:	83 ec 04             	sub    $0x4,%esp
  101726:	68 f8 07 00 00       	push   $0x7f8
  10172b:	6a 00                	push   $0x0
  10172d:	68 60 92 10 00       	push   $0x109260
  101732:	e8 a2 2f 00 00       	call   1046d9 <memset>
  101737:	83 c4 10             	add    $0x10,%esp
  10173a:	b8 ec 2f 10 00       	mov    $0x102fec,%eax
  10173f:	50                   	push   %eax
  101740:	6a 08                	push   $0x8
  101742:	68 8e 00 00 00       	push   $0x8e
  101747:	6a 00                	push   $0x0
  101749:	e8 91 fe ff ff       	call   1015df <hal_registerInterruptVector>
  10174e:	83 c4 10             	add    $0x10,%esp
  101751:	b8 fd 2f 10 00       	mov    $0x102ffd,%eax
  101756:	50                   	push   %eax
  101757:	6a 08                	push   $0x8
  101759:	68 8e 00 00 00       	push   $0x8e
  10175e:	6a 01                	push   $0x1
  101760:	e8 7a fe ff ff       	call   1015df <hal_registerInterruptVector>
  101765:	83 c4 10             	add    $0x10,%esp
  101768:	b8 0e 30 10 00       	mov    $0x10300e,%eax
  10176d:	50                   	push   %eax
  10176e:	6a 08                	push   $0x8
  101770:	68 8e 00 00 00       	push   $0x8e
  101775:	6a 02                	push   $0x2
  101777:	e8 63 fe ff ff       	call   1015df <hal_registerInterruptVector>
  10177c:	83 c4 10             	add    $0x10,%esp
  10177f:	b8 1f 30 10 00       	mov    $0x10301f,%eax
  101784:	50                   	push   %eax
  101785:	6a 08                	push   $0x8
  101787:	68 8e 00 00 00       	push   $0x8e
  10178c:	6a 03                	push   $0x3
  10178e:	e8 4c fe ff ff       	call   1015df <hal_registerInterruptVector>
  101793:	83 c4 10             	add    $0x10,%esp
  101796:	b8 30 30 10 00       	mov    $0x103030,%eax
  10179b:	50                   	push   %eax
  10179c:	6a 08                	push   $0x8
  10179e:	68 8e 00 00 00       	push   $0x8e
  1017a3:	6a 04                	push   $0x4
  1017a5:	e8 35 fe ff ff       	call   1015df <hal_registerInterruptVector>
  1017aa:	83 c4 10             	add    $0x10,%esp
  1017ad:	b8 41 30 10 00       	mov    $0x103041,%eax
  1017b2:	50                   	push   %eax
  1017b3:	6a 08                	push   $0x8
  1017b5:	68 8e 00 00 00       	push   $0x8e
  1017ba:	6a 05                	push   $0x5
  1017bc:	e8 1e fe ff ff       	call   1015df <hal_registerInterruptVector>
  1017c1:	83 c4 10             	add    $0x10,%esp
  1017c4:	b8 52 30 10 00       	mov    $0x103052,%eax
  1017c9:	50                   	push   %eax
  1017ca:	6a 08                	push   $0x8
  1017cc:	68 8e 00 00 00       	push   $0x8e
  1017d1:	6a 06                	push   $0x6
  1017d3:	e8 07 fe ff ff       	call   1015df <hal_registerInterruptVector>
  1017d8:	83 c4 10             	add    $0x10,%esp
  1017db:	b8 63 30 10 00       	mov    $0x103063,%eax
  1017e0:	50                   	push   %eax
  1017e1:	6a 08                	push   $0x8
  1017e3:	68 8e 00 00 00       	push   $0x8e
  1017e8:	6a 07                	push   $0x7
  1017ea:	e8 f0 fd ff ff       	call   1015df <hal_registerInterruptVector>
  1017ef:	83 c4 10             	add    $0x10,%esp
  1017f2:	b8 74 30 10 00       	mov    $0x103074,%eax
  1017f7:	50                   	push   %eax
  1017f8:	6a 08                	push   $0x8
  1017fa:	68 8e 00 00 00       	push   $0x8e
  1017ff:	6a 08                	push   $0x8
  101801:	e8 d9 fd ff ff       	call   1015df <hal_registerInterruptVector>
  101806:	83 c4 10             	add    $0x10,%esp
  101809:	b8 83 30 10 00       	mov    $0x103083,%eax
  10180e:	50                   	push   %eax
  10180f:	6a 08                	push   $0x8
  101811:	68 8e 00 00 00       	push   $0x8e
  101816:	6a 09                	push   $0x9
  101818:	e8 c2 fd ff ff       	call   1015df <hal_registerInterruptVector>
  10181d:	83 c4 10             	add    $0x10,%esp
  101820:	b8 94 30 10 00       	mov    $0x103094,%eax
  101825:	50                   	push   %eax
  101826:	6a 08                	push   $0x8
  101828:	68 8e 00 00 00       	push   $0x8e
  10182d:	6a 0a                	push   $0xa
  10182f:	e8 ab fd ff ff       	call   1015df <hal_registerInterruptVector>
  101834:	83 c4 10             	add    $0x10,%esp
  101837:	b8 a3 30 10 00       	mov    $0x1030a3,%eax
  10183c:	50                   	push   %eax
  10183d:	6a 08                	push   $0x8
  10183f:	68 8e 00 00 00       	push   $0x8e
  101844:	6a 0b                	push   $0xb
  101846:	e8 94 fd ff ff       	call   1015df <hal_registerInterruptVector>
  10184b:	83 c4 10             	add    $0x10,%esp
  10184e:	b8 b2 30 10 00       	mov    $0x1030b2,%eax
  101853:	50                   	push   %eax
  101854:	6a 08                	push   $0x8
  101856:	68 8e 00 00 00       	push   $0x8e
  10185b:	6a 0c                	push   $0xc
  10185d:	e8 7d fd ff ff       	call   1015df <hal_registerInterruptVector>
  101862:	83 c4 10             	add    $0x10,%esp
  101865:	b8 c1 30 10 00       	mov    $0x1030c1,%eax
  10186a:	50                   	push   %eax
  10186b:	6a 08                	push   $0x8
  10186d:	68 8e 00 00 00       	push   $0x8e
  101872:	6a 0d                	push   $0xd
  101874:	e8 66 fd ff ff       	call   1015df <hal_registerInterruptVector>
  101879:	83 c4 10             	add    $0x10,%esp
  10187c:	b8 d0 30 10 00       	mov    $0x1030d0,%eax
  101881:	50                   	push   %eax
  101882:	6a 08                	push   $0x8
  101884:	68 8e 00 00 00       	push   $0x8e
  101889:	6a 0e                	push   $0xe
  10188b:	e8 4f fd ff ff       	call   1015df <hal_registerInterruptVector>
  101890:	83 c4 10             	add    $0x10,%esp
  101893:	b8 df 30 10 00       	mov    $0x1030df,%eax
  101898:	50                   	push   %eax
  101899:	6a 08                	push   $0x8
  10189b:	68 8e 00 00 00       	push   $0x8e
  1018a0:	6a 0f                	push   $0xf
  1018a2:	e8 38 fd ff ff       	call   1015df <hal_registerInterruptVector>
  1018a7:	83 c4 10             	add    $0x10,%esp
  1018aa:	b8 f0 30 10 00       	mov    $0x1030f0,%eax
  1018af:	50                   	push   %eax
  1018b0:	6a 08                	push   $0x8
  1018b2:	68 8e 00 00 00       	push   $0x8e
  1018b7:	6a 10                	push   $0x10
  1018b9:	e8 21 fd ff ff       	call   1015df <hal_registerInterruptVector>
  1018be:	83 c4 10             	add    $0x10,%esp
  1018c1:	b8 01 31 10 00       	mov    $0x103101,%eax
  1018c6:	50                   	push   %eax
  1018c7:	6a 08                	push   $0x8
  1018c9:	68 8e 00 00 00       	push   $0x8e
  1018ce:	6a 11                	push   $0x11
  1018d0:	e8 0a fd ff ff       	call   1015df <hal_registerInterruptVector>
  1018d5:	83 c4 10             	add    $0x10,%esp
  1018d8:	b8 10 31 10 00       	mov    $0x103110,%eax
  1018dd:	50                   	push   %eax
  1018de:	6a 08                	push   $0x8
  1018e0:	68 8e 00 00 00       	push   $0x8e
  1018e5:	6a 12                	push   $0x12
  1018e7:	e8 f3 fc ff ff       	call   1015df <hal_registerInterruptVector>
  1018ec:	83 c4 10             	add    $0x10,%esp
  1018ef:	b8 21 31 10 00       	mov    $0x103121,%eax
  1018f4:	50                   	push   %eax
  1018f5:	6a 08                	push   $0x8
  1018f7:	68 8e 00 00 00       	push   $0x8e
  1018fc:	6a 13                	push   $0x13
  1018fe:	e8 dc fc ff ff       	call   1015df <hal_registerInterruptVector>
  101903:	83 c4 10             	add    $0x10,%esp
  101906:	b8 32 31 10 00       	mov    $0x103132,%eax
  10190b:	50                   	push   %eax
  10190c:	6a 08                	push   $0x8
  10190e:	68 8e 00 00 00       	push   $0x8e
  101913:	6a 14                	push   $0x14
  101915:	e8 c5 fc ff ff       	call   1015df <hal_registerInterruptVector>
  10191a:	83 c4 10             	add    $0x10,%esp
  10191d:	b8 43 31 10 00       	mov    $0x103143,%eax
  101922:	50                   	push   %eax
  101923:	6a 08                	push   $0x8
  101925:	68 8e 00 00 00       	push   $0x8e
  10192a:	6a 15                	push   $0x15
  10192c:	e8 ae fc ff ff       	call   1015df <hal_registerInterruptVector>
  101931:	83 c4 10             	add    $0x10,%esp
  101934:	b8 52 31 10 00       	mov    $0x103152,%eax
  101939:	50                   	push   %eax
  10193a:	6a 08                	push   $0x8
  10193c:	68 8e 00 00 00       	push   $0x8e
  101941:	6a 1c                	push   $0x1c
  101943:	e8 97 fc ff ff       	call   1015df <hal_registerInterruptVector>
  101948:	83 c4 10             	add    $0x10,%esp
  10194b:	b8 63 31 10 00       	mov    $0x103163,%eax
  101950:	50                   	push   %eax
  101951:	6a 08                	push   $0x8
  101953:	68 8e 00 00 00       	push   $0x8e
  101958:	6a 1d                	push   $0x1d
  10195a:	e8 80 fc ff ff       	call   1015df <hal_registerInterruptVector>
  10195f:	83 c4 10             	add    $0x10,%esp
  101962:	b8 72 31 10 00       	mov    $0x103172,%eax
  101967:	50                   	push   %eax
  101968:	6a 08                	push   $0x8
  10196a:	68 8e 00 00 00       	push   $0x8e
  10196f:	6a 1e                	push   $0x1e
  101971:	e8 69 fc ff ff       	call   1015df <hal_registerInterruptVector>
  101976:	83 c4 10             	add    $0x10,%esp
  101979:	b8 81 31 10 00       	mov    $0x103181,%eax
  10197e:	50                   	push   %eax
  10197f:	6a 08                	push   $0x8
  101981:	68 8e 00 00 00       	push   $0x8e
  101986:	6a 1f                	push   $0x1f
  101988:	e8 52 fc ff ff       	call   1015df <hal_registerInterruptVector>
  10198d:	83 c4 10             	add    $0x10,%esp
  101990:	b8 92 31 10 00       	mov    $0x103192,%eax
  101995:	50                   	push   %eax
  101996:	6a 08                	push   $0x8
  101998:	68 8e 00 00 00       	push   $0x8e
  10199d:	6a 20                	push   $0x20
  10199f:	e8 3b fc ff ff       	call   1015df <hal_registerInterruptVector>
  1019a4:	83 c4 10             	add    $0x10,%esp
  1019a7:	b8 ab 31 10 00       	mov    $0x1031ab,%eax
  1019ac:	50                   	push   %eax
  1019ad:	6a 08                	push   $0x8
  1019af:	68 8e 00 00 00       	push   $0x8e
  1019b4:	6a 21                	push   $0x21
  1019b6:	e8 24 fc ff ff       	call   1015df <hal_registerInterruptVector>
  1019bb:	83 c4 10             	add    $0x10,%esp
  1019be:	b8 c4 31 10 00       	mov    $0x1031c4,%eax
  1019c3:	50                   	push   %eax
  1019c4:	6a 08                	push   $0x8
  1019c6:	68 8e 00 00 00       	push   $0x8e
  1019cb:	6a 22                	push   $0x22
  1019cd:	e8 0d fc ff ff       	call   1015df <hal_registerInterruptVector>
  1019d2:	83 c4 10             	add    $0x10,%esp
  1019d5:	b8 dd 31 10 00       	mov    $0x1031dd,%eax
  1019da:	50                   	push   %eax
  1019db:	6a 08                	push   $0x8
  1019dd:	68 8e 00 00 00       	push   $0x8e
  1019e2:	6a 23                	push   $0x23
  1019e4:	e8 f6 fb ff ff       	call   1015df <hal_registerInterruptVector>
  1019e9:	83 c4 10             	add    $0x10,%esp
  1019ec:	b8 f6 31 10 00       	mov    $0x1031f6,%eax
  1019f1:	50                   	push   %eax
  1019f2:	6a 08                	push   $0x8
  1019f4:	68 8e 00 00 00       	push   $0x8e
  1019f9:	6a 24                	push   $0x24
  1019fb:	e8 df fb ff ff       	call   1015df <hal_registerInterruptVector>
  101a00:	83 c4 10             	add    $0x10,%esp
  101a03:	b8 0f 32 10 00       	mov    $0x10320f,%eax
  101a08:	50                   	push   %eax
  101a09:	6a 08                	push   $0x8
  101a0b:	68 8e 00 00 00       	push   $0x8e
  101a10:	6a 25                	push   $0x25
  101a12:	e8 c8 fb ff ff       	call   1015df <hal_registerInterruptVector>
  101a17:	83 c4 10             	add    $0x10,%esp
  101a1a:	b8 28 32 10 00       	mov    $0x103228,%eax
  101a1f:	50                   	push   %eax
  101a20:	6a 08                	push   $0x8
  101a22:	68 8e 00 00 00       	push   $0x8e
  101a27:	6a 26                	push   $0x26
  101a29:	e8 b1 fb ff ff       	call   1015df <hal_registerInterruptVector>
  101a2e:	83 c4 10             	add    $0x10,%esp
  101a31:	b8 41 32 10 00       	mov    $0x103241,%eax
  101a36:	50                   	push   %eax
  101a37:	6a 08                	push   $0x8
  101a39:	68 8e 00 00 00       	push   $0x8e
  101a3e:	6a 27                	push   $0x27
  101a40:	e8 9a fb ff ff       	call   1015df <hal_registerInterruptVector>
  101a45:	83 c4 10             	add    $0x10,%esp
  101a48:	b8 5a 32 10 00       	mov    $0x10325a,%eax
  101a4d:	50                   	push   %eax
  101a4e:	6a 08                	push   $0x8
  101a50:	68 8e 00 00 00       	push   $0x8e
  101a55:	6a 28                	push   $0x28
  101a57:	e8 83 fb ff ff       	call   1015df <hal_registerInterruptVector>
  101a5c:	83 c4 10             	add    $0x10,%esp
  101a5f:	b8 73 32 10 00       	mov    $0x103273,%eax
  101a64:	50                   	push   %eax
  101a65:	6a 08                	push   $0x8
  101a67:	68 8e 00 00 00       	push   $0x8e
  101a6c:	6a 29                	push   $0x29
  101a6e:	e8 6c fb ff ff       	call   1015df <hal_registerInterruptVector>
  101a73:	83 c4 10             	add    $0x10,%esp
  101a76:	b8 8c 32 10 00       	mov    $0x10328c,%eax
  101a7b:	50                   	push   %eax
  101a7c:	6a 08                	push   $0x8
  101a7e:	68 8e 00 00 00       	push   $0x8e
  101a83:	6a 2a                	push   $0x2a
  101a85:	e8 55 fb ff ff       	call   1015df <hal_registerInterruptVector>
  101a8a:	83 c4 10             	add    $0x10,%esp
  101a8d:	b8 a5 32 10 00       	mov    $0x1032a5,%eax
  101a92:	50                   	push   %eax
  101a93:	6a 08                	push   $0x8
  101a95:	68 8e 00 00 00       	push   $0x8e
  101a9a:	6a 2b                	push   $0x2b
  101a9c:	e8 3e fb ff ff       	call   1015df <hal_registerInterruptVector>
  101aa1:	83 c4 10             	add    $0x10,%esp
  101aa4:	b8 be 32 10 00       	mov    $0x1032be,%eax
  101aa9:	50                   	push   %eax
  101aaa:	6a 08                	push   $0x8
  101aac:	68 8e 00 00 00       	push   $0x8e
  101ab1:	6a 2c                	push   $0x2c
  101ab3:	e8 27 fb ff ff       	call   1015df <hal_registerInterruptVector>
  101ab8:	83 c4 10             	add    $0x10,%esp
  101abb:	b8 d7 32 10 00       	mov    $0x1032d7,%eax
  101ac0:	50                   	push   %eax
  101ac1:	6a 08                	push   $0x8
  101ac3:	68 8e 00 00 00       	push   $0x8e
  101ac8:	6a 2d                	push   $0x2d
  101aca:	e8 10 fb ff ff       	call   1015df <hal_registerInterruptVector>
  101acf:	83 c4 10             	add    $0x10,%esp
  101ad2:	b8 f0 32 10 00       	mov    $0x1032f0,%eax
  101ad7:	50                   	push   %eax
  101ad8:	6a 08                	push   $0x8
  101ada:	68 8e 00 00 00       	push   $0x8e
  101adf:	6a 2e                	push   $0x2e
  101ae1:	e8 f9 fa ff ff       	call   1015df <hal_registerInterruptVector>
  101ae6:	83 c4 10             	add    $0x10,%esp
  101ae9:	b8 09 33 10 00       	mov    $0x103309,%eax
  101aee:	50                   	push   %eax
  101aef:	6a 08                	push   $0x8
  101af1:	68 8e 00 00 00       	push   $0x8e
  101af6:	6a 2f                	push   $0x2f
  101af8:	e8 e2 fa ff ff       	call   1015df <hal_registerInterruptVector>
  101afd:	83 c4 10             	add    $0x10,%esp
  101b00:	b8 60 92 10 00       	mov    $0x109260,%eax
  101b05:	89 45 f4             	mov    %eax,-0xc(%ebp)
  101b08:	66 c7 45 f2 f7 07    	movw   $0x7f7,-0xe(%ebp)
  101b0e:	0f 01 5d f2          	lidtl  -0xe(%ebp)
  101b12:	e8 2a fb ff ff       	call   101641 <hal_initializePIC>
  101b17:	fb                   	sti    
  101b18:	68 44 67 10 00       	push   $0x106744
  101b1d:	6a 01                	push   $0x1
  101b1f:	68 e8 00 00 00       	push   $0xe8
  101b24:	68 4b 66 10 00       	push   $0x10664b
  101b29:	e8 74 e9 ff ff       	call   1004a2 <dprintf_internal>
  101b2e:	83 c4 10             	add    $0x10,%esp
  101b31:	90                   	nop
  101b32:	c9                   	leave  
  101b33:	c3                   	ret    

00101b34 <mem_outofmemory>:
  101b34:	55                   	push   %ebp
  101b35:	89 e5                	mov    %esp,%ebp
  101b37:	83 ec 08             	sub    $0x8,%esp
  101b3a:	e8 18 ed ff ff       	call   100857 <kernel_panic_prepare>
  101b3f:	68 68 67 10 00       	push   $0x106768
  101b44:	6a 00                	push   $0x0
  101b46:	6a 31                	push   $0x31
  101b48:	68 a2 67 10 00       	push   $0x1067a2
  101b4d:	e8 50 e9 ff ff       	call   1004a2 <dprintf_internal>
  101b52:	83 c4 10             	add    $0x10,%esp
  101b55:	83 ec 08             	sub    $0x8,%esp
  101b58:	ff 75 0c             	push   0xc(%ebp)
  101b5b:	ff 75 08             	push   0x8(%ebp)
  101b5e:	68 b4 67 10 00       	push   $0x1067b4
  101b63:	6a 00                	push   $0x0
  101b65:	6a 32                	push   $0x32
  101b67:	68 a2 67 10 00       	push   $0x1067a2
  101b6c:	e8 31 e9 ff ff       	call   1004a2 <dprintf_internal>
  101b71:	83 c4 20             	add    $0x20,%esp
  101b74:	e8 44 ed ff ff       	call   1008bd <kernel_panic_finalize>
  101b79:	90                   	nop
  101b7a:	c9                   	leave  
  101b7b:	c3                   	ret    

00101b7c <mem_load_pdbr>:
  101b7c:	55                   	push   %ebp
  101b7d:	89 e5                	mov    %esp,%ebp
  101b7f:	8b 45 08             	mov    0x8(%ebp),%eax
  101b82:	0f 22 d8             	mov    %eax,%cr3
  101b85:	90                   	nop
  101b86:	5d                   	pop    %ebp
  101b87:	c3                   	ret    

00101b88 <mem_setPaging>:
  101b88:	55                   	push   %ebp
  101b89:	89 e5                	mov    %esp,%ebp
  101b8b:	83 ec 14             	sub    $0x14,%esp
  101b8e:	8b 45 08             	mov    0x8(%ebp),%eax
  101b91:	88 45 ec             	mov    %al,-0x14(%ebp)
  101b94:	80 7d ec 00          	cmpb   $0x0,-0x14(%ebp)
  101b98:	74 25                	je     101bbf <mem_setPaging+0x37>
  101b9a:	0f 20 e0             	mov    %cr4,%eax
  101b9d:	89 45 f8             	mov    %eax,-0x8(%ebp)
  101ba0:	83 65 f8 ef          	andl   $0xffffffef,-0x8(%ebp)
  101ba4:	8b 45 f8             	mov    -0x8(%ebp),%eax
  101ba7:	0f 22 e0             	mov    %eax,%cr4
  101baa:	0f 20 c0             	mov    %cr0,%eax
  101bad:	89 45 f4             	mov    %eax,-0xc(%ebp)
  101bb0:	81 4d f4 01 00 01 80 	orl    $0x80010001,-0xc(%ebp)
  101bb7:	8b 45 f4             	mov    -0xc(%ebp),%eax
  101bba:	0f 22 c0             	mov    %eax,%cr0
  101bbd:	eb 13                	jmp    101bd2 <mem_setPaging+0x4a>
  101bbf:	0f 20 c0             	mov    %cr0,%eax
  101bc2:	89 45 fc             	mov    %eax,-0x4(%ebp)
  101bc5:	81 65 fc ff ff ff 7f 	andl   $0x7fffffff,-0x4(%ebp)
  101bcc:	8b 45 fc             	mov    -0x4(%ebp),%eax
  101bcf:	0f 22 e0             	mov    %eax,%cr4
  101bd2:	90                   	nop
  101bd3:	c9                   	leave  
  101bd4:	c3                   	ret    

00101bd5 <mem_remapPhys>:
  101bd5:	55                   	push   %ebp
  101bd6:	89 e5                	mov    %esp,%ebp
  101bd8:	83 ec 08             	sub    $0x8,%esp
  101bdb:	81 7d 08 00 00 00 30 	cmpl   $0x30000000,0x8(%ebp)
  101be2:	76 17                	jbe    101bfb <mem_remapPhys+0x26>
  101be4:	83 ec 04             	sub    $0x4,%esp
  101be7:	68 e4 67 10 00       	push   $0x1067e4
  101bec:	68 44 68 10 00       	push   $0x106844
  101bf1:	6a 01                	push   $0x1
  101bf3:	e8 69 ea ff ff       	call   100661 <kernel_panic_extended>
  101bf8:	83 c4 10             	add    $0x10,%esp
  101bfb:	8b 45 08             	mov    0x8(%ebp),%eax
  101bfe:	0d 00 00 00 b0       	or     $0xb0000000,%eax
  101c03:	c9                   	leave  
  101c04:	c3                   	ret    

00101c05 <mem_switchDirectory>:
  101c05:	55                   	push   %ebp
  101c06:	89 e5                	mov    %esp,%ebp
  101c08:	83 7d 08 00          	cmpl   $0x0,0x8(%ebp)
  101c0c:	75 07                	jne    101c15 <mem_switchDirectory+0x10>
  101c0e:	b8 ea ff ff ff       	mov    $0xffffffea,%eax
  101c13:	eb 1e                	jmp    101c33 <mem_switchDirectory+0x2e>
  101c15:	8b 45 08             	mov    0x8(%ebp),%eax
  101c18:	a3 5c 9e 10 00       	mov    %eax,0x109e5c
  101c1d:	8b 45 08             	mov    0x8(%ebp),%eax
  101c20:	25 ff ff ff 4f       	and    $0x4fffffff,%eax
  101c25:	50                   	push   %eax
  101c26:	e8 51 ff ff ff       	call   101b7c <mem_load_pdbr>
  101c2b:	83 c4 04             	add    $0x4,%esp
  101c2e:	b8 00 00 00 00       	mov    $0x0,%eax
  101c33:	c9                   	leave  
  101c34:	c3                   	ret    

00101c35 <mem_getPage>:
  101c35:	55                   	push   %ebp
  101c36:	89 e5                	mov    %esp,%ebp
  101c38:	83 ec 18             	sub    $0x18,%esp
  101c3b:	83 7d 08 00          	cmpl   $0x0,0x8(%ebp)
  101c3f:	74 05                	je     101c46 <mem_getPage+0x11>
  101c41:	8b 45 08             	mov    0x8(%ebp),%eax
  101c44:	eb 05                	jmp    101c4b <mem_getPage+0x16>
  101c46:	a1 5c 9e 10 00       	mov    0x109e5c,%eax
  101c4b:	89 45 f4             	mov    %eax,-0xc(%ebp)
  101c4e:	8b 45 0c             	mov    0xc(%ebp),%eax
  101c51:	c1 e8 16             	shr    $0x16,%eax
  101c54:	8d 14 85 00 00 00 00 	lea    0x0(,%eax,4),%edx
  101c5b:	8b 45 f4             	mov    -0xc(%ebp),%eax
  101c5e:	01 d0                	add    %edx,%eax
  101c60:	89 45 f0             	mov    %eax,-0x10(%ebp)
  101c63:	8b 45 f0             	mov    -0x10(%ebp),%eax
  101c66:	0f b6 00             	movzbl (%eax),%eax
  101c69:	83 e0 01             	and    $0x1,%eax
  101c6c:	84 c0                	test   %al,%al
  101c6e:	0f 85 91 00 00 00    	jne    101d05 <mem_getPage+0xd0>
  101c74:	83 7d 10 00          	cmpl   $0x0,0x10(%ebp)
  101c78:	0f 84 bd 00 00 00    	je     101d3b <mem_getPage+0x106>
  101c7e:	e8 e6 ef ff ff       	call   100c69 <pmm_allocateBlock>
  101c83:	89 45 ec             	mov    %eax,-0x14(%ebp)
  101c86:	83 ec 0c             	sub    $0xc,%esp
  101c89:	ff 75 ec             	push   -0x14(%ebp)
  101c8c:	e8 44 ff ff ff       	call   101bd5 <mem_remapPhys>
  101c91:	83 c4 10             	add    $0x10,%esp
  101c94:	83 ec 04             	sub    $0x4,%esp
  101c97:	68 00 10 00 00       	push   $0x1000
  101c9c:	6a 00                	push   $0x0
  101c9e:	50                   	push   %eax
  101c9f:	e8 35 2a 00 00       	call   1046d9 <memset>
  101ca4:	83 c4 10             	add    $0x10,%esp
  101ca7:	83 ec 0c             	sub    $0xc,%esp
  101caa:	ff 75 ec             	push   -0x14(%ebp)
  101cad:	68 48 68 10 00       	push   $0x106848
  101cb2:	6a 04                	push   $0x4
  101cb4:	68 a2 00 00 00       	push   $0xa2
  101cb9:	68 a2 67 10 00       	push   $0x1067a2
  101cbe:	e8 df e7 ff ff       	call   1004a2 <dprintf_internal>
  101cc3:	83 c4 20             	add    $0x20,%esp
  101cc6:	8b 45 f0             	mov    -0x10(%ebp),%eax
  101cc9:	0f b6 10             	movzbl (%eax),%edx
  101ccc:	83 ca 01             	or     $0x1,%edx
  101ccf:	88 10                	mov    %dl,(%eax)
  101cd1:	8b 45 f0             	mov    -0x10(%ebp),%eax
  101cd4:	0f b6 10             	movzbl (%eax),%edx
  101cd7:	83 ca 02             	or     $0x2,%edx
  101cda:	88 10                	mov    %dl,(%eax)
  101cdc:	8b 45 f0             	mov    -0x10(%ebp),%eax
  101cdf:	0f b6 10             	movzbl (%eax),%edx
  101ce2:	83 ca 04             	or     $0x4,%edx
  101ce5:	88 10                	mov    %dl,(%eax)
  101ce7:	8b 45 ec             	mov    -0x14(%ebp),%eax
  101cea:	25 ff ff 0f 00       	and    $0xfffff,%eax
  101cef:	89 c2                	mov    %eax,%edx
  101cf1:	8b 45 f0             	mov    -0x10(%ebp),%eax
  101cf4:	89 d1                	mov    %edx,%ecx
  101cf6:	c1 e1 0c             	shl    $0xc,%ecx
  101cf9:	8b 10                	mov    (%eax),%edx
  101cfb:	81 e2 ff 0f 00 00    	and    $0xfff,%edx
  101d01:	09 ca                	or     %ecx,%edx
  101d03:	89 10                	mov    %edx,(%eax)
  101d05:	8b 45 0c             	mov    0xc(%ebp),%eax
  101d08:	c1 e8 16             	shr    $0x16,%eax
  101d0b:	8d 14 85 00 00 00 00 	lea    0x0(,%eax,4),%edx
  101d12:	8b 45 f4             	mov    -0xc(%ebp),%eax
  101d15:	01 d0                	add    %edx,%eax
  101d17:	8b 00                	mov    (%eax),%eax
  101d19:	c1 e8 0c             	shr    $0xc,%eax
  101d1c:	c1 e0 0c             	shl    $0xc,%eax
  101d1f:	89 45 e8             	mov    %eax,-0x18(%ebp)
  101d22:	8b 45 0c             	mov    0xc(%ebp),%eax
  101d25:	c1 e8 0c             	shr    $0xc,%eax
  101d28:	25 ff 03 00 00       	and    $0x3ff,%eax
  101d2d:	8d 14 85 00 00 00 00 	lea    0x0(,%eax,4),%edx
  101d34:	8b 45 e8             	mov    -0x18(%ebp),%eax
  101d37:	01 d0                	add    %edx,%eax
  101d39:	eb 06                	jmp    101d41 <mem_getPage+0x10c>
  101d3b:	90                   	nop
  101d3c:	b8 00 00 00 00       	mov    $0x0,%eax
  101d41:	c9                   	leave  
  101d42:	c3                   	ret    

00101d43 <mem_init>:
  101d43:	55                   	push   %ebp
  101d44:	89 e5                	mov    %esp,%ebp
  101d46:	83 ec 58             	sub    $0x58,%esp
  101d49:	83 7d 08 00          	cmpl   $0x0,0x8(%ebp)
  101d4d:	75 12                	jne    101d61 <mem_init+0x1e>
  101d4f:	83 ec 08             	sub    $0x8,%esp
  101d52:	68 44 68 10 00       	push   $0x106844
  101d57:	6a 02                	push   $0x2
  101d59:	e8 0c ea ff ff       	call   10076a <kernel_panic>
  101d5e:	83 c4 10             	add    $0x10,%esp
  101d61:	8b 45 08             	mov    0x8(%ebp),%eax
  101d64:	a3 64 9e 10 00       	mov    %eax,0x109e64
  101d69:	e8 fb ee ff ff       	call   100c69 <pmm_allocateBlock>
  101d6e:	89 45 d8             	mov    %eax,-0x28(%ebp)
  101d71:	83 ec 04             	sub    $0x4,%esp
  101d74:	68 00 10 00 00       	push   $0x1000
  101d79:	6a 00                	push   $0x0
  101d7b:	ff 75 d8             	push   -0x28(%ebp)
  101d7e:	e8 56 29 00 00       	call   1046d9 <memset>
  101d83:	83 c4 10             	add    $0x10,%esp
  101d86:	e8 8e f0 ff ff       	call   100e19 <pmm_getMaximumBlocks>
  101d8b:	c1 e0 0c             	shl    $0xc,%eax
  101d8e:	89 45 d4             	mov    %eax,-0x2c(%ebp)
  101d91:	8b 45 d4             	mov    -0x2c(%ebp),%eax
  101d94:	c1 e8 0c             	shr    $0xc,%eax
  101d97:	89 45 d0             	mov    %eax,-0x30(%ebp)
  101d9a:	81 7d d4 00 00 00 30 	cmpl   $0x30000000,-0x2c(%ebp)
  101da1:	76 28                	jbe    101dcb <mem_init+0x88>
  101da3:	8b 45 d4             	mov    -0x2c(%ebp),%eax
  101da6:	c1 e8 0a             	shr    $0xa,%eax
  101da9:	83 ec 08             	sub    $0x8,%esp
  101dac:	50                   	push   %eax
  101dad:	68 00 00 0c 00       	push   $0xc0000
  101db2:	68 60 68 10 00       	push   $0x106860
  101db7:	6a 02                	push   $0x2
  101db9:	68 d2 00 00 00       	push   $0xd2
  101dbe:	68 a2 67 10 00       	push   $0x1067a2
  101dc3:	e8 da e6 ff ff       	call   1004a2 <dprintf_internal>
  101dc8:	83 c4 20             	add    $0x20,%esp
  101dcb:	c7 45 f4 00 00 00 00 	movl   $0x0,-0xc(%ebp)
  101dd2:	c7 45 f0 00 00 00 00 	movl   $0x0,-0x10(%ebp)
  101dd9:	8b 45 d0             	mov    -0x30(%ebp),%eax
  101ddc:	05 00 04 00 00       	add    $0x400,%eax
  101de1:	c1 e8 0a             	shr    $0xa,%eax
  101de4:	89 45 cc             	mov    %eax,-0x34(%ebp)
  101de7:	c7 45 ec 00 00 00 00 	movl   $0x0,-0x14(%ebp)
  101dee:	c7 45 e8 00 00 00 00 	movl   $0x0,-0x18(%ebp)
  101df5:	e9 18 01 00 00       	jmp    101f12 <mem_init+0x1cf>
  101dfa:	e8 6a ee ff ff       	call   100c69 <pmm_allocateBlock>
  101dff:	89 45 c8             	mov    %eax,-0x38(%ebp)
  101e02:	83 ec 04             	sub    $0x4,%esp
  101e05:	68 00 10 00 00       	push   $0x1000
  101e0a:	6a 00                	push   $0x0
  101e0c:	ff 75 c8             	push   -0x38(%ebp)
  101e0f:	e8 c5 28 00 00       	call   1046d9 <memset>
  101e14:	83 c4 10             	add    $0x10,%esp
  101e17:	c7 45 e4 00 00 00 00 	movl   $0x0,-0x1c(%ebp)
  101e1e:	eb 77                	jmp    101e97 <mem_init+0x154>
  101e20:	c7 45 b0 00 00 00 00 	movl   $0x0,-0x50(%ebp)
  101e27:	0f b6 45 b0          	movzbl -0x50(%ebp),%eax
  101e2b:	83 c8 01             	or     $0x1,%eax
  101e2e:	88 45 b0             	mov    %al,-0x50(%ebp)
  101e31:	0f b6 45 b0          	movzbl -0x50(%ebp),%eax
  101e35:	83 c8 02             	or     $0x2,%eax
  101e38:	88 45 b0             	mov    %al,-0x50(%ebp)
  101e3b:	0f b6 45 b0          	movzbl -0x50(%ebp),%eax
  101e3f:	83 c8 04             	or     $0x4,%eax
  101e42:	88 45 b0             	mov    %al,-0x50(%ebp)
  101e45:	8b 45 f4             	mov    -0xc(%ebp),%eax
  101e48:	25 ff ff 0f 00       	and    $0xfffff,%eax
  101e4d:	c1 e0 0c             	shl    $0xc,%eax
  101e50:	89 c2                	mov    %eax,%edx
  101e52:	8b 45 b0             	mov    -0x50(%ebp),%eax
  101e55:	25 ff 0f 00 00       	and    $0xfff,%eax
  101e5a:	09 d0                	or     %edx,%eax
  101e5c:	89 45 b0             	mov    %eax,-0x50(%ebp)
  101e5f:	8b 45 f4             	mov    -0xc(%ebp),%eax
  101e62:	2d 00 00 00 50       	sub    $0x50000000,%eax
  101e67:	c1 e8 0c             	shr    $0xc,%eax
  101e6a:	25 ff 03 00 00       	and    $0x3ff,%eax
  101e6f:	8d 14 85 00 00 00 00 	lea    0x0(,%eax,4),%edx
  101e76:	8b 45 c8             	mov    -0x38(%ebp),%eax
  101e79:	01 c2                	add    %eax,%edx
  101e7b:	8b 45 b0             	mov    -0x50(%ebp),%eax
  101e7e:	89 02                	mov    %eax,(%edx)
  101e80:	83 45 ec 01          	addl   $0x1,-0x14(%ebp)
  101e84:	8b 45 d0             	mov    -0x30(%ebp),%eax
  101e87:	39 45 ec             	cmp    %eax,-0x14(%ebp)
  101e8a:	74 16                	je     101ea2 <mem_init+0x15f>
  101e8c:	81 45 f4 00 10 00 00 	addl   $0x1000,-0xc(%ebp)
  101e93:	83 45 e4 01          	addl   $0x1,-0x1c(%ebp)
  101e97:	81 7d e4 ff 03 00 00 	cmpl   $0x3ff,-0x1c(%ebp)
  101e9e:	7e 80                	jle    101e20 <mem_init+0xdd>
  101ea0:	eb 01                	jmp    101ea3 <mem_init+0x160>
  101ea2:	90                   	nop
  101ea3:	8b 45 f0             	mov    -0x10(%ebp),%eax
  101ea6:	2d 00 00 00 50       	sub    $0x50000000,%eax
  101eab:	c1 e8 16             	shr    $0x16,%eax
  101eae:	8d 14 85 00 00 00 00 	lea    0x0(,%eax,4),%edx
  101eb5:	8b 45 d8             	mov    -0x28(%ebp),%eax
  101eb8:	01 d0                	add    %edx,%eax
  101eba:	89 45 c4             	mov    %eax,-0x3c(%ebp)
  101ebd:	8b 45 c4             	mov    -0x3c(%ebp),%eax
  101ec0:	0f b6 10             	movzbl (%eax),%edx
  101ec3:	83 ca 01             	or     $0x1,%edx
  101ec6:	88 10                	mov    %dl,(%eax)
  101ec8:	8b 45 c4             	mov    -0x3c(%ebp),%eax
  101ecb:	0f b6 10             	movzbl (%eax),%edx
  101ece:	83 ca 02             	or     $0x2,%edx
  101ed1:	88 10                	mov    %dl,(%eax)
  101ed3:	8b 45 c4             	mov    -0x3c(%ebp),%eax
  101ed6:	0f b6 10             	movzbl (%eax),%edx
  101ed9:	83 ca 04             	or     $0x4,%edx
  101edc:	88 10                	mov    %dl,(%eax)
  101ede:	8b 45 c8             	mov    -0x38(%ebp),%eax
  101ee1:	c1 e8 0c             	shr    $0xc,%eax
  101ee4:	25 ff ff 0f 00       	and    $0xfffff,%eax
  101ee9:	89 c2                	mov    %eax,%edx
  101eeb:	8b 45 c4             	mov    -0x3c(%ebp),%eax
  101eee:	89 d1                	mov    %edx,%ecx
  101ef0:	c1 e1 0c             	shl    $0xc,%ecx
  101ef3:	8b 10                	mov    (%eax),%edx
  101ef5:	81 e2 ff 0f 00 00    	and    $0xfff,%edx
  101efb:	09 ca                	or     %ecx,%edx
  101efd:	89 10                	mov    %edx,(%eax)
  101eff:	81 45 f0 00 00 40 00 	addl   $0x400000,-0x10(%ebp)
  101f06:	8b 45 d0             	mov    -0x30(%ebp),%eax
  101f09:	39 45 ec             	cmp    %eax,-0x14(%ebp)
  101f0c:	74 12                	je     101f20 <mem_init+0x1dd>
  101f0e:	83 45 e8 01          	addl   $0x1,-0x18(%ebp)
  101f12:	8b 45 e8             	mov    -0x18(%ebp),%eax
  101f15:	3b 45 cc             	cmp    -0x34(%ebp),%eax
  101f18:	0f 8c dc fe ff ff    	jl     101dfa <mem_init+0xb7>
  101f1e:	eb 01                	jmp    101f21 <mem_init+0x1de>
  101f20:	90                   	nop
  101f21:	a1 64 9e 10 00       	mov    0x109e64,%eax
  101f26:	05 ff 0f 00 00       	add    $0xfff,%eax
  101f2b:	25 00 f0 ff ff       	and    $0xfffff000,%eax
  101f30:	89 45 c0             	mov    %eax,-0x40(%ebp)
  101f33:	8b 45 c0             	mov    -0x40(%ebp),%eax
  101f36:	c1 e8 0c             	shr    $0xc,%eax
  101f39:	89 45 bc             	mov    %eax,-0x44(%ebp)
  101f3c:	8b 45 bc             	mov    -0x44(%ebp),%eax
  101f3f:	05 00 04 00 00       	add    $0x400,%eax
  101f44:	c1 e8 0a             	shr    $0xa,%eax
  101f47:	89 45 cc             	mov    %eax,-0x34(%ebp)
  101f4a:	c7 45 ec 00 00 00 00 	movl   $0x0,-0x14(%ebp)
  101f51:	c7 45 f4 00 00 00 00 	movl   $0x0,-0xc(%ebp)
  101f58:	c7 45 f0 00 00 00 00 	movl   $0x0,-0x10(%ebp)
  101f5f:	c7 45 e0 00 00 00 00 	movl   $0x0,-0x20(%ebp)
  101f66:	e9 f9 00 00 00       	jmp    102064 <mem_init+0x321>
  101f6b:	e8 f9 ec ff ff       	call   100c69 <pmm_allocateBlock>
  101f70:	89 45 b8             	mov    %eax,-0x48(%ebp)
  101f73:	83 ec 04             	sub    $0x4,%esp
  101f76:	68 00 10 00 00       	push   $0x1000
  101f7b:	6a 00                	push   $0x0
  101f7d:	ff 75 b8             	push   -0x48(%ebp)
  101f80:	e8 54 27 00 00       	call   1046d9 <memset>
  101f85:	83 c4 10             	add    $0x10,%esp
  101f88:	c7 45 dc 00 00 00 00 	movl   $0x0,-0x24(%ebp)
  101f8f:	eb 68                	jmp    101ff9 <mem_init+0x2b6>
  101f91:	c7 45 ac 00 00 00 00 	movl   $0x0,-0x54(%ebp)
  101f98:	0f b6 45 ac          	movzbl -0x54(%ebp),%eax
  101f9c:	83 c8 01             	or     $0x1,%eax
  101f9f:	88 45 ac             	mov    %al,-0x54(%ebp)
  101fa2:	0f b6 45 ac          	movzbl -0x54(%ebp),%eax
  101fa6:	83 c8 02             	or     $0x2,%eax
  101fa9:	88 45 ac             	mov    %al,-0x54(%ebp)
  101fac:	8b 45 f4             	mov    -0xc(%ebp),%eax
  101faf:	25 ff ff 0f 00       	and    $0xfffff,%eax
  101fb4:	c1 e0 0c             	shl    $0xc,%eax
  101fb7:	89 c2                	mov    %eax,%edx
  101fb9:	8b 45 ac             	mov    -0x54(%ebp),%eax
  101fbc:	25 ff 0f 00 00       	and    $0xfff,%eax
  101fc1:	09 d0                	or     %edx,%eax
  101fc3:	89 45 ac             	mov    %eax,-0x54(%ebp)
  101fc6:	8b 45 f4             	mov    -0xc(%ebp),%eax
  101fc9:	c1 e8 0c             	shr    $0xc,%eax
  101fcc:	25 ff 03 00 00       	and    $0x3ff,%eax
  101fd1:	8d 14 85 00 00 00 00 	lea    0x0(,%eax,4),%edx
  101fd8:	8b 45 b8             	mov    -0x48(%ebp),%eax
  101fdb:	01 c2                	add    %eax,%edx
  101fdd:	8b 45 ac             	mov    -0x54(%ebp),%eax
  101fe0:	89 02                	mov    %eax,(%edx)
  101fe2:	83 45 ec 01          	addl   $0x1,-0x14(%ebp)
  101fe6:	8b 45 d0             	mov    -0x30(%ebp),%eax
  101fe9:	39 45 ec             	cmp    %eax,-0x14(%ebp)
  101fec:	74 16                	je     102004 <mem_init+0x2c1>
  101fee:	81 45 f4 00 10 00 00 	addl   $0x1000,-0xc(%ebp)
  101ff5:	83 45 dc 01          	addl   $0x1,-0x24(%ebp)
  101ff9:	81 7d dc ff 03 00 00 	cmpl   $0x3ff,-0x24(%ebp)
  102000:	7e 8f                	jle    101f91 <mem_init+0x24e>
  102002:	eb 01                	jmp    102005 <mem_init+0x2c2>
  102004:	90                   	nop
  102005:	8b 45 f0             	mov    -0x10(%ebp),%eax
  102008:	c1 e8 16             	shr    $0x16,%eax
  10200b:	8d 14 85 00 00 00 00 	lea    0x0(,%eax,4),%edx
  102012:	8b 45 d8             	mov    -0x28(%ebp),%eax
  102015:	01 d0                	add    %edx,%eax
  102017:	89 45 b4             	mov    %eax,-0x4c(%ebp)
  10201a:	8b 45 b4             	mov    -0x4c(%ebp),%eax
  10201d:	0f b6 10             	movzbl (%eax),%edx
  102020:	83 ca 01             	or     $0x1,%edx
  102023:	88 10                	mov    %dl,(%eax)
  102025:	8b 45 b4             	mov    -0x4c(%ebp),%eax
  102028:	0f b6 10             	movzbl (%eax),%edx
  10202b:	83 ca 02             	or     $0x2,%edx
  10202e:	88 10                	mov    %dl,(%eax)
  102030:	8b 45 b8             	mov    -0x48(%ebp),%eax
  102033:	c1 e8 0c             	shr    $0xc,%eax
  102036:	25 ff ff 0f 00       	and    $0xfffff,%eax
  10203b:	89 c2                	mov    %eax,%edx
  10203d:	8b 45 b4             	mov    -0x4c(%ebp),%eax
  102040:	89 d1                	mov    %edx,%ecx
  102042:	c1 e1 0c             	shl    $0xc,%ecx
  102045:	8b 10                	mov    (%eax),%edx
  102047:	81 e2 ff 0f 00 00    	and    $0xfff,%edx
  10204d:	09 ca                	or     %ecx,%edx
  10204f:	89 10                	mov    %edx,(%eax)
  102051:	81 45 f0 00 00 40 00 	addl   $0x400000,-0x10(%ebp)
  102058:	8b 45 d0             	mov    -0x30(%ebp),%eax
  10205b:	39 45 ec             	cmp    %eax,-0x14(%ebp)
  10205e:	74 12                	je     102072 <mem_init+0x32f>
  102060:	83 45 e0 01          	addl   $0x1,-0x20(%ebp)
  102064:	8b 45 e0             	mov    -0x20(%ebp),%eax
  102067:	3b 45 cc             	cmp    -0x34(%ebp),%eax
  10206a:	0f 8c fb fe ff ff    	jl     101f6b <mem_init+0x228>
  102070:	eb 01                	jmp    102073 <mem_init+0x330>
  102072:	90                   	nop
  102073:	68 c8 68 10 00       	push   $0x1068c8
  102078:	6a 01                	push   $0x1
  10207a:	68 1f 01 00 00       	push   $0x11f
  10207f:	68 a2 67 10 00       	push   $0x1067a2
  102084:	e8 19 e4 ff ff       	call   1004a2 <dprintf_internal>
  102089:	83 c4 10             	add    $0x10,%esp
  10208c:	8b 45 d8             	mov    -0x28(%ebp),%eax
  10208f:	a3 60 9e 10 00       	mov    %eax,0x109e60
  102094:	a1 60 9e 10 00       	mov    0x109e60,%eax
  102099:	83 ec 0c             	sub    $0xc,%esp
  10209c:	50                   	push   %eax
  10209d:	e8 63 fb ff ff       	call   101c05 <mem_switchDirectory>
  1020a2:	83 c4 10             	add    $0x10,%esp
  1020a5:	83 ec 0c             	sub    $0xc,%esp
  1020a8:	6a 01                	push   $0x1
  1020aa:	e8 d9 fa ff ff       	call   101b88 <mem_setPaging>
  1020af:	83 c4 10             	add    $0x10,%esp
  1020b2:	68 e7 68 10 00       	push   $0x1068e7
  1020b7:	6a 01                	push   $0x1
  1020b9:	68 25 01 00 00       	push   $0x125
  1020be:	68 a2 67 10 00       	push   $0x1067a2
  1020c3:	e8 da e3 ff ff       	call   1004a2 <dprintf_internal>
  1020c8:	83 c4 10             	add    $0x10,%esp
  1020cb:	90                   	nop
  1020cc:	eb fd                	jmp    1020cb <mem_init+0x388>

001020ce <hal_init>:
  1020ce:	55                   	push   %ebp
  1020cf:	89 e5                	mov    %esp,%ebp
  1020d1:	83 ec 08             	sub    $0x8,%esp
  1020d4:	e8 44 0c 00 00       	call   102d1d <serial_initialize>
  1020d9:	83 ec 0c             	sub    $0xc,%esp
  1020dc:	68 f6 2d 10 00       	push   $0x102df6
  1020e1:	e8 3c e5 ff ff       	call   100622 <debug_setOutput>
  1020e6:	83 c4 10             	add    $0x10,%esp
  1020e9:	e8 c2 00 00 00       	call   1021b0 <arch_say_hello>
  1020ee:	e8 25 f6 ff ff       	call   101718 <hal_initializeInterrupts>
  1020f3:	e8 ff 08 00 00       	call   1029f7 <clock_initialize>
  1020f8:	e8 20 0e 00 00       	call   102f1d <pit_initialize>
  1020fd:	90                   	nop
  1020fe:	c9                   	leave  
  1020ff:	c3                   	ret    

00102100 <outportb>:
  102100:	55                   	push   %ebp
  102101:	89 e5                	mov    %esp,%ebp
  102103:	83 ec 08             	sub    $0x8,%esp
  102106:	8b 55 08             	mov    0x8(%ebp),%edx
  102109:	8b 45 0c             	mov    0xc(%ebp),%eax
  10210c:	66 89 55 fc          	mov    %dx,-0x4(%ebp)
  102110:	88 45 f8             	mov    %al,-0x8(%ebp)
  102113:	0f b7 55 fc          	movzwl -0x4(%ebp),%edx
  102117:	0f b6 45 f8          	movzbl -0x8(%ebp),%eax
  10211b:	ee                   	out    %al,(%dx)
  10211c:	90                   	nop
  10211d:	c9                   	leave  
  10211e:	c3                   	ret    

0010211f <outportw>:
  10211f:	55                   	push   %ebp
  102120:	89 e5                	mov    %esp,%ebp
  102122:	83 ec 08             	sub    $0x8,%esp
  102125:	8b 55 08             	mov    0x8(%ebp),%edx
  102128:	8b 45 0c             	mov    0xc(%ebp),%eax
  10212b:	66 89 55 fc          	mov    %dx,-0x4(%ebp)
  10212f:	66 89 45 f8          	mov    %ax,-0x8(%ebp)
  102133:	0f b7 55 fc          	movzwl -0x4(%ebp),%edx
  102137:	0f b7 45 f8          	movzwl -0x8(%ebp),%eax
  10213b:	66 ef                	out    %ax,(%dx)
  10213d:	90                   	nop
  10213e:	c9                   	leave  
  10213f:	c3                   	ret    

00102140 <outportl>:
  102140:	55                   	push   %ebp
  102141:	89 e5                	mov    %esp,%ebp
  102143:	83 ec 04             	sub    $0x4,%esp
  102146:	8b 45 08             	mov    0x8(%ebp),%eax
  102149:	66 89 45 fc          	mov    %ax,-0x4(%ebp)
  10214d:	0f b7 55 fc          	movzwl -0x4(%ebp),%edx
  102151:	8b 45 0c             	mov    0xc(%ebp),%eax
  102154:	ef                   	out    %eax,(%dx)
  102155:	90                   	nop
  102156:	c9                   	leave  
  102157:	c3                   	ret    

00102158 <inportb>:
  102158:	55                   	push   %ebp
  102159:	89 e5                	mov    %esp,%ebp
  10215b:	83 ec 14             	sub    $0x14,%esp
  10215e:	8b 45 08             	mov    0x8(%ebp),%eax
  102161:	66 89 45 ec          	mov    %ax,-0x14(%ebp)
  102165:	0f b7 45 ec          	movzwl -0x14(%ebp),%eax
  102169:	89 c2                	mov    %eax,%edx
  10216b:	ec                   	in     (%dx),%al
  10216c:	88 45 ff             	mov    %al,-0x1(%ebp)
  10216f:	0f b6 45 ff          	movzbl -0x1(%ebp),%eax
  102173:	c9                   	leave  
  102174:	c3                   	ret    

00102175 <inportw>:
  102175:	55                   	push   %ebp
  102176:	89 e5                	mov    %esp,%ebp
  102178:	83 ec 14             	sub    $0x14,%esp
  10217b:	8b 45 08             	mov    0x8(%ebp),%eax
  10217e:	66 89 45 ec          	mov    %ax,-0x14(%ebp)
  102182:	0f b7 45 ec          	movzwl -0x14(%ebp),%eax
  102186:	89 c2                	mov    %eax,%edx
  102188:	66 ed                	in     (%dx),%ax
  10218a:	66 89 45 fe          	mov    %ax,-0x2(%ebp)
  10218e:	0f b7 45 fe          	movzwl -0x2(%ebp),%eax
  102192:	c9                   	leave  
  102193:	c3                   	ret    

00102194 <inportl>:
  102194:	55                   	push   %ebp
  102195:	89 e5                	mov    %esp,%ebp
  102197:	83 ec 14             	sub    $0x14,%esp
  10219a:	8b 45 08             	mov    0x8(%ebp),%eax
  10219d:	66 89 45 ec          	mov    %ax,-0x14(%ebp)
  1021a1:	0f b7 45 ec          	movzwl -0x14(%ebp),%eax
  1021a5:	89 c2                	mov    %eax,%edx
  1021a7:	ed                   	in     (%dx),%eax
  1021a8:	89 45 fc             	mov    %eax,-0x4(%ebp)
  1021ab:	8b 45 fc             	mov    -0x4(%ebp),%eax
  1021ae:	c9                   	leave  
  1021af:	c3                   	ret    

001021b0 <arch_say_hello>:
  1021b0:	55                   	push   %ebp
  1021b1:	89 e5                	mov    %esp,%ebp
  1021b3:	57                   	push   %edi
  1021b4:	56                   	push   %esi
  1021b5:	53                   	push   %ebx
  1021b6:	83 ec 0c             	sub    $0xc,%esp
  1021b9:	a1 10 80 10 00       	mov    0x108010,%eax
  1021be:	83 ec 0c             	sub    $0xc,%esp
  1021c1:	50                   	push   %eax
  1021c2:	68 00 69 10 00       	push   $0x106900
  1021c7:	6a 00                	push   $0x0
  1021c9:	6a 2a                	push   $0x2a
  1021cb:	68 04 69 10 00       	push   $0x106904
  1021d0:	e8 cd e2 ff ff       	call   1004a2 <dprintf_internal>
  1021d5:	83 c4 20             	add    $0x20,%esp
  1021d8:	8b 3d 0c 80 10 00    	mov    0x10800c,%edi
  1021de:	8b 35 14 80 10 00    	mov    0x108014,%esi
  1021e4:	8b 1d 18 80 10 00    	mov    0x108018,%ebx
  1021ea:	8b 0d 2c 60 10 00    	mov    0x10602c,%ecx
  1021f0:	8b 15 28 60 10 00    	mov    0x106028,%edx
  1021f6:	a1 24 60 10 00       	mov    0x106024,%eax
  1021fb:	83 ec 08             	sub    $0x8,%esp
  1021fe:	57                   	push   %edi
  1021ff:	56                   	push   %esi
  102200:	53                   	push   %ebx
  102201:	51                   	push   %ecx
  102202:	52                   	push   %edx
  102203:	50                   	push   %eax
  102204:	68 18 69 10 00       	push   $0x106918
  102209:	6a 00                	push   $0x0
  10220b:	6a 2b                	push   $0x2b
  10220d:	68 04 69 10 00       	push   $0x106904
  102212:	e8 8b e2 ff ff       	call   1004a2 <dprintf_internal>
  102217:	83 c4 30             	add    $0x30,%esp
  10221a:	8b 0d 08 80 10 00    	mov    0x108008,%ecx
  102220:	8b 15 04 80 10 00    	mov    0x108004,%edx
  102226:	a1 1c 80 10 00       	mov    0x10801c,%eax
  10222b:	83 ec 04             	sub    $0x4,%esp
  10222e:	51                   	push   %ecx
  10222f:	52                   	push   %edx
  102230:	50                   	push   %eax
  102231:	68 43 69 10 00       	push   $0x106943
  102236:	6a 00                	push   $0x0
  102238:	6a 33                	push   $0x33
  10223a:	68 04 69 10 00       	push   $0x106904
  10223f:	e8 5e e2 ff ff       	call   1004a2 <dprintf_internal>
  102244:	83 c4 20             	add    $0x20,%esp
  102247:	90                   	nop
  102248:	8d 65 f4             	lea    -0xc(%ebp),%esp
  10224b:	5b                   	pop    %ebx
  10224c:	5e                   	pop    %esi
  10224d:	5f                   	pop    %edi
  10224e:	5d                   	pop    %ebp
  10224f:	c3                   	ret    

00102250 <arch_panic_prepare>:
  102250:	55                   	push   %ebp
  102251:	89 e5                	mov    %esp,%ebp
  102253:	90                   	nop
  102254:	5d                   	pop    %ebp
  102255:	c3                   	ret    

00102256 <arch_panic_finalize>:
  102256:	55                   	push   %ebp
  102257:	89 e5                	mov    %esp,%ebp
  102259:	fa                   	cli    
  10225a:	f4                   	hlt    
  10225b:	90                   	nop
  10225c:	eb fd                	jmp    10225b <arch_panic_finalize+0x5>

0010225e <arch_allocate_structure>:
  10225e:	55                   	push   %ebp
  10225f:	89 e5                	mov    %esp,%ebp
  102261:	83 ec 18             	sub    $0x18,%esp
  102264:	a1 44 80 10 00       	mov    0x108044,%eax
  102269:	89 45 f4             	mov    %eax,-0xc(%ebp)
  10226c:	8b 15 44 80 10 00    	mov    0x108044,%edx
  102272:	8b 45 08             	mov    0x8(%ebp),%eax
  102275:	01 d0                	add    %edx,%eax
  102277:	a3 44 80 10 00       	mov    %eax,0x108044
  10227c:	8b 45 f4             	mov    -0xc(%ebp),%eax
  10227f:	83 ec 04             	sub    $0x4,%esp
  102282:	ff 75 08             	push   0x8(%ebp)
  102285:	6a 00                	push   $0x0
  102287:	50                   	push   %eax
  102288:	e8 4c 24 00 00       	call   1046d9 <memset>
  10228d:	83 c4 10             	add    $0x10,%esp
  102290:	8b 45 f4             	mov    -0xc(%ebp),%eax
  102293:	c9                   	leave  
  102294:	c3                   	ret    

00102295 <arch_relocate_structure>:
  102295:	55                   	push   %ebp
  102296:	89 e5                	mov    %esp,%ebp
  102298:	83 ec 18             	sub    $0x18,%esp
  10229b:	83 ec 0c             	sub    $0xc,%esp
  10229e:	ff 75 0c             	push   0xc(%ebp)
  1022a1:	e8 b8 ff ff ff       	call   10225e <arch_allocate_structure>
  1022a6:	83 c4 10             	add    $0x10,%esp
  1022a9:	89 45 f4             	mov    %eax,-0xc(%ebp)
  1022ac:	8b 55 08             	mov    0x8(%ebp),%edx
  1022af:	8b 45 f4             	mov    -0xc(%ebp),%eax
  1022b2:	83 ec 04             	sub    $0x4,%esp
  1022b5:	ff 75 0c             	push   0xc(%ebp)
  1022b8:	52                   	push   %edx
  1022b9:	50                   	push   %eax
  1022ba:	e8 d9 23 00 00       	call   104698 <memcpy>
  1022bf:	83 c4 10             	add    $0x10,%esp
  1022c2:	8b 45 f4             	mov    -0xc(%ebp),%eax
  1022c5:	c9                   	leave  
  1022c6:	c3                   	ret    

001022c7 <arch_main>:
  1022c7:	55                   	push   %ebp
  1022c8:	89 e5                	mov    %esp,%ebp
  1022ca:	83 ec 18             	sub    $0x18,%esp
  1022cd:	e8 fc fd ff ff       	call   1020ce <hal_init>
  1022d2:	a1 44 80 10 00       	mov    0x108044,%eax
  1022d7:	05 00 10 00 00       	add    $0x1000,%eax
  1022dc:	a3 44 80 10 00       	mov    %eax,0x108044
  1022e1:	a1 44 80 10 00       	mov    0x108044,%eax
  1022e6:	25 00 f0 ff ff       	and    $0xfffff000,%eax
  1022eb:	a3 44 80 10 00       	mov    %eax,0x108044
  1022f0:	c7 45 f4 00 00 00 00 	movl   $0x0,-0xc(%ebp)
  1022f7:	81 7d 0c 02 b0 ad 2b 	cmpl   $0x2badb002,0xc(%ebp)
  1022fe:	75 29                	jne    102329 <arch_main+0x62>
  102300:	68 5e 69 10 00       	push   $0x10695e
  102305:	6a 01                	push   $0x1
  102307:	6a 7a                	push   $0x7a
  102309:	68 04 69 10 00       	push   $0x106904
  10230e:	e8 8f e1 ff ff       	call   1004a2 <dprintf_internal>
  102313:	83 c4 10             	add    $0x10,%esp
  102316:	83 ec 0c             	sub    $0xc,%esp
  102319:	ff 75 08             	push   0x8(%ebp)
  10231c:	e8 2a eb ff ff       	call   100e4b <arch_parse_multiboot1>
  102321:	83 c4 10             	add    $0x10,%esp
  102324:	89 45 f4             	mov    %eax,-0xc(%ebp)
  102327:	eb 4a                	jmp    102373 <arch_main+0xac>
  102329:	81 7d 0c 89 62 d7 36 	cmpl   $0x36d76289,0xc(%ebp)
  102330:	75 2a                	jne    10235c <arch_main+0x95>
  102332:	68 7c 69 10 00       	push   $0x10697c
  102337:	6a 01                	push   $0x1
  102339:	6a 7d                	push   $0x7d
  10233b:	68 04 69 10 00       	push   $0x106904
  102340:	e8 5d e1 ff ff       	call   1004a2 <dprintf_internal>
  102345:	83 c4 10             	add    $0x10,%esp
  102348:	83 ec 08             	sub    $0x8,%esp
  10234b:	68 9a 69 10 00       	push   $0x10699a
  102350:	6a 00                	push   $0x0
  102352:	e8 13 e4 ff ff       	call   10076a <kernel_panic>
  102357:	83 c4 10             	add    $0x10,%esp
  10235a:	eb 17                	jmp    102373 <arch_main+0xac>
  10235c:	83 ec 04             	sub    $0x4,%esp
  10235f:	68 a0 69 10 00       	push   $0x1069a0
  102364:	68 9a 69 10 00       	push   $0x10699a
  102369:	6a 02                	push   $0x2
  10236b:	e8 f1 e2 ff ff       	call   100661 <kernel_panic_extended>
  102370:	83 c4 10             	add    $0x10,%esp
  102373:	8b 45 f4             	mov    -0xc(%ebp),%eax
  102376:	8b 10                	mov    (%eax),%edx
  102378:	8b 45 f4             	mov    -0xc(%ebp),%eax
  10237b:	8b 40 04             	mov    0x4(%eax),%eax
  10237e:	83 ec 08             	sub    $0x8,%esp
  102381:	52                   	push   %edx
  102382:	50                   	push   %eax
  102383:	68 d8 69 10 00       	push   $0x1069d8
  102388:	6a 01                	push   $0x1
  10238a:	68 83 00 00 00       	push   $0x83
  10238f:	68 04 69 10 00       	push   $0x106904
  102394:	e8 09 e1 ff ff       	call   1004a2 <dprintf_internal>
  102399:	83 c4 20             	add    $0x20,%esp
  10239c:	8b 45 f4             	mov    -0xc(%ebp),%eax
  10239f:	8b 40 14             	mov    0x14(%eax),%eax
  1023a2:	83 ec 0c             	sub    $0xc,%esp
  1023a5:	50                   	push   %eax
  1023a6:	68 00 6a 10 00       	push   $0x106a00
  1023ab:	6a 01                	push   $0x1
  1023ad:	68 84 00 00 00       	push   $0x84
  1023b2:	68 04 69 10 00       	push   $0x106904
  1023b7:	e8 e6 e0 ff ff       	call   1004a2 <dprintf_internal>
  1023bc:	83 c4 20             	add    $0x20,%esp
  1023bf:	8b 45 f4             	mov    -0xc(%ebp),%eax
  1023c2:	8b 40 14             	mov    0x14(%eax),%eax
  1023c5:	c1 e0 0a             	shl    $0xa,%eax
  1023c8:	c1 e8 0c             	shr    $0xc,%eax
  1023cb:	83 ec 0c             	sub    $0xc,%esp
  1023ce:	50                   	push   %eax
  1023cf:	e8 8a fe ff ff       	call   10225e <arch_allocate_structure>
  1023d4:	83 c4 10             	add    $0x10,%esp
  1023d7:	89 45 f0             	mov    %eax,-0x10(%ebp)
  1023da:	8b 45 f4             	mov    -0xc(%ebp),%eax
  1023dd:	8b 40 14             	mov    0x14(%eax),%eax
  1023e0:	c1 e0 0a             	shl    $0xa,%eax
  1023e3:	83 ec 08             	sub    $0x8,%esp
  1023e6:	ff 75 f0             	push   -0x10(%ebp)
  1023e9:	50                   	push   %eax
  1023ea:	e8 f2 e4 ff ff       	call   1008e1 <pmm_init>
  1023ef:	83 c4 10             	add    $0x10,%esp
  1023f2:	a1 44 80 10 00       	mov    0x108044,%eax
  1023f7:	83 ec 08             	sub    $0x8,%esp
  1023fa:	50                   	push   %eax
  1023fb:	ff 75 f4             	push   -0xc(%ebp)
  1023fe:	e8 6d ee ff ff       	call   101270 <arch_mark_memory>
  102403:	83 c4 10             	add    $0x10,%esp
  102406:	c7 45 ec e6 de 10 00 	movl   $0x10dee6,-0x14(%ebp)
  10240d:	c7 45 e8 b0 00 10 00 	movl   $0x1000b0,-0x18(%ebp)
  102414:	a1 44 80 10 00       	mov    0x108044,%eax
  102419:	2b 45 ec             	sub    -0x14(%ebp),%eax
  10241c:	c1 e8 0a             	shr    $0xa,%eax
  10241f:	89 c2                	mov    %eax,%edx
  102421:	8b 45 ec             	mov    -0x14(%ebp),%eax
  102424:	2b 45 e8             	sub    -0x18(%ebp),%eax
  102427:	c1 e8 0a             	shr    $0xa,%eax
  10242a:	83 ec 08             	sub    $0x8,%esp
  10242d:	52                   	push   %edx
  10242e:	50                   	push   %eax
  10242f:	68 30 6a 10 00       	push   $0x106a30
  102434:	6a 01                	push   $0x1
  102436:	68 90 00 00 00       	push   $0x90
  10243b:	68 04 69 10 00       	push   $0x106904
  102440:	e8 5d e0 ff ff       	call   1004a2 <dprintf_internal>
  102445:	83 c4 20             	add    $0x20,%esp
  102448:	a1 44 80 10 00       	mov    0x108044,%eax
  10244d:	83 ec 0c             	sub    $0xc,%esp
  102450:	50                   	push   %eax
  102451:	e8 ed f8 ff ff       	call   101d43 <mem_init>
  102456:	83 c4 10             	add    $0x10,%esp
  102459:	90                   	nop
  10245a:	eb fd                	jmp    102459 <arch_main+0x192>

0010245c <is_year_leap>:
  10245c:	55                   	push   %ebp
  10245d:	89 e5                	mov    %esp,%ebp
  10245f:	8b 45 08             	mov    0x8(%ebp),%eax
  102462:	83 e0 03             	and    $0x3,%eax
  102465:	85 c0                	test   %eax,%eax
  102467:	75 50                	jne    1024b9 <is_year_leap+0x5d>
  102469:	8b 4d 08             	mov    0x8(%ebp),%ecx
  10246c:	ba 1f 85 eb 51       	mov    $0x51eb851f,%edx
  102471:	89 c8                	mov    %ecx,%eax
  102473:	f7 ea                	imul   %edx
  102475:	89 d0                	mov    %edx,%eax
  102477:	c1 f8 05             	sar    $0x5,%eax
  10247a:	89 ca                	mov    %ecx,%edx
  10247c:	c1 fa 1f             	sar    $0x1f,%edx
  10247f:	29 d0                	sub    %edx,%eax
  102481:	6b d0 64             	imul   $0x64,%eax,%edx
  102484:	89 c8                	mov    %ecx,%eax
  102486:	29 d0                	sub    %edx,%eax
  102488:	85 c0                	test   %eax,%eax
  10248a:	75 26                	jne    1024b2 <is_year_leap+0x56>
  10248c:	8b 4d 08             	mov    0x8(%ebp),%ecx
  10248f:	ba 1f 85 eb 51       	mov    $0x51eb851f,%edx
  102494:	89 c8                	mov    %ecx,%eax
  102496:	f7 ea                	imul   %edx
  102498:	89 d0                	mov    %edx,%eax
  10249a:	c1 f8 07             	sar    $0x7,%eax
  10249d:	89 ca                	mov    %ecx,%edx
  10249f:	c1 fa 1f             	sar    $0x1f,%edx
  1024a2:	29 d0                	sub    %edx,%eax
  1024a4:	69 d0 90 01 00 00    	imul   $0x190,%eax,%edx
  1024aa:	89 c8                	mov    %ecx,%eax
  1024ac:	29 d0                	sub    %edx,%eax
  1024ae:	85 c0                	test   %eax,%eax
  1024b0:	75 07                	jne    1024b9 <is_year_leap+0x5d>
  1024b2:	b8 01 00 00 00       	mov    $0x1,%eax
  1024b7:	eb 05                	jmp    1024be <is_year_leap+0x62>
  1024b9:	b8 00 00 00 00       	mov    $0x0,%eax
  1024be:	83 e0 01             	and    $0x1,%eax
  1024c1:	5d                   	pop    %ebp
  1024c2:	c3                   	ret    

001024c3 <get_days_in_month>:
  1024c3:	55                   	push   %ebp
  1024c4:	89 e5                	mov    %esp,%ebp
  1024c6:	83 7d 08 0c          	cmpl   $0xc,0x8(%ebp)
  1024ca:	77 79                	ja     102545 <get_days_in_month+0x82>
  1024cc:	8b 45 08             	mov    0x8(%ebp),%eax
  1024cf:	c1 e0 02             	shl    $0x2,%eax
  1024d2:	05 78 6a 10 00       	add    $0x106a78,%eax
  1024d7:	8b 00                	mov    (%eax),%eax
  1024d9:	ff e0                	jmp    *%eax
  1024db:	b8 1f 00 00 00       	mov    $0x1f,%eax
  1024e0:	eb 68                	jmp    10254a <get_days_in_month+0x87>
  1024e2:	ff 75 0c             	push   0xc(%ebp)
  1024e5:	e8 72 ff ff ff       	call   10245c <is_year_leap>
  1024ea:	83 c4 04             	add    $0x4,%esp
  1024ed:	84 c0                	test   %al,%al
  1024ef:	74 07                	je     1024f8 <get_days_in_month+0x35>
  1024f1:	b8 1d 00 00 00       	mov    $0x1d,%eax
  1024f6:	eb 52                	jmp    10254a <get_days_in_month+0x87>
  1024f8:	b8 1c 00 00 00       	mov    $0x1c,%eax
  1024fd:	eb 4b                	jmp    10254a <get_days_in_month+0x87>
  1024ff:	b8 1f 00 00 00       	mov    $0x1f,%eax
  102504:	eb 44                	jmp    10254a <get_days_in_month+0x87>
  102506:	b8 1e 00 00 00       	mov    $0x1e,%eax
  10250b:	eb 3d                	jmp    10254a <get_days_in_month+0x87>
  10250d:	b8 1f 00 00 00       	mov    $0x1f,%eax
  102512:	eb 36                	jmp    10254a <get_days_in_month+0x87>
  102514:	b8 1e 00 00 00       	mov    $0x1e,%eax
  102519:	eb 2f                	jmp    10254a <get_days_in_month+0x87>
  10251b:	b8 1f 00 00 00       	mov    $0x1f,%eax
  102520:	eb 28                	jmp    10254a <get_days_in_month+0x87>
  102522:	b8 1f 00 00 00       	mov    $0x1f,%eax
  102527:	eb 21                	jmp    10254a <get_days_in_month+0x87>
  102529:	b8 1e 00 00 00       	mov    $0x1e,%eax
  10252e:	eb 1a                	jmp    10254a <get_days_in_month+0x87>
  102530:	b8 1f 00 00 00       	mov    $0x1f,%eax
  102535:	eb 13                	jmp    10254a <get_days_in_month+0x87>
  102537:	b8 1e 00 00 00       	mov    $0x1e,%eax
  10253c:	eb 0c                	jmp    10254a <get_days_in_month+0x87>
  10253e:	b8 1f 00 00 00       	mov    $0x1f,%eax
  102543:	eb 05                	jmp    10254a <get_days_in_month+0x87>
  102545:	b8 00 00 00 00       	mov    $0x0,%eax
  10254a:	c9                   	leave  
  10254b:	c3                   	ret    

0010254c <years_to_seconds>:
  10254c:	55                   	push   %ebp
  10254d:	89 e5                	mov    %esp,%ebp
  10254f:	83 ec 10             	sub    $0x10,%esp
  102552:	c7 45 f8 00 00 00 00 	movl   $0x0,-0x8(%ebp)
  102559:	c7 45 fc 00 00 00 00 	movl   $0x0,-0x4(%ebp)
  102560:	81 7d 08 cf 07 00 00 	cmpl   $0x7cf,0x8(%ebp)
  102567:	7f 2f                	jg     102598 <years_to_seconds+0x4c>
  102569:	81 45 08 d0 07 00 00 	addl   $0x7d0,0x8(%ebp)
  102570:	eb 26                	jmp    102598 <years_to_seconds+0x4c>
  102572:	81 45 f8 6d 01 00 00 	addl   $0x16d,-0x8(%ebp)
  102579:	83 55 fc 00          	adcl   $0x0,-0x4(%ebp)
  10257d:	ff 75 08             	push   0x8(%ebp)
  102580:	e8 d7 fe ff ff       	call   10245c <is_year_leap>
  102585:	83 c4 04             	add    $0x4,%esp
  102588:	84 c0                	test   %al,%al
  10258a:	74 08                	je     102594 <years_to_seconds+0x48>
  10258c:	83 45 f8 01          	addl   $0x1,-0x8(%ebp)
  102590:	83 55 fc 00          	adcl   $0x0,-0x4(%ebp)
  102594:	83 6d 08 01          	subl   $0x1,0x8(%ebp)
  102598:	81 7d 08 b1 07 00 00 	cmpl   $0x7b1,0x8(%ebp)
  10259f:	7f d1                	jg     102572 <years_to_seconds+0x26>
  1025a1:	8b 45 fc             	mov    -0x4(%ebp),%eax
  1025a4:	69 d0 80 51 01 00    	imul   $0x15180,%eax,%edx
  1025aa:	8b 45 f8             	mov    -0x8(%ebp),%eax
  1025ad:	6b c0 00             	imul   $0x0,%eax,%eax
  1025b0:	8d 0c 02             	lea    (%edx,%eax,1),%ecx
  1025b3:	8b 45 f8             	mov    -0x8(%ebp),%eax
  1025b6:	ba 80 51 01 00       	mov    $0x15180,%edx
  1025bb:	f7 e2                	mul    %edx
  1025bd:	01 d1                	add    %edx,%ecx
  1025bf:	89 ca                	mov    %ecx,%edx
  1025c1:	c9                   	leave  
  1025c2:	c3                   	ret    

001025c3 <months_to_seconds>:
  1025c3:	55                   	push   %ebp
  1025c4:	89 e5                	mov    %esp,%ebp
  1025c6:	83 ec 10             	sub    $0x10,%esp
  1025c9:	81 7d 0c cf 07 00 00 	cmpl   $0x7cf,0xc(%ebp)
  1025d0:	7f 07                	jg     1025d9 <months_to_seconds+0x16>
  1025d2:	81 45 0c d0 07 00 00 	addl   $0x7d0,0xc(%ebp)
  1025d9:	c7 45 fc 00 00 00 00 	movl   $0x0,-0x4(%ebp)
  1025e0:	c7 45 f8 01 00 00 00 	movl   $0x1,-0x8(%ebp)
  1025e7:	eb 15                	jmp    1025fe <months_to_seconds+0x3b>
  1025e9:	ff 75 0c             	push   0xc(%ebp)
  1025ec:	ff 75 f8             	push   -0x8(%ebp)
  1025ef:	e8 cf fe ff ff       	call   1024c3 <get_days_in_month>
  1025f4:	83 c4 08             	add    $0x8,%esp
  1025f7:	01 45 fc             	add    %eax,-0x4(%ebp)
  1025fa:	83 45 f8 01          	addl   $0x1,-0x8(%ebp)
  1025fe:	8b 45 f8             	mov    -0x8(%ebp),%eax
  102601:	3b 45 08             	cmp    0x8(%ebp),%eax
  102604:	7c e3                	jl     1025e9 <months_to_seconds+0x26>
  102606:	8b 45 fc             	mov    -0x4(%ebp),%eax
  102609:	69 c0 80 51 01 00    	imul   $0x15180,%eax,%eax
  10260f:	99                   	cltd   
  102610:	c9                   	leave  
  102611:	c3                   	ret    

00102612 <clock_isCMOSUpdateInProgress>:
  102612:	55                   	push   %ebp
  102613:	89 e5                	mov    %esp,%ebp
  102615:	83 ec 08             	sub    $0x8,%esp
  102618:	83 ec 08             	sub    $0x8,%esp
  10261b:	6a 0a                	push   $0xa
  10261d:	6a 70                	push   $0x70
  10261f:	e8 dc fa ff ff       	call   102100 <outportb>
  102624:	83 c4 10             	add    $0x10,%esp
  102627:	83 ec 0c             	sub    $0xc,%esp
  10262a:	6a 71                	push   $0x71
  10262c:	e8 27 fb ff ff       	call   102158 <inportb>
  102631:	83 c4 10             	add    $0x10,%esp
  102634:	0f b6 c0             	movzbl %al,%eax
  102637:	25 80 00 00 00       	and    $0x80,%eax
  10263c:	c9                   	leave  
  10263d:	c3                   	ret    

0010263e <clock_dumpCMOS>:
  10263e:	55                   	push   %ebp
  10263f:	89 e5                	mov    %esp,%ebp
  102641:	83 ec 18             	sub    $0x18,%esp
  102644:	66 c7 45 f6 00 00    	movw   $0x0,-0xa(%ebp)
  10264a:	eb 3f                	jmp    10268b <clock_dumpCMOS+0x4d>
  10264c:	0f b7 45 f6          	movzwl -0xa(%ebp),%eax
  102650:	0f b6 c0             	movzbl %al,%eax
  102653:	83 ec 08             	sub    $0x8,%esp
  102656:	50                   	push   %eax
  102657:	6a 70                	push   $0x70
  102659:	e8 a2 fa ff ff       	call   102100 <outportb>
  10265e:	83 c4 10             	add    $0x10,%esp
  102661:	83 ec 0c             	sub    $0xc,%esp
  102664:	6a 71                	push   $0x71
  102666:	e8 ed fa ff ff       	call   102158 <inportb>
  10266b:	83 c4 10             	add    $0x10,%esp
  10266e:	0f b7 55 f6          	movzwl -0xa(%ebp),%edx
  102672:	8d 0c 12             	lea    (%edx,%edx,1),%ecx
  102675:	8b 55 08             	mov    0x8(%ebp),%edx
  102678:	01 ca                	add    %ecx,%edx
  10267a:	0f b6 c0             	movzbl %al,%eax
  10267d:	66 89 02             	mov    %ax,(%edx)
  102680:	0f b7 45 f6          	movzwl -0xa(%ebp),%eax
  102684:	83 c0 01             	add    $0x1,%eax
  102687:	66 89 45 f6          	mov    %ax,-0xa(%ebp)
  10268b:	66 83 7d f6 7f       	cmpw   $0x7f,-0xa(%ebp)
  102690:	76 ba                	jbe    10264c <clock_dumpCMOS+0xe>
  102692:	90                   	nop
  102693:	90                   	nop
  102694:	c9                   	leave  
  102695:	c3                   	ret    

00102696 <clock_convertCMOSToUnix>:
  102696:	55                   	push   %ebp
  102697:	89 e5                	mov    %esp,%ebp
  102699:	57                   	push   %edi
  10269a:	56                   	push   %esi
  10269b:	53                   	push   %ebx
  10269c:	81 ec 1c 02 00 00    	sub    $0x21c,%esp
  1026a2:	90                   	nop
  1026a3:	e8 6a ff ff ff       	call   102612 <clock_isCMOSUpdateInProgress>
  1026a8:	85 c0                	test   %eax,%eax
  1026aa:	75 f7                	jne    1026a3 <clock_convertCMOSToUnix+0xd>
  1026ac:	83 ec 0c             	sub    $0xc,%esp
  1026af:	8d 85 e0 fe ff ff    	lea    -0x120(%ebp),%eax
  1026b5:	50                   	push   %eax
  1026b6:	e8 83 ff ff ff       	call   10263e <clock_dumpCMOS>
  1026bb:	83 c4 10             	add    $0x10,%esp
  1026be:	83 ec 04             	sub    $0x4,%esp
  1026c1:	68 80 00 00 00       	push   $0x80
  1026c6:	8d 85 e0 fe ff ff    	lea    -0x120(%ebp),%eax
  1026cc:	50                   	push   %eax
  1026cd:	8d 85 e0 fd ff ff    	lea    -0x220(%ebp),%eax
  1026d3:	50                   	push   %eax
  1026d4:	e8 bf 1f 00 00       	call   104698 <memcpy>
  1026d9:	83 c4 10             	add    $0x10,%esp
  1026dc:	90                   	nop
  1026dd:	e8 30 ff ff ff       	call   102612 <clock_isCMOSUpdateInProgress>
  1026e2:	85 c0                	test   %eax,%eax
  1026e4:	75 f7                	jne    1026dd <clock_convertCMOSToUnix+0x47>
  1026e6:	83 ec 0c             	sub    $0xc,%esp
  1026e9:	8d 85 e0 fe ff ff    	lea    -0x120(%ebp),%eax
  1026ef:	50                   	push   %eax
  1026f0:	e8 49 ff ff ff       	call   10263e <clock_dumpCMOS>
  1026f5:	83 c4 10             	add    $0x10,%esp
  1026f8:	0f b7 95 e0 fd ff ff 	movzwl -0x220(%ebp),%edx
  1026ff:	0f b7 85 e0 fe ff ff 	movzwl -0x120(%ebp),%eax
  102706:	66 39 c2             	cmp    %ax,%dx
  102709:	75 b3                	jne    1026be <clock_convertCMOSToUnix+0x28>
  10270b:	0f b7 95 e4 fd ff ff 	movzwl -0x21c(%ebp),%edx
  102712:	0f b7 85 e4 fe ff ff 	movzwl -0x11c(%ebp),%eax
  102719:	66 39 c2             	cmp    %ax,%dx
  10271c:	75 a0                	jne    1026be <clock_convertCMOSToUnix+0x28>
  10271e:	0f b7 95 e8 fd ff ff 	movzwl -0x218(%ebp),%edx
  102725:	0f b7 85 e8 fe ff ff 	movzwl -0x118(%ebp),%eax
  10272c:	66 39 c2             	cmp    %ax,%dx
  10272f:	75 8d                	jne    1026be <clock_convertCMOSToUnix+0x28>
  102731:	0f b7 95 ee fd ff ff 	movzwl -0x212(%ebp),%edx
  102738:	0f b7 85 ee fe ff ff 	movzwl -0x112(%ebp),%eax
  10273f:	66 39 c2             	cmp    %ax,%dx
  102742:	0f 85 76 ff ff ff    	jne    1026be <clock_convertCMOSToUnix+0x28>
  102748:	0f b7 95 f0 fd ff ff 	movzwl -0x210(%ebp),%edx
  10274f:	0f b7 85 f0 fe ff ff 	movzwl -0x110(%ebp),%eax
  102756:	66 39 c2             	cmp    %ax,%dx
  102759:	0f 85 5f ff ff ff    	jne    1026be <clock_convertCMOSToUnix+0x28>
  10275f:	0f b7 95 f2 fd ff ff 	movzwl -0x20e(%ebp),%edx
  102766:	0f b7 85 f2 fe ff ff 	movzwl -0x10e(%ebp),%eax
  10276d:	66 39 c2             	cmp    %ax,%dx
  102770:	0f 85 48 ff ff ff    	jne    1026be <clock_convertCMOSToUnix+0x28>
  102776:	0f b7 85 f2 fe ff ff 	movzwl -0x10e(%ebp),%eax
  10277d:	66 c1 e8 04          	shr    $0x4,%ax
  102781:	0f b7 d0             	movzwl %ax,%edx
  102784:	89 d0                	mov    %edx,%eax
  102786:	c1 e0 02             	shl    $0x2,%eax
  102789:	01 d0                	add    %edx,%eax
  10278b:	01 c0                	add    %eax,%eax
  10278d:	89 c2                	mov    %eax,%edx
  10278f:	0f b7 85 f2 fe ff ff 	movzwl -0x10e(%ebp),%eax
  102796:	0f b7 c0             	movzwl %ax,%eax
  102799:	83 e0 0f             	and    $0xf,%eax
  10279c:	01 d0                	add    %edx,%eax
  10279e:	83 e8 01             	sub    $0x1,%eax
  1027a1:	83 ec 0c             	sub    $0xc,%esp
  1027a4:	50                   	push   %eax
  1027a5:	e8 a2 fd ff ff       	call   10254c <years_to_seconds>
  1027aa:	83 c4 10             	add    $0x10,%esp
  1027ad:	89 c6                	mov    %eax,%esi
  1027af:	89 d7                	mov    %edx,%edi
  1027b1:	0f b7 85 f2 fe ff ff 	movzwl -0x10e(%ebp),%eax
  1027b8:	66 c1 e8 04          	shr    $0x4,%ax
  1027bc:	0f b7 d0             	movzwl %ax,%edx
  1027bf:	89 d0                	mov    %edx,%eax
  1027c1:	c1 e0 02             	shl    $0x2,%eax
  1027c4:	01 d0                	add    %edx,%eax
  1027c6:	01 c0                	add    %eax,%eax
  1027c8:	89 c2                	mov    %eax,%edx
  1027ca:	0f b7 85 f2 fe ff ff 	movzwl -0x10e(%ebp),%eax
  1027d1:	0f b7 c0             	movzwl %ax,%eax
  1027d4:	83 e0 0f             	and    $0xf,%eax
  1027d7:	8d 0c 02             	lea    (%edx,%eax,1),%ecx
  1027da:	0f b7 85 f0 fe ff ff 	movzwl -0x110(%ebp),%eax
  1027e1:	66 c1 e8 04          	shr    $0x4,%ax
  1027e5:	0f b7 d0             	movzwl %ax,%edx
  1027e8:	89 d0                	mov    %edx,%eax
  1027ea:	c1 e0 02             	shl    $0x2,%eax
  1027ed:	01 d0                	add    %edx,%eax
  1027ef:	01 c0                	add    %eax,%eax
  1027f1:	89 c2                	mov    %eax,%edx
  1027f3:	0f b7 85 f0 fe ff ff 	movzwl -0x110(%ebp),%eax
  1027fa:	0f b7 c0             	movzwl %ax,%eax
  1027fd:	83 e0 0f             	and    $0xf,%eax
  102800:	01 d0                	add    %edx,%eax
  102802:	83 ec 08             	sub    $0x8,%esp
  102805:	51                   	push   %ecx
  102806:	50                   	push   %eax
  102807:	e8 b7 fd ff ff       	call   1025c3 <months_to_seconds>
  10280c:	83 c4 10             	add    $0x10,%esp
  10280f:	01 c6                	add    %eax,%esi
  102811:	11 d7                	adc    %edx,%edi
  102813:	89 f1                	mov    %esi,%ecx
  102815:	89 fb                	mov    %edi,%ebx
  102817:	0f b7 85 ee fe ff ff 	movzwl -0x112(%ebp),%eax
  10281e:	66 c1 e8 04          	shr    $0x4,%ax
  102822:	0f b7 d0             	movzwl %ax,%edx
  102825:	89 d0                	mov    %edx,%eax
  102827:	c1 e0 02             	shl    $0x2,%eax
  10282a:	01 d0                	add    %edx,%eax
  10282c:	01 c0                	add    %eax,%eax
  10282e:	89 c2                	mov    %eax,%edx
  102830:	0f b7 85 ee fe ff ff 	movzwl -0x112(%ebp),%eax
  102837:	0f b7 c0             	movzwl %ax,%eax
  10283a:	83 e0 0f             	and    $0xf,%eax
  10283d:	01 d0                	add    %edx,%eax
  10283f:	83 e8 01             	sub    $0x1,%eax
  102842:	69 c0 80 51 01 00    	imul   $0x15180,%eax,%eax
  102848:	99                   	cltd   
  102849:	01 c1                	add    %eax,%ecx
  10284b:	11 d3                	adc    %edx,%ebx
  10284d:	0f b7 85 e8 fe ff ff 	movzwl -0x118(%ebp),%eax
  102854:	66 c1 e8 04          	shr    $0x4,%ax
  102858:	0f b7 d0             	movzwl %ax,%edx
  10285b:	89 d0                	mov    %edx,%eax
  10285d:	c1 e0 02             	shl    $0x2,%eax
  102860:	01 d0                	add    %edx,%eax
  102862:	01 c0                	add    %eax,%eax
  102864:	89 c2                	mov    %eax,%edx
  102866:	0f b7 85 e8 fe ff ff 	movzwl -0x118(%ebp),%eax
  10286d:	0f b7 c0             	movzwl %ax,%eax
  102870:	83 e0 0f             	and    $0xf,%eax
  102873:	01 d0                	add    %edx,%eax
  102875:	69 c0 10 0e 00 00    	imul   $0xe10,%eax,%eax
  10287b:	99                   	cltd   
  10287c:	01 c1                	add    %eax,%ecx
  10287e:	11 d3                	adc    %edx,%ebx
  102880:	0f b7 85 e4 fe ff ff 	movzwl -0x11c(%ebp),%eax
  102887:	66 c1 e8 04          	shr    $0x4,%ax
  10288b:	0f b7 d0             	movzwl %ax,%edx
  10288e:	89 d0                	mov    %edx,%eax
  102890:	c1 e0 02             	shl    $0x2,%eax
  102893:	01 d0                	add    %edx,%eax
  102895:	01 c0                	add    %eax,%eax
  102897:	89 c2                	mov    %eax,%edx
  102899:	0f b7 85 e4 fe ff ff 	movzwl -0x11c(%ebp),%eax
  1028a0:	0f b7 c0             	movzwl %ax,%eax
  1028a3:	83 e0 0f             	and    $0xf,%eax
  1028a6:	01 d0                	add    %edx,%eax
  1028a8:	6b c0 3c             	imul   $0x3c,%eax,%eax
  1028ab:	99                   	cltd   
  1028ac:	01 c1                	add    %eax,%ecx
  1028ae:	11 d3                	adc    %edx,%ebx
  1028b0:	0f b7 85 e0 fe ff ff 	movzwl -0x120(%ebp),%eax
  1028b7:	66 c1 e8 04          	shr    $0x4,%ax
  1028bb:	0f b7 d0             	movzwl %ax,%edx
  1028be:	89 d0                	mov    %edx,%eax
  1028c0:	c1 e0 02             	shl    $0x2,%eax
  1028c3:	01 d0                	add    %edx,%eax
  1028c5:	01 c0                	add    %eax,%eax
  1028c7:	89 c2                	mov    %eax,%edx
  1028c9:	0f b7 85 e0 fe ff ff 	movzwl -0x120(%ebp),%eax
  1028d0:	0f b7 c0             	movzwl %ax,%eax
  1028d3:	83 e0 0f             	and    $0xf,%eax
  1028d6:	01 d0                	add    %edx,%eax
  1028d8:	99                   	cltd   
  1028d9:	01 c8                	add    %ecx,%eax
  1028db:	11 da                	adc    %ebx,%edx
  1028dd:	89 45 e0             	mov    %eax,-0x20(%ebp)
  1028e0:	89 55 e4             	mov    %edx,-0x1c(%ebp)
  1028e3:	8b 45 e0             	mov    -0x20(%ebp),%eax
  1028e6:	8b 55 e4             	mov    -0x1c(%ebp),%edx
  1028e9:	8d 65 f4             	lea    -0xc(%ebp),%esp
  1028ec:	5b                   	pop    %ebx
  1028ed:	5e                   	pop    %esi
  1028ee:	5f                   	pop    %edi
  1028ef:	5d                   	pop    %ebp
  1028f0:	c3                   	ret    

001028f1 <clock_readTSC>:
  1028f1:	55                   	push   %ebp
  1028f2:	89 e5                	mov    %esp,%ebp
  1028f4:	53                   	push   %ebx
  1028f5:	83 ec 14             	sub    $0x14,%esp
  1028f8:	0f 31                	rdtsc  
  1028fa:	89 45 f4             	mov    %eax,-0xc(%ebp)
  1028fd:	89 55 f0             	mov    %edx,-0x10(%ebp)
  102900:	8b 45 f0             	mov    -0x10(%ebp),%eax
  102903:	ba 00 00 00 00       	mov    $0x0,%edx
  102908:	89 c2                	mov    %eax,%edx
  10290a:	31 c0                	xor    %eax,%eax
  10290c:	8b 4d f4             	mov    -0xc(%ebp),%ecx
  10290f:	bb 00 00 00 00       	mov    $0x0,%ebx
  102914:	09 c8                	or     %ecx,%eax
  102916:	09 da                	or     %ebx,%edx
  102918:	8b 5d fc             	mov    -0x4(%ebp),%ebx
  10291b:	c9                   	leave  
  10291c:	c3                   	ret    

0010291d <clock_getTSCSpeed>:
  10291d:	55                   	push   %ebp
  10291e:	89 e5                	mov    %esp,%ebp
  102920:	a1 78 9e 10 00       	mov    0x109e78,%eax
  102925:	8b 15 7c 9e 10 00    	mov    0x109e7c,%edx
  10292b:	5d                   	pop    %ebp
  10292c:	c3                   	ret    

0010292d <clock_readTicks>:
  10292d:	55                   	push   %ebp
  10292e:	89 e5                	mov    %esp,%ebp
  102930:	57                   	push   %edi
  102931:	56                   	push   %esi
  102932:	e8 ba ff ff ff       	call   1028f1 <clock_readTSC>
  102937:	89 c6                	mov    %eax,%esi
  102939:	89 d7                	mov    %edx,%edi
  10293b:	e8 dd ff ff ff       	call   10291d <clock_getTSCSpeed>
  102940:	ba 00 00 00 00       	mov    $0x0,%edx
  102945:	52                   	push   %edx
  102946:	50                   	push   %eax
  102947:	57                   	push   %edi
  102948:	56                   	push   %esi
  102949:	e8 c2 2c 00 00       	call   105610 <__udivdi3>
  10294e:	83 c4 10             	add    $0x10,%esp
  102951:	8d 65 f8             	lea    -0x8(%ebp),%esp
  102954:	5e                   	pop    %esi
  102955:	5f                   	pop    %edi
  102956:	5d                   	pop    %ebp
  102957:	c3                   	ret    

00102958 <clock_getTickCounts>:
  102958:	55                   	push   %ebp
  102959:	89 e5                	mov    %esp,%ebp
  10295b:	53                   	push   %ebx
  10295c:	83 ec 14             	sub    $0x14,%esp
  10295f:	8b 45 08             	mov    0x8(%ebp),%eax
  102962:	89 45 f0             	mov    %eax,-0x10(%ebp)
  102965:	8b 45 0c             	mov    0xc(%ebp),%eax
  102968:	89 45 f4             	mov    %eax,-0xc(%ebp)
  10296b:	8b 0d 70 9e 10 00    	mov    0x109e70,%ecx
  102971:	8b 1d 74 9e 10 00    	mov    0x109e74,%ebx
  102977:	8b 45 f0             	mov    -0x10(%ebp),%eax
  10297a:	8b 55 f4             	mov    -0xc(%ebp),%edx
  10297d:	29 c8                	sub    %ecx,%eax
  10297f:	19 da                	sbb    %ebx,%edx
  102981:	8b 4d 14             	mov    0x14(%ebp),%ecx
  102984:	89 01                	mov    %eax,(%ecx)
  102986:	89 51 04             	mov    %edx,0x4(%ecx)
  102989:	8b 45 14             	mov    0x14(%ebp),%eax
  10298c:	8b 50 04             	mov    0x4(%eax),%edx
  10298f:	8b 00                	mov    (%eax),%eax
  102991:	6a 00                	push   $0x0
  102993:	68 40 42 0f 00       	push   $0xf4240
  102998:	52                   	push   %edx
  102999:	50                   	push   %eax
  10299a:	e8 71 2c 00 00       	call   105610 <__udivdi3>
  10299f:	83 c4 10             	add    $0x10,%esp
  1029a2:	8b 4d 10             	mov    0x10(%ebp),%ecx
  1029a5:	89 01                	mov    %eax,(%ecx)
  1029a7:	89 51 04             	mov    %edx,0x4(%ecx)
  1029aa:	8b 45 14             	mov    0x14(%ebp),%eax
  1029ad:	8b 50 04             	mov    0x4(%eax),%edx
  1029b0:	8b 00                	mov    (%eax),%eax
  1029b2:	6a 00                	push   $0x0
  1029b4:	68 40 42 0f 00       	push   $0xf4240
  1029b9:	52                   	push   %edx
  1029ba:	50                   	push   %eax
  1029bb:	e8 70 2d 00 00       	call   105730 <__umoddi3>
  1029c0:	83 c4 10             	add    $0x10,%esp
  1029c3:	8b 4d 14             	mov    0x14(%ebp),%ecx
  1029c6:	89 01                	mov    %eax,(%ecx)
  1029c8:	89 51 04             	mov    %edx,0x4(%ecx)
  1029cb:	90                   	nop
  1029cc:	8b 5d fc             	mov    -0x4(%ebp),%ebx
  1029cf:	c9                   	leave  
  1029d0:	c3                   	ret    

001029d1 <clock_setBoottime>:
  1029d1:	55                   	push   %ebp
  1029d2:	89 e5                	mov    %esp,%ebp
  1029d4:	83 ec 08             	sub    $0x8,%esp
  1029d7:	8b 45 08             	mov    0x8(%ebp),%eax
  1029da:	89 45 f8             	mov    %eax,-0x8(%ebp)
  1029dd:	8b 45 0c             	mov    0xc(%ebp),%eax
  1029e0:	89 45 fc             	mov    %eax,-0x4(%ebp)
  1029e3:	8b 45 f8             	mov    -0x8(%ebp),%eax
  1029e6:	8b 55 fc             	mov    -0x4(%ebp),%edx
  1029e9:	a3 68 9e 10 00       	mov    %eax,0x109e68
  1029ee:	89 15 6c 9e 10 00    	mov    %edx,0x109e6c
  1029f4:	90                   	nop
  1029f5:	c9                   	leave  
  1029f6:	c3                   	ret    

001029f7 <clock_initialize>:
  1029f7:	55                   	push   %ebp
  1029f8:	89 e5                	mov    %esp,%ebp
  1029fa:	53                   	push   %ebx
  1029fb:	83 ec 44             	sub    $0x44,%esp
  1029fe:	e8 93 fc ff ff       	call   102696 <clock_convertCMOSToUnix>
  102a03:	a3 68 9e 10 00       	mov    %eax,0x109e68
  102a08:	89 15 6c 9e 10 00    	mov    %edx,0x109e6c
  102a0e:	e4 61                	in     $0x61,%al
  102a10:	24 dd                	and    $0xdd,%al
  102a12:	0c 01                	or     $0x1,%al
  102a14:	e6 61                	out    %al,$0x61
  102a16:	b0 b2                	mov    $0xb2,%al
  102a18:	e6 43                	out    %al,$0x43
  102a1a:	b0 9b                	mov    $0x9b,%al
  102a1c:	e6 42                	out    %al,$0x42
  102a1e:	e4 60                	in     $0x60,%al
  102a20:	b0 2e                	mov    $0x2e,%al
  102a22:	e6 42                	out    %al,$0x42
  102a24:	e4 61                	in     $0x61,%al
  102a26:	24 de                	and    $0xde,%al
  102a28:	e6 61                	out    %al,$0x61
  102a2a:	0c 01                	or     $0x1,%al
  102a2c:	e6 61                	out    %al,$0x61
  102a2e:	0f 31                	rdtsc  
  102a30:	89 c3                	mov    %eax,%ebx
  102a32:	89 d1                	mov    %edx,%ecx
  102a34:	e4 61                	in     $0x61,%al
  102a36:	24 20                	and    $0x20,%al
  102a38:	74 0a                	je     102a44 <clock_initialize+0x4d>
  102a3a:	e4 61                	in     $0x61,%al
  102a3c:	24 20                	and    $0x20,%al
  102a3e:	75 fa                	jne    102a3a <clock_initialize+0x43>
  102a40:	0f 31                	rdtsc  
  102a42:	eb 08                	jmp    102a4c <clock_initialize+0x55>
  102a44:	e4 61                	in     $0x61,%al
  102a46:	24 20                	and    $0x20,%al
  102a48:	74 fa                	je     102a44 <clock_initialize+0x4d>
  102a4a:	0f 31                	rdtsc  
  102a4c:	89 45 f4             	mov    %eax,-0xc(%ebp)
  102a4f:	89 55 f0             	mov    %edx,-0x10(%ebp)
  102a52:	89 5d ec             	mov    %ebx,-0x14(%ebp)
  102a55:	89 4d e8             	mov    %ecx,-0x18(%ebp)
  102a58:	8b 45 f0             	mov    -0x10(%ebp),%eax
  102a5b:	ba 00 00 00 00       	mov    $0x0,%edx
  102a60:	89 c2                	mov    %eax,%edx
  102a62:	31 c0                	xor    %eax,%eax
  102a64:	8b 4d f4             	mov    -0xc(%ebp),%ecx
  102a67:	bb 00 00 00 00       	mov    $0x0,%ebx
  102a6c:	09 c8                	or     %ecx,%eax
  102a6e:	09 da                	or     %ebx,%edx
  102a70:	89 45 e0             	mov    %eax,-0x20(%ebp)
  102a73:	89 55 e4             	mov    %edx,-0x1c(%ebp)
  102a76:	8b 45 e8             	mov    -0x18(%ebp),%eax
  102a79:	ba 00 00 00 00       	mov    $0x0,%edx
  102a7e:	89 c2                	mov    %eax,%edx
  102a80:	31 c0                	xor    %eax,%eax
  102a82:	8b 4d ec             	mov    -0x14(%ebp),%ecx
  102a85:	bb 00 00 00 00       	mov    $0x0,%ebx
  102a8a:	09 c8                	or     %ecx,%eax
  102a8c:	09 da                	or     %ebx,%edx
  102a8e:	89 45 d8             	mov    %eax,-0x28(%ebp)
  102a91:	89 55 dc             	mov    %edx,-0x24(%ebp)
  102a94:	8b 45 e0             	mov    -0x20(%ebp),%eax
  102a97:	8b 55 e4             	mov    -0x1c(%ebp),%edx
  102a9a:	2b 45 d8             	sub    -0x28(%ebp),%eax
  102a9d:	1b 55 dc             	sbb    -0x24(%ebp),%edx
  102aa0:	6a 00                	push   $0x0
  102aa2:	68 10 27 00 00       	push   $0x2710
  102aa7:	52                   	push   %edx
  102aa8:	50                   	push   %eax
  102aa9:	e8 62 2b 00 00       	call   105610 <__udivdi3>
  102aae:	83 c4 10             	add    $0x10,%esp
  102ab1:	a3 78 9e 10 00       	mov    %eax,0x109e78
  102ab6:	89 15 7c 9e 10 00    	mov    %edx,0x109e7c
  102abc:	a1 78 9e 10 00       	mov    0x109e78,%eax
  102ac1:	8b 15 7c 9e 10 00    	mov    0x109e7c,%edx
  102ac7:	89 c1                	mov    %eax,%ecx
  102ac9:	09 d1                	or     %edx,%ecx
  102acb:	75 2d                	jne    102afa <clock_initialize+0x103>
  102acd:	68 ac 6a 10 00       	push   $0x106aac
  102ad2:	6a 02                	push   $0x2
  102ad4:	68 09 01 00 00       	push   $0x109
  102ad9:	68 e9 6a 10 00       	push   $0x106ae9
  102ade:	e8 bf d9 ff ff       	call   1004a2 <dprintf_internal>
  102ae3:	83 c4 10             	add    $0x10,%esp
  102ae6:	c7 05 78 9e 10 00 d0 	movl   $0x7d0,0x109e78
  102aed:	07 00 00 
  102af0:	c7 05 7c 9e 10 00 00 	movl   $0x0,0x109e7c
  102af7:	00 00 00 
  102afa:	a1 78 9e 10 00       	mov    0x109e78,%eax
  102aff:	8b 15 7c 9e 10 00    	mov    0x109e7c,%edx
  102b05:	52                   	push   %edx
  102b06:	50                   	push   %eax
  102b07:	ff 75 dc             	push   -0x24(%ebp)
  102b0a:	ff 75 d8             	push   -0x28(%ebp)
  102b0d:	e8 fe 2a 00 00       	call   105610 <__udivdi3>
  102b12:	83 c4 10             	add    $0x10,%esp
  102b15:	a3 70 9e 10 00       	mov    %eax,0x109e70
  102b1a:	89 15 74 9e 10 00    	mov    %edx,0x109e74
  102b20:	a1 78 9e 10 00       	mov    0x109e78,%eax
  102b25:	8b 15 7c 9e 10 00    	mov    0x109e7c,%edx
  102b2b:	83 ec 08             	sub    $0x8,%esp
  102b2e:	52                   	push   %edx
  102b2f:	50                   	push   %eax
  102b30:	68 00 6b 10 00       	push   $0x106b00
  102b35:	6a 01                	push   $0x1
  102b37:	68 0f 01 00 00       	push   $0x10f
  102b3c:	68 e9 6a 10 00       	push   $0x106ae9
  102b41:	e8 5c d9 ff ff       	call   1004a2 <dprintf_internal>
  102b46:	83 c4 20             	add    $0x20,%esp
  102b49:	a1 68 9e 10 00       	mov    0x109e68,%eax
  102b4e:	8b 15 6c 9e 10 00    	mov    0x109e6c,%edx
  102b54:	83 ec 08             	sub    $0x8,%esp
  102b57:	52                   	push   %edx
  102b58:	50                   	push   %eax
  102b59:	68 28 6b 10 00       	push   $0x106b28
  102b5e:	6a 01                	push   $0x1
  102b60:	68 10 01 00 00       	push   $0x110
  102b65:	68 e9 6a 10 00       	push   $0x106ae9
  102b6a:	e8 33 d9 ff ff       	call   1004a2 <dprintf_internal>
  102b6f:	83 c4 20             	add    $0x20,%esp
  102b72:	a1 70 9e 10 00       	mov    0x109e70,%eax
  102b77:	8b 15 74 9e 10 00    	mov    0x109e74,%edx
  102b7d:	83 ec 08             	sub    $0x8,%esp
  102b80:	52                   	push   %edx
  102b81:	50                   	push   %eax
  102b82:	68 5a 6b 10 00       	push   $0x106b5a
  102b87:	6a 01                	push   $0x1
  102b89:	68 11 01 00 00       	push   $0x111
  102b8e:	68 e9 6a 10 00       	push   $0x106ae9
  102b93:	e8 0a d9 ff ff       	call   1004a2 <dprintf_internal>
  102b98:	83 c4 20             	add    $0x20,%esp
  102b9b:	a1 68 9e 10 00       	mov    0x109e68,%eax
  102ba0:	8b 15 6c 9e 10 00    	mov    0x109e6c,%edx
  102ba6:	89 45 d0             	mov    %eax,-0x30(%ebp)
  102ba9:	89 55 d4             	mov    %edx,-0x2c(%ebp)
  102bac:	c7 45 c0 2d 29 10 00 	movl   $0x10292d,-0x40(%ebp)
  102bb3:	c7 45 c4 f1 28 10 00 	movl   $0x1028f1,-0x3c(%ebp)
  102bba:	c7 45 c8 58 29 10 00 	movl   $0x102958,-0x38(%ebp)
  102bc1:	c7 45 cc d1 29 10 00 	movl   $0x1029d1,-0x34(%ebp)
  102bc8:	83 ec 08             	sub    $0x8,%esp
  102bcb:	ff 75 d4             	push   -0x2c(%ebp)
  102bce:	ff 75 d0             	push   -0x30(%ebp)
  102bd1:	ff 75 cc             	push   -0x34(%ebp)
  102bd4:	ff 75 c8             	push   -0x38(%ebp)
  102bd7:	ff 75 c4             	push   -0x3c(%ebp)
  102bda:	ff 75 c0             	push   -0x40(%ebp)
  102bdd:	e8 70 d7 ff ff       	call   100352 <clock_setDevice>
  102be2:	83 c4 20             	add    $0x20,%esp
  102be5:	90                   	nop
  102be6:	8b 5d fc             	mov    -0x4(%ebp),%ebx
  102be9:	c9                   	leave  
  102bea:	c3                   	ret    

00102beb <serial_getDefaultCOMPort>:
  102beb:	55                   	push   %ebp
  102bec:	89 e5                	mov    %esp,%ebp
  102bee:	a1 d0 60 10 00       	mov    0x1060d0,%eax
  102bf3:	83 f8 04             	cmp    $0x4,%eax
  102bf6:	74 30                	je     102c28 <serial_getDefaultCOMPort+0x3d>
  102bf8:	83 f8 04             	cmp    $0x4,%eax
  102bfb:	7f 32                	jg     102c2f <serial_getDefaultCOMPort+0x44>
  102bfd:	83 f8 03             	cmp    $0x3,%eax
  102c00:	74 1f                	je     102c21 <serial_getDefaultCOMPort+0x36>
  102c02:	83 f8 03             	cmp    $0x3,%eax
  102c05:	7f 28                	jg     102c2f <serial_getDefaultCOMPort+0x44>
  102c07:	83 f8 01             	cmp    $0x1,%eax
  102c0a:	74 07                	je     102c13 <serial_getDefaultCOMPort+0x28>
  102c0c:	83 f8 02             	cmp    $0x2,%eax
  102c0f:	74 09                	je     102c1a <serial_getDefaultCOMPort+0x2f>
  102c11:	eb 1c                	jmp    102c2f <serial_getDefaultCOMPort+0x44>
  102c13:	b8 f8 03 00 00       	mov    $0x3f8,%eax
  102c18:	eb 1a                	jmp    102c34 <serial_getDefaultCOMPort+0x49>
  102c1a:	b8 f8 02 00 00       	mov    $0x2f8,%eax
  102c1f:	eb 13                	jmp    102c34 <serial_getDefaultCOMPort+0x49>
  102c21:	b8 e8 03 00 00       	mov    $0x3e8,%eax
  102c26:	eb 0c                	jmp    102c34 <serial_getDefaultCOMPort+0x49>
  102c28:	b8 e8 02 00 00       	mov    $0x2e8,%eax
  102c2d:	eb 05                	jmp    102c34 <serial_getDefaultCOMPort+0x49>
  102c2f:	b8 f8 03 00 00       	mov    $0x3f8,%eax
  102c34:	5d                   	pop    %ebp
  102c35:	c3                   	ret    

00102c36 <serial_setBaudRate>:
  102c36:	55                   	push   %ebp
  102c37:	89 e5                	mov    %esp,%ebp
  102c39:	83 ec 28             	sub    $0x28,%esp
  102c3c:	8b 45 08             	mov    0x8(%ebp),%eax
  102c3f:	66 89 45 e4          	mov    %ax,-0x1c(%ebp)
  102c43:	0f b7 4d e4          	movzwl -0x1c(%ebp),%ecx
  102c47:	b8 00 c2 01 00       	mov    $0x1c200,%eax
  102c4c:	99                   	cltd   
  102c4d:	f7 f9                	idiv   %ecx
  102c4f:	89 d0                	mov    %edx,%eax
  102c51:	85 c0                	test   %eax,%eax
  102c53:	74 0a                	je     102c5f <serial_setBaudRate+0x29>
  102c55:	b8 ea ff ff ff       	mov    $0xffffffea,%eax
  102c5a:	e9 bc 00 00 00       	jmp    102d1b <serial_setBaudRate+0xe5>
  102c5f:	0f b7 05 48 80 10 00 	movzwl 0x108048,%eax
  102c66:	83 c0 04             	add    $0x4,%eax
  102c69:	0f b7 c0             	movzwl %ax,%eax
  102c6c:	83 ec 0c             	sub    $0xc,%esp
  102c6f:	50                   	push   %eax
  102c70:	e8 e3 f4 ff ff       	call   102158 <inportb>
  102c75:	83 c4 10             	add    $0x10,%esp
  102c78:	88 45 f7             	mov    %al,-0x9(%ebp)
  102c7b:	0f b6 45 f7          	movzbl -0x9(%ebp),%eax
  102c7f:	83 c8 80             	or     $0xffffff80,%eax
  102c82:	0f b6 d0             	movzbl %al,%edx
  102c85:	0f b7 05 48 80 10 00 	movzwl 0x108048,%eax
  102c8c:	83 c0 04             	add    $0x4,%eax
  102c8f:	0f b7 c0             	movzwl %ax,%eax
  102c92:	83 ec 08             	sub    $0x8,%esp
  102c95:	52                   	push   %edx
  102c96:	50                   	push   %eax
  102c97:	e8 64 f4 ff ff       	call   102100 <outportb>
  102c9c:	83 c4 10             	add    $0x10,%esp
  102c9f:	0f b7 4d e4          	movzwl -0x1c(%ebp),%ecx
  102ca3:	b8 00 c2 01 00       	mov    $0x1c200,%eax
  102ca8:	99                   	cltd   
  102ca9:	f7 f9                	idiv   %ecx
  102cab:	89 45 f0             	mov    %eax,-0x10(%ebp)
  102cae:	8b 45 f0             	mov    -0x10(%ebp),%eax
  102cb1:	0f b6 d0             	movzbl %al,%edx
  102cb4:	0f b7 05 48 80 10 00 	movzwl 0x108048,%eax
  102cbb:	0f b7 c0             	movzwl %ax,%eax
  102cbe:	83 ec 08             	sub    $0x8,%esp
  102cc1:	52                   	push   %edx
  102cc2:	50                   	push   %eax
  102cc3:	e8 38 f4 ff ff       	call   102100 <outportb>
  102cc8:	83 c4 10             	add    $0x10,%esp
  102ccb:	8b 45 f0             	mov    -0x10(%ebp),%eax
  102cce:	c1 e8 08             	shr    $0x8,%eax
  102cd1:	0f b6 d0             	movzbl %al,%edx
  102cd4:	0f b7 05 48 80 10 00 	movzwl 0x108048,%eax
  102cdb:	83 c0 01             	add    $0x1,%eax
  102cde:	0f b7 c0             	movzwl %ax,%eax
  102ce1:	83 ec 08             	sub    $0x8,%esp
  102ce4:	52                   	push   %edx
  102ce5:	50                   	push   %eax
  102ce6:	e8 15 f4 ff ff       	call   102100 <outportb>
  102ceb:	83 c4 10             	add    $0x10,%esp
  102cee:	0f b6 55 f7          	movzbl -0x9(%ebp),%edx
  102cf2:	0f b7 05 48 80 10 00 	movzwl 0x108048,%eax
  102cf9:	83 c0 04             	add    $0x4,%eax
  102cfc:	0f b7 c0             	movzwl %ax,%eax
  102cff:	83 ec 08             	sub    $0x8,%esp
  102d02:	52                   	push   %edx
  102d03:	50                   	push   %eax
  102d04:	e8 f7 f3 ff ff       	call   102100 <outportb>
  102d09:	83 c4 10             	add    $0x10,%esp
  102d0c:	0f b7 45 e4          	movzwl -0x1c(%ebp),%eax
  102d10:	66 a3 4a 80 10 00    	mov    %ax,0x10804a
  102d16:	b8 00 00 00 00       	mov    $0x0,%eax
  102d1b:	c9                   	leave  
  102d1c:	c3                   	ret    

00102d1d <serial_initialize>:
  102d1d:	55                   	push   %ebp
  102d1e:	89 e5                	mov    %esp,%ebp
  102d20:	83 ec 08             	sub    $0x8,%esp
  102d23:	e8 c3 fe ff ff       	call   102beb <serial_getDefaultCOMPort>
  102d28:	66 a3 48 80 10 00    	mov    %ax,0x108048
  102d2e:	0f b7 05 48 80 10 00 	movzwl 0x108048,%eax
  102d35:	83 c0 04             	add    $0x4,%eax
  102d38:	0f b7 c0             	movzwl %ax,%eax
  102d3b:	83 ec 08             	sub    $0x8,%esp
  102d3e:	6a 00                	push   $0x0
  102d40:	50                   	push   %eax
  102d41:	e8 ba f3 ff ff       	call   102100 <outportb>
  102d46:	83 c4 10             	add    $0x10,%esp
  102d49:	0f b7 05 48 80 10 00 	movzwl 0x108048,%eax
  102d50:	83 c0 01             	add    $0x1,%eax
  102d53:	0f b7 c0             	movzwl %ax,%eax
  102d56:	83 ec 08             	sub    $0x8,%esp
  102d59:	6a 00                	push   $0x0
  102d5b:	50                   	push   %eax
  102d5c:	e8 9f f3 ff ff       	call   102100 <outportb>
  102d61:	83 c4 10             	add    $0x10,%esp
  102d64:	0f b7 05 48 80 10 00 	movzwl 0x108048,%eax
  102d6b:	83 c0 05             	add    $0x5,%eax
  102d6e:	0f b7 c0             	movzwl %ax,%eax
  102d71:	83 ec 08             	sub    $0x8,%esp
  102d74:	6a 0b                	push   $0xb
  102d76:	50                   	push   %eax
  102d77:	e8 84 f3 ff ff       	call   102100 <outportb>
  102d7c:	83 c4 10             	add    $0x10,%esp
  102d7f:	a1 d4 60 10 00       	mov    0x1060d4,%eax
  102d84:	0f b7 c0             	movzwl %ax,%eax
  102d87:	83 ec 0c             	sub    $0xc,%esp
  102d8a:	50                   	push   %eax
  102d8b:	e8 a6 fe ff ff       	call   102c36 <serial_setBaudRate>
  102d90:	83 c4 10             	add    $0x10,%esp
  102d93:	0f b7 05 48 80 10 00 	movzwl 0x108048,%eax
  102d9a:	83 c0 04             	add    $0x4,%eax
  102d9d:	0f b7 c0             	movzwl %ax,%eax
  102da0:	83 ec 08             	sub    $0x8,%esp
  102da3:	6a 03                	push   $0x3
  102da5:	50                   	push   %eax
  102da6:	e8 55 f3 ff ff       	call   102100 <outportb>
  102dab:	83 c4 10             	add    $0x10,%esp
  102dae:	0f b7 05 48 80 10 00 	movzwl 0x108048,%eax
  102db5:	83 c0 03             	add    $0x3,%eax
  102db8:	0f b7 c0             	movzwl %ax,%eax
  102dbb:	83 ec 08             	sub    $0x8,%esp
  102dbe:	6a 07                	push   $0x7
  102dc0:	50                   	push   %eax
  102dc1:	e8 3a f3 ff ff       	call   102100 <outportb>
  102dc6:	83 c4 10             	add    $0x10,%esp
  102dc9:	0f b7 05 48 80 10 00 	movzwl 0x108048,%eax
  102dd0:	0f b7 c0             	movzwl %ax,%eax
  102dd3:	83 ec 0c             	sub    $0xc,%esp
  102dd6:	50                   	push   %eax
  102dd7:	e8 7c f3 ff ff       	call   102158 <inportb>
  102ddc:	83 c4 10             	add    $0x10,%esp
  102ddf:	83 ec 0c             	sub    $0xc,%esp
  102de2:	68 f6 2d 10 00       	push   $0x102df6
  102de7:	e8 f5 d5 ff ff       	call   1003e1 <serial_setWriteMethod>
  102dec:	83 c4 10             	add    $0x10,%esp
  102def:	b8 00 00 00 00       	mov    $0x0,%eax
  102df4:	c9                   	leave  
  102df5:	c3                   	ret    

00102df6 <serial_writeCharacter>:
  102df6:	55                   	push   %ebp
  102df7:	89 e5                	mov    %esp,%ebp
  102df9:	83 ec 18             	sub    $0x18,%esp
  102dfc:	8b 45 08             	mov    0x8(%ebp),%eax
  102dff:	88 45 f4             	mov    %al,-0xc(%ebp)
  102e02:	90                   	nop
  102e03:	0f b7 05 48 80 10 00 	movzwl 0x108048,%eax
  102e0a:	83 c0 06             	add    $0x6,%eax
  102e0d:	0f b7 c0             	movzwl %ax,%eax
  102e10:	83 ec 0c             	sub    $0xc,%esp
  102e13:	50                   	push   %eax
  102e14:	e8 3f f3 ff ff       	call   102158 <inportb>
  102e19:	83 c4 10             	add    $0x10,%esp
  102e1c:	0f b6 c0             	movzbl %al,%eax
  102e1f:	83 e0 20             	and    $0x20,%eax
  102e22:	85 c0                	test   %eax,%eax
  102e24:	74 dd                	je     102e03 <serial_writeCharacter+0xd>
  102e26:	0f b6 45 f4          	movzbl -0xc(%ebp),%eax
  102e2a:	0f b6 d0             	movzbl %al,%edx
  102e2d:	0f b7 05 48 80 10 00 	movzwl 0x108048,%eax
  102e34:	0f b7 c0             	movzwl %ax,%eax
  102e37:	83 ec 08             	sub    $0x8,%esp
  102e3a:	52                   	push   %edx
  102e3b:	50                   	push   %eax
  102e3c:	e8 bf f2 ff ff       	call   102100 <outportb>
  102e41:	83 c4 10             	add    $0x10,%esp
  102e44:	b8 00 00 00 00       	mov    $0x0,%eax
  102e49:	c9                   	leave  
  102e4a:	c3                   	ret    

00102e4b <serial_receiveCharacter>:
  102e4b:	55                   	push   %ebp
  102e4c:	89 e5                	mov    %esp,%ebp
  102e4e:	83 ec 08             	sub    $0x8,%esp
  102e51:	90                   	nop
  102e52:	0f b7 05 48 80 10 00 	movzwl 0x108048,%eax
  102e59:	83 c0 06             	add    $0x6,%eax
  102e5c:	0f b7 c0             	movzwl %ax,%eax
  102e5f:	83 ec 0c             	sub    $0xc,%esp
  102e62:	50                   	push   %eax
  102e63:	e8 f0 f2 ff ff       	call   102158 <inportb>
  102e68:	83 c4 10             	add    $0x10,%esp
  102e6b:	0f b6 c0             	movzbl %al,%eax
  102e6e:	83 e0 01             	and    $0x1,%eax
  102e71:	85 c0                	test   %eax,%eax
  102e73:	74 dd                	je     102e52 <serial_receiveCharacter+0x7>
  102e75:	0f b7 05 48 80 10 00 	movzwl 0x108048,%eax
  102e7c:	0f b7 c0             	movzwl %ax,%eax
  102e7f:	83 ec 0c             	sub    $0xc,%esp
  102e82:	50                   	push   %eax
  102e83:	e8 d0 f2 ff ff       	call   102158 <inportb>
  102e88:	83 c4 10             	add    $0x10,%esp
  102e8b:	c9                   	leave  
  102e8c:	c3                   	ret    

00102e8d <pit_setTimerPhase>:
  102e8d:	55                   	push   %ebp
  102e8e:	89 e5                	mov    %esp,%ebp
  102e90:	83 ec 18             	sub    $0x18,%esp
  102e93:	b8 dc 34 12 00       	mov    $0x1234dc,%eax
  102e98:	99                   	cltd   
  102e99:	f7 7d 08             	idivl  0x8(%ebp)
  102e9c:	89 45 f4             	mov    %eax,-0xc(%ebp)
  102e9f:	83 ec 08             	sub    $0x8,%esp
  102ea2:	6a 34                	push   $0x34
  102ea4:	6a 43                	push   $0x43
  102ea6:	e8 55 f2 ff ff       	call   102100 <outportb>
  102eab:	83 c4 10             	add    $0x10,%esp
  102eae:	8b 45 f4             	mov    -0xc(%ebp),%eax
  102eb1:	0f b6 c0             	movzbl %al,%eax
  102eb4:	83 ec 08             	sub    $0x8,%esp
  102eb7:	50                   	push   %eax
  102eb8:	6a 40                	push   $0x40
  102eba:	e8 41 f2 ff ff       	call   102100 <outportb>
  102ebf:	83 c4 10             	add    $0x10,%esp
  102ec2:	8b 45 f4             	mov    -0xc(%ebp),%eax
  102ec5:	c1 f8 08             	sar    $0x8,%eax
  102ec8:	0f b6 c0             	movzbl %al,%eax
  102ecb:	83 ec 08             	sub    $0x8,%esp
  102ece:	50                   	push   %eax
  102ecf:	6a 40                	push   $0x40
  102ed1:	e8 2a f2 ff ff       	call   102100 <outportb>
  102ed6:	83 c4 10             	add    $0x10,%esp
  102ed9:	90                   	nop
  102eda:	c9                   	leave  
  102edb:	c3                   	ret    

00102edc <pit_irqHandler>:
  102edc:	55                   	push   %ebp
  102edd:	89 e5                	mov    %esp,%ebp
  102edf:	83 ec 08             	sub    $0x8,%esp
  102ee2:	a1 80 9e 10 00       	mov    0x109e80,%eax
  102ee7:	8b 15 84 9e 10 00    	mov    0x109e84,%edx
  102eed:	83 c0 01             	add    $0x1,%eax
  102ef0:	83 d2 00             	adc    $0x0,%edx
  102ef3:	a3 80 9e 10 00       	mov    %eax,0x109e80
  102ef8:	89 15 84 9e 10 00    	mov    %edx,0x109e84
  102efe:	a1 80 9e 10 00       	mov    0x109e80,%eax
  102f03:	8b 15 84 9e 10 00    	mov    0x109e84,%edx
  102f09:	83 ec 08             	sub    $0x8,%esp
  102f0c:	52                   	push   %edx
  102f0d:	50                   	push   %eax
  102f0e:	e8 9d d1 ff ff       	call   1000b0 <clock_update>
  102f13:	83 c4 10             	add    $0x10,%esp
  102f16:	b8 00 00 00 00       	mov    $0x0,%eax
  102f1b:	c9                   	leave  
  102f1c:	c3                   	ret    

00102f1d <pit_initialize>:
  102f1d:	55                   	push   %ebp
  102f1e:	89 e5                	mov    %esp,%ebp
  102f20:	83 ec 08             	sub    $0x8,%esp
  102f23:	83 ec 0c             	sub    $0xc,%esp
  102f26:	6a 64                	push   $0x64
  102f28:	e8 60 ff ff ff       	call   102e8d <pit_setTimerPhase>
  102f2d:	83 c4 10             	add    $0x10,%esp
  102f30:	83 ec 08             	sub    $0x8,%esp
  102f33:	68 dc 2e 10 00       	push   $0x102edc
  102f38:	6a 00                	push   $0x0
  102f3a:	e8 60 e6 ff ff       	call   10159f <hal_registerInterruptHandler>
  102f3f:	83 c4 10             	add    $0x10,%esp
  102f42:	68 78 6b 10 00       	push   $0x106b78
  102f47:	6a 01                	push   $0x1
  102f49:	6a 39                	push   $0x39
  102f4b:	68 a1 6b 10 00       	push   $0x106ba1
  102f50:	e8 4d d5 ff ff       	call   1004a2 <dprintf_internal>
  102f55:	83 c4 10             	add    $0x10,%esp
  102f58:	90                   	nop
  102f59:	c9                   	leave  
  102f5a:	c3                   	ret    
  102f5b:	66 90                	xchg   %ax,%ax
  102f5d:	66 90                	xchg   %ax,%ax
  102f5f:	90                   	nop

00102f60 <halCommonExceptionHandler>:
  102f60:	60                   	pusha  
  102f61:	0f a8                	push   %gs
  102f63:	06                   	push   %es
  102f64:	1e                   	push   %ds
  102f65:	0f 20 c0             	mov    %cr0,%eax
  102f68:	50                   	push   %eax
  102f69:	0f 20 d0             	mov    %cr2,%eax
  102f6c:	50                   	push   %eax
  102f6d:	0f 20 d8             	mov    %cr3,%eax
  102f70:	50                   	push   %eax
  102f71:	0f 20 e0             	mov    %cr4,%eax
  102f74:	50                   	push   %eax
  102f75:	83 ec 0c             	sub    $0xc,%esp
  102f78:	0f 01 0c 24          	sidtl  (%esp)
  102f7c:	0f 01 44 24 06       	sgdtl  0x6(%esp)
  102f81:	8d 44 24 1c          	lea    0x1c(%esp),%eax
  102f85:	54                   	push   %esp
  102f86:	50                   	push   %eax
  102f87:	ff 35 22 33 10 00    	push   0x103322
  102f8d:	e8 79 e4 ff ff       	call   10140b <hal_exceptionHandler>
  102f92:	83 c4 0c             	add    $0xc,%esp
  102f95:	83 c4 1c             	add    $0x1c,%esp
  102f98:	59                   	pop    %ecx
  102f99:	8e d9                	mov    %ecx,%ds
  102f9b:	59                   	pop    %ecx
  102f9c:	8e c1                	mov    %ecx,%es
  102f9e:	59                   	pop    %ecx
  102f9f:	8e e9                	mov    %ecx,%gs
  102fa1:	61                   	popa   
  102fa2:	cf                   	iret   

00102fa3 <halCommonIRQHandler>:
  102fa3:	60                   	pusha  
  102fa4:	0f a8                	push   %gs
  102fa6:	06                   	push   %es
  102fa7:	1e                   	push   %ds
  102fa8:	0f 20 c0             	mov    %cr0,%eax
  102fab:	50                   	push   %eax
  102fac:	0f 20 d0             	mov    %cr2,%eax
  102faf:	50                   	push   %eax
  102fb0:	0f 20 d8             	mov    %cr3,%eax
  102fb3:	50                   	push   %eax
  102fb4:	0f 20 e0             	mov    %cr4,%eax
  102fb7:	50                   	push   %eax
  102fb8:	83 ec 0c             	sub    $0xc,%esp
  102fbb:	0f 01 0c 24          	sidtl  (%esp)
  102fbf:	0f 01 44 24 06       	sgdtl  0x6(%esp)
  102fc4:	8d 44 24 1c          	lea    0x1c(%esp),%eax
  102fc8:	54                   	push   %esp
  102fc9:	50                   	push   %eax
  102fca:	ff 35 26 33 10 00    	push   0x103326
  102fd0:	ff 35 22 33 10 00    	push   0x103322
  102fd6:	e8 62 e5 ff ff       	call   10153d <hal_interruptHandler>
  102fdb:	83 c4 10             	add    $0x10,%esp
  102fde:	83 c4 1c             	add    $0x1c,%esp
  102fe1:	59                   	pop    %ecx
  102fe2:	8e d9                	mov    %ecx,%ds
  102fe4:	59                   	pop    %ecx
  102fe5:	8e c1                	mov    %ecx,%es
  102fe7:	59                   	pop    %ecx
  102fe8:	8e e9                	mov    %ecx,%gs
  102fea:	61                   	popa   
  102feb:	cf                   	iret   

00102fec <halDivisionException>:
  102fec:	6a 00                	push   $0x0
  102fee:	c7 05 22 33 10 00 00 	movl   $0x0,0x103322
  102ff5:	00 00 00 
  102ff8:	e9 63 ff ff ff       	jmp    102f60 <halCommonExceptionHandler>

00102ffd <halDebugException>:
  102ffd:	6a 00                	push   $0x0
  102fff:	c7 05 22 33 10 00 01 	movl   $0x1,0x103322
  103006:	00 00 00 
  103009:	e9 52 ff ff ff       	jmp    102f60 <halCommonExceptionHandler>

0010300e <halNMIException>:
  10300e:	6a 00                	push   $0x0
  103010:	c7 05 22 33 10 00 02 	movl   $0x2,0x103322
  103017:	00 00 00 
  10301a:	e9 41 ff ff ff       	jmp    102f60 <halCommonExceptionHandler>

0010301f <halBreakpointException>:
  10301f:	6a 00                	push   $0x0
  103021:	c7 05 22 33 10 00 03 	movl   $0x3,0x103322
  103028:	00 00 00 
  10302b:	e9 30 ff ff ff       	jmp    102f60 <halCommonExceptionHandler>

00103030 <halOverflowException>:
  103030:	6a 00                	push   $0x0
  103032:	c7 05 22 33 10 00 04 	movl   $0x4,0x103322
  103039:	00 00 00 
  10303c:	e9 1f ff ff ff       	jmp    102f60 <halCommonExceptionHandler>

00103041 <halBoundException>:
  103041:	6a 00                	push   $0x0
  103043:	c7 05 22 33 10 00 05 	movl   $0x5,0x103322
  10304a:	00 00 00 
  10304d:	e9 0e ff ff ff       	jmp    102f60 <halCommonExceptionHandler>

00103052 <halInvalidOpcodeException>:
  103052:	6a 00                	push   $0x0
  103054:	c7 05 22 33 10 00 06 	movl   $0x6,0x103322
  10305b:	00 00 00 
  10305e:	e9 fd fe ff ff       	jmp    102f60 <halCommonExceptionHandler>

00103063 <halNoFPUException>:
  103063:	6a 00                	push   $0x0
  103065:	c7 05 22 33 10 00 07 	movl   $0x7,0x103322
  10306c:	00 00 00 
  10306f:	e9 ec fe ff ff       	jmp    102f60 <halCommonExceptionHandler>

00103074 <halDoubleFaultException>:
  103074:	c7 05 22 33 10 00 08 	movl   $0x8,0x103322
  10307b:	00 00 00 
  10307e:	e9 dd fe ff ff       	jmp    102f60 <halCommonExceptionHandler>

00103083 <halCoprocessorSegmentException>:
  103083:	6a 00                	push   $0x0
  103085:	c7 05 22 33 10 00 09 	movl   $0x9,0x103322
  10308c:	00 00 00 
  10308f:	e9 cc fe ff ff       	jmp    102f60 <halCommonExceptionHandler>

00103094 <halInvalidTSSException>:
  103094:	c7 05 22 33 10 00 0a 	movl   $0xa,0x103322
  10309b:	00 00 00 
  10309e:	e9 bd fe ff ff       	jmp    102f60 <halCommonExceptionHandler>

001030a3 <halSegmentNotPresentException>:
  1030a3:	c7 05 22 33 10 00 0b 	movl   $0xb,0x103322
  1030aa:	00 00 00 
  1030ad:	e9 ae fe ff ff       	jmp    102f60 <halCommonExceptionHandler>

001030b2 <halStackSegmentException>:
  1030b2:	c7 05 22 33 10 00 0c 	movl   $0xc,0x103322
  1030b9:	00 00 00 
  1030bc:	e9 9f fe ff ff       	jmp    102f60 <halCommonExceptionHandler>

001030c1 <halGeneralProtectionException>:
  1030c1:	c7 05 22 33 10 00 0d 	movl   $0xd,0x103322
  1030c8:	00 00 00 
  1030cb:	e9 90 fe ff ff       	jmp    102f60 <halCommonExceptionHandler>

001030d0 <halPageFaultException>:
  1030d0:	c7 05 22 33 10 00 0e 	movl   $0xe,0x103322
  1030d7:	00 00 00 
  1030da:	e9 81 fe ff ff       	jmp    102f60 <halCommonExceptionHandler>

001030df <halReservedException>:
  1030df:	6a 00                	push   $0x0
  1030e1:	c7 05 22 33 10 00 0f 	movl   $0xf,0x103322
  1030e8:	00 00 00 
  1030eb:	e9 70 fe ff ff       	jmp    102f60 <halCommonExceptionHandler>

001030f0 <halFloatingPointException>:
  1030f0:	6a 00                	push   $0x0
  1030f2:	c7 05 22 33 10 00 10 	movl   $0x10,0x103322
  1030f9:	00 00 00 
  1030fc:	e9 5f fe ff ff       	jmp    102f60 <halCommonExceptionHandler>

00103101 <halAlignmentCheck>:
  103101:	c7 05 22 33 10 00 11 	movl   $0x11,0x103322
  103108:	00 00 00 
  10310b:	e9 50 fe ff ff       	jmp    102f60 <halCommonExceptionHandler>

00103110 <halMachineCheck>:
  103110:	6a 00                	push   $0x0
  103112:	c7 05 22 33 10 00 12 	movl   $0x12,0x103322
  103119:	00 00 00 
  10311c:	e9 3f fe ff ff       	jmp    102f60 <halCommonExceptionHandler>

00103121 <halSIMDFloatingPointException>:
  103121:	6a 00                	push   $0x0
  103123:	c7 05 22 33 10 00 13 	movl   $0x13,0x103322
  10312a:	00 00 00 
  10312d:	e9 2e fe ff ff       	jmp    102f60 <halCommonExceptionHandler>

00103132 <halVirtualizationException>:
  103132:	6a 00                	push   $0x0
  103134:	c7 05 22 33 10 00 14 	movl   $0x14,0x103322
  10313b:	00 00 00 
  10313e:	e9 1d fe ff ff       	jmp    102f60 <halCommonExceptionHandler>

00103143 <halControlProtectionException>:
  103143:	c7 05 22 33 10 00 15 	movl   $0x15,0x103322
  10314a:	00 00 00 
  10314d:	e9 0e fe ff ff       	jmp    102f60 <halCommonExceptionHandler>

00103152 <halHypervisorInjectionException>:
  103152:	6a 00                	push   $0x0
  103154:	c7 05 22 33 10 00 1c 	movl   $0x1c,0x103322
  10315b:	00 00 00 
  10315e:	e9 fd fd ff ff       	jmp    102f60 <halCommonExceptionHandler>

00103163 <halVMMCommunicationException>:
  103163:	c7 05 22 33 10 00 1d 	movl   $0x1d,0x103322
  10316a:	00 00 00 
  10316d:	e9 ee fd ff ff       	jmp    102f60 <halCommonExceptionHandler>

00103172 <halSecurityException>:
  103172:	c7 05 22 33 10 00 1e 	movl   $0x1e,0x103322
  103179:	00 00 00 
  10317c:	e9 df fd ff ff       	jmp    102f60 <halCommonExceptionHandler>

00103181 <halReserved2Exception>:
  103181:	6a 00                	push   $0x0
  103183:	c7 05 22 33 10 00 1f 	movl   $0x1f,0x103322
  10318a:	00 00 00 
  10318d:	e9 ce fd ff ff       	jmp    102f60 <halCommonExceptionHandler>

00103192 <halIRQ0>:
  103192:	c7 05 22 33 10 00 20 	movl   $0x20,0x103322
  103199:	00 00 00 
  10319c:	c7 05 26 33 10 00 00 	movl   $0x0,0x103326
  1031a3:	00 00 00 
  1031a6:	e9 f8 fd ff ff       	jmp    102fa3 <halCommonIRQHandler>

001031ab <halIRQ1>:
  1031ab:	c7 05 22 33 10 00 21 	movl   $0x21,0x103322
  1031b2:	00 00 00 
  1031b5:	c7 05 26 33 10 00 01 	movl   $0x1,0x103326
  1031bc:	00 00 00 
  1031bf:	e9 df fd ff ff       	jmp    102fa3 <halCommonIRQHandler>

001031c4 <halIRQ2>:
  1031c4:	c7 05 22 33 10 00 22 	movl   $0x22,0x103322
  1031cb:	00 00 00 
  1031ce:	c7 05 26 33 10 00 02 	movl   $0x2,0x103326
  1031d5:	00 00 00 
  1031d8:	e9 c6 fd ff ff       	jmp    102fa3 <halCommonIRQHandler>

001031dd <halIRQ3>:
  1031dd:	c7 05 22 33 10 00 23 	movl   $0x23,0x103322
  1031e4:	00 00 00 
  1031e7:	c7 05 26 33 10 00 03 	movl   $0x3,0x103326
  1031ee:	00 00 00 
  1031f1:	e9 ad fd ff ff       	jmp    102fa3 <halCommonIRQHandler>

001031f6 <halIRQ4>:
  1031f6:	c7 05 22 33 10 00 24 	movl   $0x24,0x103322
  1031fd:	00 00 00 
  103200:	c7 05 26 33 10 00 04 	movl   $0x4,0x103326
  103207:	00 00 00 
  10320a:	e9 94 fd ff ff       	jmp    102fa3 <halCommonIRQHandler>

0010320f <halIRQ5>:
  10320f:	c7 05 22 33 10 00 25 	movl   $0x25,0x103322
  103216:	00 00 00 
  103219:	c7 05 26 33 10 00 05 	movl   $0x5,0x103326
  103220:	00 00 00 
  103223:	e9 7b fd ff ff       	jmp    102fa3 <halCommonIRQHandler>

00103228 <halIRQ6>:
  103228:	c7 05 22 33 10 00 26 	movl   $0x26,0x103322
  10322f:	00 00 00 
  103232:	c7 05 26 33 10 00 06 	movl   $0x6,0x103326
  103239:	00 00 00 
  10323c:	e9 62 fd ff ff       	jmp    102fa3 <halCommonIRQHandler>

00103241 <halIRQ7>:
  103241:	c7 05 22 33 10 00 27 	movl   $0x27,0x103322
  103248:	00 00 00 
  10324b:	c7 05 26 33 10 00 07 	movl   $0x7,0x103326
  103252:	00 00 00 
  103255:	e9 49 fd ff ff       	jmp    102fa3 <halCommonIRQHandler>

0010325a <halIRQ8>:
  10325a:	c7 05 22 33 10 00 28 	movl   $0x28,0x103322
  103261:	00 00 00 
  103264:	c7 05 26 33 10 00 08 	movl   $0x8,0x103326
  10326b:	00 00 00 
  10326e:	e9 30 fd ff ff       	jmp    102fa3 <halCommonIRQHandler>

00103273 <halIRQ9>:
  103273:	c7 05 22 33 10 00 29 	movl   $0x29,0x103322
  10327a:	00 00 00 
  10327d:	c7 05 26 33 10 00 09 	movl   $0x9,0x103326
  103284:	00 00 00 
  103287:	e9 17 fd ff ff       	jmp    102fa3 <halCommonIRQHandler>

0010328c <halIRQ10>:
  10328c:	c7 05 22 33 10 00 2a 	movl   $0x2a,0x103322
  103293:	00 00 00 
  103296:	c7 05 26 33 10 00 0a 	movl   $0xa,0x103326
  10329d:	00 00 00 
  1032a0:	e9 fe fc ff ff       	jmp    102fa3 <halCommonIRQHandler>

001032a5 <halIRQ11>:
  1032a5:	c7 05 22 33 10 00 2b 	movl   $0x2b,0x103322
  1032ac:	00 00 00 
  1032af:	c7 05 26 33 10 00 0b 	movl   $0xb,0x103326
  1032b6:	00 00 00 
  1032b9:	e9 e5 fc ff ff       	jmp    102fa3 <halCommonIRQHandler>

001032be <halIRQ12>:
  1032be:	c7 05 22 33 10 00 2c 	movl   $0x2c,0x103322
  1032c5:	00 00 00 
  1032c8:	c7 05 26 33 10 00 0c 	movl   $0xc,0x103326
  1032cf:	00 00 00 
  1032d2:	e9 cc fc ff ff       	jmp    102fa3 <halCommonIRQHandler>

001032d7 <halIRQ13>:
  1032d7:	c7 05 22 33 10 00 2d 	movl   $0x2d,0x103322
  1032de:	00 00 00 
  1032e1:	c7 05 26 33 10 00 0d 	movl   $0xd,0x103326
  1032e8:	00 00 00 
  1032eb:	e9 b3 fc ff ff       	jmp    102fa3 <halCommonIRQHandler>

001032f0 <halIRQ14>:
  1032f0:	c7 05 22 33 10 00 2e 	movl   $0x2e,0x103322
  1032f7:	00 00 00 
  1032fa:	c7 05 26 33 10 00 0e 	movl   $0xe,0x103326
  103301:	00 00 00 
  103304:	e9 9a fc ff ff       	jmp    102fa3 <halCommonIRQHandler>

00103309 <halIRQ15>:
  103309:	c7 05 22 33 10 00 2f 	movl   $0x2f,0x103322
  103310:	00 00 00 
  103313:	c7 05 26 33 10 00 0f 	movl   $0xf,0x103326
  10331a:	00 00 00 
  10331d:	e9 81 fc ff ff       	jmp    102fa3 <halCommonIRQHandler>

00103322 <halExceptionIndex>:
  103322:	00 00                	add    %al,(%eax)
	...

00103326 <halIRQIndex>:
  103326:	00 00                	add    %al,(%eax)
	...

0010332a <hal_installGDT>:
  10332a:	0f 01 15 48 33 10 00 	lgdtl  0x103348
  103331:	66 b8 10 00          	mov    $0x10,%ax
  103335:	8e d8                	mov    %eax,%ds
  103337:	8e c0                	mov    %eax,%es
  103339:	8e e0                	mov    %eax,%fs
  10333b:	8e e8                	mov    %eax,%gs
  10333d:	8e d0                	mov    %eax,%ss
  10333f:	ea 46 33 10 00 08 00 	ljmp   $0x8,$0x103346

00103346 <hal_finishedFlushingGDT>:
  103346:	c3                   	ret    
  103347:	90                   	nop

00103348 <gdtr>:
  103348:	27                   	daa    
  103349:	00 4e 33             	add    %cl,0x33(%esi)
  10334c:	10 00                	adc    %al,(%eax)

0010334e <gdt_base>:
	...
  103356:	ff                   	(bad)  
  103357:	ff 00                	incl   (%eax)
  103359:	00 00                	add    %al,(%eax)
  10335b:	9a cf 00 ff ff 00 00 	lcall  $0x0,$0xffff00cf
  103362:	00 92 cf 00 ff ff    	add    %dl,-0xff31(%edx)
  103368:	00 00                	add    %al,(%eax)
  10336a:	00 fa                	add    %bh,%dl
  10336c:	cf                   	iret   
  10336d:	00 ff                	add    %bh,%bh
  10336f:	ff 00                	incl   (%eax)
  103371:	00 00                	add    %al,(%eax)
  103373:	f2 cf                	repnz iret 
	...

00103376 <_start>:
  103376:	bc 90 de 10 00       	mov    $0x10de90,%esp
  10337b:	31 ed                	xor    %ebp,%ebp
  10337d:	54                   	push   %esp
  10337e:	50                   	push   %eax
  10337f:	53                   	push   %ebx
  103380:	e8 42 ef ff ff       	call   1022c7 <arch_main>
  103385:	fa                   	cli    
  103386:	f4                   	hlt    
  103387:	eb fe                	jmp    103387 <_start+0x11>

00103389 <print_dec>:
  103389:	55                   	push   %ebp
  10338a:	89 e5                	mov    %esp,%ebp
  10338c:	53                   	push   %ebx
  10338d:	81 ec c4 00 00 00    	sub    $0xc4,%esp
  103393:	8b 45 08             	mov    0x8(%ebp),%eax
  103396:	89 85 40 ff ff ff    	mov    %eax,-0xc0(%ebp)
  10339c:	8b 45 0c             	mov    0xc(%ebp),%eax
  10339f:	89 85 44 ff ff ff    	mov    %eax,-0xbc(%ebp)
  1033a5:	c7 45 f4 00 00 00 00 	movl   $0x0,-0xc(%ebp)
  1033ac:	c7 45 e8 01 00 00 00 	movl   $0x1,-0x18(%ebp)
  1033b3:	c7 45 ec 00 00 00 00 	movl   $0x0,-0x14(%ebp)
  1033ba:	c7 45 e0 09 00 00 00 	movl   $0x9,-0x20(%ebp)
  1033c1:	c7 45 e4 00 00 00 00 	movl   $0x0,-0x1c(%ebp)
  1033c8:	83 7d 24 ff          	cmpl   $0xffffffff,0x24(%ebp)
  1033cc:	75 07                	jne    1033d5 <print_dec+0x4c>
  1033ce:	c7 45 24 01 00 00 00 	movl   $0x1,0x24(%ebp)
  1033d5:	8b 85 40 ff ff ff    	mov    -0xc0(%ebp),%eax
  1033db:	0b 85 44 ff ff ff    	or     -0xbc(%ebp),%eax
  1033e1:	75 10                	jne    1033f3 <print_dec+0x6a>
  1033e3:	c7 45 e8 00 00 00 00 	movl   $0x0,-0x18(%ebp)
  1033ea:	c7 45 ec 00 00 00 00 	movl   $0x0,-0x14(%ebp)
  1033f1:	eb 48                	jmp    10343b <print_dec+0xb2>
  1033f3:	8b 85 40 ff ff ff    	mov    -0xc0(%ebp),%eax
  1033f9:	8b 95 44 ff ff ff    	mov    -0xbc(%ebp),%edx
  1033ff:	89 45 d8             	mov    %eax,-0x28(%ebp)
  103402:	89 55 dc             	mov    %edx,-0x24(%ebp)
  103405:	eb 22                	jmp    103429 <print_dec+0xa0>
  103407:	8b 45 d8             	mov    -0x28(%ebp),%eax
  10340a:	8b 55 dc             	mov    -0x24(%ebp),%edx
  10340d:	6a 00                	push   $0x0
  10340f:	6a 0a                	push   $0xa
  103411:	52                   	push   %edx
  103412:	50                   	push   %eax
  103413:	e8 f8 21 00 00       	call   105610 <__udivdi3>
  103418:	83 c4 10             	add    $0x10,%esp
  10341b:	89 45 d8             	mov    %eax,-0x28(%ebp)
  10341e:	89 55 dc             	mov    %edx,-0x24(%ebp)
  103421:	83 45 e8 01          	addl   $0x1,-0x18(%ebp)
  103425:	83 55 ec 00          	adcl   $0x0,-0x14(%ebp)
  103429:	ba 09 00 00 00       	mov    $0x9,%edx
  10342e:	b8 00 00 00 00       	mov    $0x0,%eax
  103433:	3b 55 d8             	cmp    -0x28(%ebp),%edx
  103436:	1b 45 dc             	sbb    -0x24(%ebp),%eax
  103439:	72 cc                	jb     103407 <print_dec+0x7e>
  10343b:	8b 45 24             	mov    0x24(%ebp),%eax
  10343e:	99                   	cltd   
  10343f:	8b 4d ec             	mov    -0x14(%ebp),%ecx
  103442:	39 45 e8             	cmp    %eax,-0x18(%ebp)
  103445:	19 d1                	sbb    %edx,%ecx
  103447:	73 0a                	jae    103453 <print_dec+0xca>
  103449:	8b 45 24             	mov    0x24(%ebp),%eax
  10344c:	99                   	cltd   
  10344d:	89 45 e8             	mov    %eax,-0x18(%ebp)
  103450:	89 55 ec             	mov    %edx,-0x14(%ebp)
  103453:	c7 45 d4 00 00 00 00 	movl   $0x0,-0x2c(%ebp)
  10345a:	83 7d 20 00          	cmpl   $0x0,0x20(%ebp)
  10345e:	0f 84 20 01 00 00    	je     103584 <print_dec+0x1fb>
  103464:	eb 29                	jmp    10348f <print_dec+0x106>
  103466:	83 7d 1c 00          	cmpl   $0x0,0x1c(%ebp)
  10346a:	74 07                	je     103473 <print_dec+0xea>
  10346c:	b8 30 00 00 00       	mov    $0x30,%eax
  103471:	eb 05                	jmp    103478 <print_dec+0xef>
  103473:	b8 20 00 00 00       	mov    $0x20,%eax
  103478:	83 ec 08             	sub    $0x8,%esp
  10347b:	50                   	push   %eax
  10347c:	ff 75 18             	push   0x18(%ebp)
  10347f:	8b 45 14             	mov    0x14(%ebp),%eax
  103482:	ff d0                	call   *%eax
  103484:	83 c4 10             	add    $0x10,%esp
  103487:	83 45 f4 01          	addl   $0x1,-0xc(%ebp)
  10348b:	83 45 d4 01          	addl   $0x1,-0x2c(%ebp)
  10348f:	8b 45 d4             	mov    -0x2c(%ebp),%eax
  103492:	89 c1                	mov    %eax,%ecx
  103494:	89 c3                	mov    %eax,%ebx
  103496:	c1 fb 1f             	sar    $0x1f,%ebx
  103499:	8b 45 e8             	mov    -0x18(%ebp),%eax
  10349c:	8b 55 ec             	mov    -0x14(%ebp),%edx
  10349f:	01 c8                	add    %ecx,%eax
  1034a1:	11 da                	adc    %ebx,%edx
  1034a3:	8b 4d 10             	mov    0x10(%ebp),%ecx
  1034a6:	bb 00 00 00 00       	mov    $0x0,%ebx
  1034ab:	39 c8                	cmp    %ecx,%eax
  1034ad:	89 d0                	mov    %edx,%eax
  1034af:	19 d8                	sbb    %ebx,%eax
  1034b1:	72 b3                	jb     103466 <print_dec+0xdd>
  1034b3:	8b 45 e8             	mov    -0x18(%ebp),%eax
  1034b6:	8b 55 ec             	mov    -0x14(%ebp),%edx
  1034b9:	89 45 e0             	mov    %eax,-0x20(%ebp)
  1034bc:	89 55 e4             	mov    %edx,-0x1c(%ebp)
  1034bf:	eb 78                	jmp    103539 <print_dec+0x1b0>
  1034c1:	8b 85 40 ff ff ff    	mov    -0xc0(%ebp),%eax
  1034c7:	8b 95 44 ff ff ff    	mov    -0xbc(%ebp),%edx
  1034cd:	6a 00                	push   $0x0
  1034cf:	6a 0a                	push   $0xa
  1034d1:	52                   	push   %edx
  1034d2:	50                   	push   %eax
  1034d3:	e8 38 21 00 00       	call   105610 <__udivdi3>
  1034d8:	83 c4 10             	add    $0x10,%esp
  1034db:	89 45 b8             	mov    %eax,-0x48(%ebp)
  1034de:	89 55 bc             	mov    %edx,-0x44(%ebp)
  1034e1:	8b 85 40 ff ff ff    	mov    -0xc0(%ebp),%eax
  1034e7:	8b 95 44 ff ff ff    	mov    -0xbc(%ebp),%edx
  1034ed:	6a 00                	push   $0x0
  1034ef:	6a 0a                	push   $0xa
  1034f1:	52                   	push   %edx
  1034f2:	50                   	push   %eax
  1034f3:	e8 38 22 00 00       	call   105730 <__umoddi3>
  1034f8:	83 c4 10             	add    $0x10,%esp
  1034fb:	89 45 b0             	mov    %eax,-0x50(%ebp)
  1034fe:	89 55 b4             	mov    %edx,-0x4c(%ebp)
  103501:	8b 45 b0             	mov    -0x50(%ebp),%eax
  103504:	8d 48 30             	lea    0x30(%eax),%ecx
  103507:	8b 45 e0             	mov    -0x20(%ebp),%eax
  10350a:	8b 55 e4             	mov    -0x1c(%ebp),%edx
  10350d:	83 c0 ff             	add    $0xffffffff,%eax
  103510:	83 d2 ff             	adc    $0xffffffff,%edx
  103513:	89 cb                	mov    %ecx,%ebx
  103515:	8d 8d 4c ff ff ff    	lea    -0xb4(%ebp),%ecx
  10351b:	01 c8                	add    %ecx,%eax
  10351d:	88 18                	mov    %bl,(%eax)
  10351f:	83 45 e0 ff          	addl   $0xffffffff,-0x20(%ebp)
  103523:	83 55 e4 ff          	adcl   $0xffffffff,-0x1c(%ebp)
  103527:	8b 45 b8             	mov    -0x48(%ebp),%eax
  10352a:	8b 55 bc             	mov    -0x44(%ebp),%edx
  10352d:	89 85 40 ff ff ff    	mov    %eax,-0xc0(%ebp)
  103533:	89 95 44 ff ff ff    	mov    %edx,-0xbc(%ebp)
  103539:	8b 45 e0             	mov    -0x20(%ebp),%eax
  10353c:	0b 45 e4             	or     -0x1c(%ebp),%eax
  10353f:	75 80                	jne    1034c1 <print_dec+0x138>
  103541:	eb 2c                	jmp    10356f <print_dec+0x1e6>
  103543:	8d 95 4c ff ff ff    	lea    -0xb4(%ebp),%edx
  103549:	8b 45 e0             	mov    -0x20(%ebp),%eax
  10354c:	01 d0                	add    %edx,%eax
  10354e:	0f b6 00             	movzbl (%eax),%eax
  103551:	0f be c0             	movsbl %al,%eax
  103554:	83 ec 08             	sub    $0x8,%esp
  103557:	50                   	push   %eax
  103558:	ff 75 18             	push   0x18(%ebp)
  10355b:	8b 45 14             	mov    0x14(%ebp),%eax
  10355e:	ff d0                	call   *%eax
  103560:	83 c4 10             	add    $0x10,%esp
  103563:	83 45 f4 01          	addl   $0x1,-0xc(%ebp)
  103567:	83 45 e0 01          	addl   $0x1,-0x20(%ebp)
  10356b:	83 55 e4 00          	adcl   $0x0,-0x1c(%ebp)
  10356f:	8b 45 e0             	mov    -0x20(%ebp),%eax
  103572:	8b 55 e4             	mov    -0x1c(%ebp),%edx
  103575:	3b 45 e8             	cmp    -0x18(%ebp),%eax
  103578:	89 d0                	mov    %edx,%eax
  10357a:	1b 45 ec             	sbb    -0x14(%ebp),%eax
  10357d:	72 c4                	jb     103543 <print_dec+0x1ba>
  10357f:	e9 13 01 00 00       	jmp    103697 <print_dec+0x30e>
  103584:	8b 45 e8             	mov    -0x18(%ebp),%eax
  103587:	8b 55 ec             	mov    -0x14(%ebp),%edx
  10358a:	89 45 e0             	mov    %eax,-0x20(%ebp)
  10358d:	89 55 e4             	mov    %edx,-0x1c(%ebp)
  103590:	eb 7c                	jmp    10360e <print_dec+0x285>
  103592:	8b 85 40 ff ff ff    	mov    -0xc0(%ebp),%eax
  103598:	8b 95 44 ff ff ff    	mov    -0xbc(%ebp),%edx
  10359e:	6a 00                	push   $0x0
  1035a0:	6a 0a                	push   $0xa
  1035a2:	52                   	push   %edx
  1035a3:	50                   	push   %eax
  1035a4:	e8 67 20 00 00       	call   105610 <__udivdi3>
  1035a9:	83 c4 10             	add    $0x10,%esp
  1035ac:	89 45 c8             	mov    %eax,-0x38(%ebp)
  1035af:	89 55 cc             	mov    %edx,-0x34(%ebp)
  1035b2:	8b 85 40 ff ff ff    	mov    -0xc0(%ebp),%eax
  1035b8:	8b 95 44 ff ff ff    	mov    -0xbc(%ebp),%edx
  1035be:	6a 00                	push   $0x0
  1035c0:	6a 0a                	push   $0xa
  1035c2:	52                   	push   %edx
  1035c3:	50                   	push   %eax
  1035c4:	e8 67 21 00 00       	call   105730 <__umoddi3>
  1035c9:	83 c4 10             	add    $0x10,%esp
  1035cc:	89 45 c0             	mov    %eax,-0x40(%ebp)
  1035cf:	89 55 c4             	mov    %edx,-0x3c(%ebp)
  1035d2:	8b 45 c0             	mov    -0x40(%ebp),%eax
  1035d5:	8d 48 30             	lea    0x30(%eax),%ecx
  1035d8:	8b 45 e0             	mov    -0x20(%ebp),%eax
  1035db:	8b 55 e4             	mov    -0x1c(%ebp),%edx
  1035de:	83 c0 ff             	add    $0xffffffff,%eax
  1035e1:	83 d2 ff             	adc    $0xffffffff,%edx
  1035e4:	89 cb                	mov    %ecx,%ebx
  1035e6:	8d 8d 4c ff ff ff    	lea    -0xb4(%ebp),%ecx
  1035ec:	01 c8                	add    %ecx,%eax
  1035ee:	88 18                	mov    %bl,(%eax)
  1035f0:	83 45 e0 ff          	addl   $0xffffffff,-0x20(%ebp)
  1035f4:	83 55 e4 ff          	adcl   $0xffffffff,-0x1c(%ebp)
  1035f8:	8b 45 c8             	mov    -0x38(%ebp),%eax
  1035fb:	8b 55 cc             	mov    -0x34(%ebp),%edx
  1035fe:	89 85 40 ff ff ff    	mov    %eax,-0xc0(%ebp)
  103604:	89 95 44 ff ff ff    	mov    %edx,-0xbc(%ebp)
  10360a:	83 45 d4 01          	addl   $0x1,-0x2c(%ebp)
  10360e:	8b 45 e0             	mov    -0x20(%ebp),%eax
  103611:	0b 45 e4             	or     -0x1c(%ebp),%eax
  103614:	0f 85 78 ff ff ff    	jne    103592 <print_dec+0x209>
  10361a:	eb 2c                	jmp    103648 <print_dec+0x2bf>
  10361c:	8d 95 4c ff ff ff    	lea    -0xb4(%ebp),%edx
  103622:	8b 45 e0             	mov    -0x20(%ebp),%eax
  103625:	01 d0                	add    %edx,%eax
  103627:	0f b6 00             	movzbl (%eax),%eax
  10362a:	0f be c0             	movsbl %al,%eax
  10362d:	83 ec 08             	sub    $0x8,%esp
  103630:	50                   	push   %eax
  103631:	ff 75 18             	push   0x18(%ebp)
  103634:	8b 45 14             	mov    0x14(%ebp),%eax
  103637:	ff d0                	call   *%eax
  103639:	83 c4 10             	add    $0x10,%esp
  10363c:	83 45 f4 01          	addl   $0x1,-0xc(%ebp)
  103640:	83 45 e0 01          	addl   $0x1,-0x20(%ebp)
  103644:	83 55 e4 00          	adcl   $0x0,-0x1c(%ebp)
  103648:	8b 45 e0             	mov    -0x20(%ebp),%eax
  10364b:	8b 55 e4             	mov    -0x1c(%ebp),%edx
  10364e:	3b 45 e8             	cmp    -0x18(%ebp),%eax
  103651:	89 d0                	mov    %edx,%eax
  103653:	1b 45 ec             	sbb    -0x14(%ebp),%eax
  103656:	72 c4                	jb     10361c <print_dec+0x293>
  103658:	eb 29                	jmp    103683 <print_dec+0x2fa>
  10365a:	83 7d 1c 00          	cmpl   $0x0,0x1c(%ebp)
  10365e:	74 07                	je     103667 <print_dec+0x2de>
  103660:	b8 30 00 00 00       	mov    $0x30,%eax
  103665:	eb 05                	jmp    10366c <print_dec+0x2e3>
  103667:	b8 20 00 00 00       	mov    $0x20,%eax
  10366c:	83 ec 08             	sub    $0x8,%esp
  10366f:	50                   	push   %eax
  103670:	ff 75 18             	push   0x18(%ebp)
  103673:	8b 45 14             	mov    0x14(%ebp),%eax
  103676:	ff d0                	call   *%eax
  103678:	83 c4 10             	add    $0x10,%esp
  10367b:	83 45 f4 01          	addl   $0x1,-0xc(%ebp)
  10367f:	83 45 d4 01          	addl   $0x1,-0x2c(%ebp)
  103683:	8b 45 d4             	mov    -0x2c(%ebp),%eax
  103686:	99                   	cltd   
  103687:	8b 4d 10             	mov    0x10(%ebp),%ecx
  10368a:	bb 00 00 00 00       	mov    $0x0,%ebx
  10368f:	39 c8                	cmp    %ecx,%eax
  103691:	89 d0                	mov    %edx,%eax
  103693:	19 d8                	sbb    %ebx,%eax
  103695:	7c c3                	jl     10365a <print_dec+0x2d1>
  103697:	8b 45 f4             	mov    -0xc(%ebp),%eax
  10369a:	8b 5d fc             	mov    -0x4(%ebp),%ebx
  10369d:	c9                   	leave  
  10369e:	c3                   	ret    

0010369f <print_hex>:
  10369f:	55                   	push   %ebp
  1036a0:	89 e5                	mov    %esp,%ebp
  1036a2:	57                   	push   %edi
  1036a3:	56                   	push   %esi
  1036a4:	53                   	push   %ebx
  1036a5:	83 ec 3c             	sub    $0x3c,%esp
  1036a8:	8b 45 08             	mov    0x8(%ebp),%eax
  1036ab:	89 45 c0             	mov    %eax,-0x40(%ebp)
  1036ae:	8b 45 0c             	mov    0xc(%ebp),%eax
  1036b1:	89 45 c4             	mov    %eax,-0x3c(%ebp)
  1036b4:	c7 45 e4 00 00 00 00 	movl   $0x0,-0x1c(%ebp)
  1036bb:	8b 45 10             	mov    0x10(%ebp),%eax
  1036be:	89 45 e0             	mov    %eax,-0x20(%ebp)
  1036c1:	c7 45 d8 01 00 00 00 	movl   $0x1,-0x28(%ebp)
  1036c8:	c7 45 dc 00 00 00 00 	movl   $0x0,-0x24(%ebp)
  1036cf:	c7 45 d0 0f 00 00 00 	movl   $0xf,-0x30(%ebp)
  1036d6:	c7 45 d4 00 00 00 00 	movl   $0x0,-0x2c(%ebp)
  1036dd:	eb 23                	jmp    103702 <print_hex+0x63>
  1036df:	83 45 d8 01          	addl   $0x1,-0x28(%ebp)
  1036e3:	83 55 dc 00          	adcl   $0x0,-0x24(%ebp)
  1036e7:	8b 45 d0             	mov    -0x30(%ebp),%eax
  1036ea:	8b 55 d4             	mov    -0x2c(%ebp),%edx
  1036ed:	0f a4 c2 04          	shld   $0x4,%eax,%edx
  1036f1:	c1 e0 04             	shl    $0x4,%eax
  1036f4:	89 45 d0             	mov    %eax,-0x30(%ebp)
  1036f7:	89 55 d4             	mov    %edx,-0x2c(%ebp)
  1036fa:	83 45 d0 0f          	addl   $0xf,-0x30(%ebp)
  1036fe:	83 55 d4 00          	adcl   $0x0,-0x2c(%ebp)
  103702:	8b 45 c0             	mov    -0x40(%ebp),%eax
  103705:	8b 55 c4             	mov    -0x3c(%ebp),%edx
  103708:	8b 4d d4             	mov    -0x2c(%ebp),%ecx
  10370b:	39 45 d0             	cmp    %eax,-0x30(%ebp)
  10370e:	19 d1                	sbb    %edx,%ecx
  103710:	73 0b                	jae    10371d <print_hex+0x7e>
  103712:	8b 45 d0             	mov    -0x30(%ebp),%eax
  103715:	23 45 d4             	and    -0x2c(%ebp),%eax
  103718:	83 f8 ff             	cmp    $0xffffffff,%eax
  10371b:	75 c2                	jne    1036df <print_hex+0x40>
  10371d:	83 7d 1c 00          	cmpl   $0x0,0x1c(%ebp)
  103721:	75 52                	jne    103775 <print_hex+0xd6>
  103723:	83 7d 28 01          	cmpl   $0x1,0x28(%ebp)
  103727:	75 4c                	jne    103775 <print_hex+0xd6>
  103729:	eb 18                	jmp    103743 <print_hex+0xa4>
  10372b:	83 ec 08             	sub    $0x8,%esp
  10372e:	6a 20                	push   $0x20
  103730:	ff 75 18             	push   0x18(%ebp)
  103733:	8b 45 14             	mov    0x14(%ebp),%eax
  103736:	ff d0                	call   *%eax
  103738:	83 c4 10             	add    $0x10,%esp
  10373b:	83 45 e4 01          	addl   $0x1,-0x1c(%ebp)
  10373f:	83 6d e0 01          	subl   $0x1,-0x20(%ebp)
  103743:	8b 45 e0             	mov    -0x20(%ebp),%eax
  103746:	99                   	cltd   
  103747:	83 7d 20 00          	cmpl   $0x0,0x20(%ebp)
  10374b:	74 0c                	je     103759 <print_hex+0xba>
  10374d:	be 02 00 00 00       	mov    $0x2,%esi
  103752:	bf 00 00 00 00       	mov    $0x0,%edi
  103757:	eb 0a                	jmp    103763 <print_hex+0xc4>
  103759:	be 00 00 00 00       	mov    $0x0,%esi
  10375e:	bf 00 00 00 00       	mov    $0x0,%edi
  103763:	8b 4d d8             	mov    -0x28(%ebp),%ecx
  103766:	8b 5d dc             	mov    -0x24(%ebp),%ebx
  103769:	01 f1                	add    %esi,%ecx
  10376b:	11 fb                	adc    %edi,%ebx
  10376d:	39 c1                	cmp    %eax,%ecx
  10376f:	89 df                	mov    %ebx,%edi
  103771:	19 d7                	sbb    %edx,%edi
  103773:	7c b6                	jl     10372b <print_hex+0x8c>
  103775:	83 7d 20 00          	cmpl   $0x0,0x20(%ebp)
  103779:	74 39                	je     1037b4 <print_hex+0x115>
  10377b:	83 ec 08             	sub    $0x8,%esp
  10377e:	6a 30                	push   $0x30
  103780:	ff 75 18             	push   0x18(%ebp)
  103783:	8b 45 14             	mov    0x14(%ebp),%eax
  103786:	ff d0                	call   *%eax
  103788:	83 c4 10             	add    $0x10,%esp
  10378b:	83 45 e4 01          	addl   $0x1,-0x1c(%ebp)
  10378f:	83 7d 24 00          	cmpl   $0x0,0x24(%ebp)
  103793:	74 07                	je     10379c <print_hex+0xfd>
  103795:	b8 58 00 00 00       	mov    $0x58,%eax
  10379a:	eb 05                	jmp    1037a1 <print_hex+0x102>
  10379c:	b8 78 00 00 00       	mov    $0x78,%eax
  1037a1:	83 ec 08             	sub    $0x8,%esp
  1037a4:	50                   	push   %eax
  1037a5:	ff 75 18             	push   0x18(%ebp)
  1037a8:	8b 45 14             	mov    0x14(%ebp),%eax
  1037ab:	ff d0                	call   *%eax
  1037ad:	83 c4 10             	add    $0x10,%esp
  1037b0:	83 45 e4 01          	addl   $0x1,-0x1c(%ebp)
  1037b4:	83 7d 1c 00          	cmpl   $0x0,0x1c(%ebp)
  1037b8:	74 52                	je     10380c <print_hex+0x16d>
  1037ba:	83 7d 28 01          	cmpl   $0x1,0x28(%ebp)
  1037be:	75 4c                	jne    10380c <print_hex+0x16d>
  1037c0:	eb 18                	jmp    1037da <print_hex+0x13b>
  1037c2:	83 ec 08             	sub    $0x8,%esp
  1037c5:	6a 30                	push   $0x30
  1037c7:	ff 75 18             	push   0x18(%ebp)
  1037ca:	8b 45 14             	mov    0x14(%ebp),%eax
  1037cd:	ff d0                	call   *%eax
  1037cf:	83 c4 10             	add    $0x10,%esp
  1037d2:	83 45 e4 01          	addl   $0x1,-0x1c(%ebp)
  1037d6:	83 6d e0 01          	subl   $0x1,-0x20(%ebp)
  1037da:	8b 45 e0             	mov    -0x20(%ebp),%eax
  1037dd:	99                   	cltd   
  1037de:	83 7d 20 00          	cmpl   $0x0,0x20(%ebp)
  1037e2:	74 0c                	je     1037f0 <print_hex+0x151>
  1037e4:	be 02 00 00 00       	mov    $0x2,%esi
  1037e9:	bf 00 00 00 00       	mov    $0x0,%edi
  1037ee:	eb 0a                	jmp    1037fa <print_hex+0x15b>
  1037f0:	be 00 00 00 00       	mov    $0x0,%esi
  1037f5:	bf 00 00 00 00       	mov    $0x0,%edi
  1037fa:	8b 4d d8             	mov    -0x28(%ebp),%ecx
  1037fd:	8b 5d dc             	mov    -0x24(%ebp),%ebx
  103800:	01 f1                	add    %esi,%ecx
  103802:	11 fb                	adc    %edi,%ebx
  103804:	39 c1                	cmp    %eax,%ecx
  103806:	89 df                	mov    %ebx,%edi
  103808:	19 d7                	sbb    %edx,%edi
  10380a:	7c b6                	jl     1037c2 <print_hex+0x123>
  10380c:	8b 45 d8             	mov    -0x28(%ebp),%eax
  10380f:	89 45 e0             	mov    %eax,-0x20(%ebp)
  103812:	eb 52                	jmp    103866 <print_hex+0x1c7>
  103814:	83 7d 24 00          	cmpl   $0x0,0x24(%ebp)
  103818:	74 07                	je     103821 <print_hex+0x182>
  10381a:	bb c0 6b 10 00       	mov    $0x106bc0,%ebx
  10381f:	eb 05                	jmp    103826 <print_hex+0x187>
  103821:	bb d1 6b 10 00       	mov    $0x106bd1,%ebx
  103826:	8b 45 e0             	mov    -0x20(%ebp),%eax
  103829:	8d 0c 85 00 00 00 00 	lea    0x0(,%eax,4),%ecx
  103830:	8b 45 c0             	mov    -0x40(%ebp),%eax
  103833:	8b 55 c4             	mov    -0x3c(%ebp),%edx
  103836:	0f ad d0             	shrd   %cl,%edx,%eax
  103839:	d3 ea                	shr    %cl,%edx
  10383b:	f6 c1 20             	test   $0x20,%cl
  10383e:	74 04                	je     103844 <print_hex+0x1a5>
  103840:	89 d0                	mov    %edx,%eax
  103842:	31 d2                	xor    %edx,%edx
  103844:	83 e0 0f             	and    $0xf,%eax
  103847:	01 d8                	add    %ebx,%eax
  103849:	0f b6 00             	movzbl (%eax),%eax
  10384c:	88 45 cf             	mov    %al,-0x31(%ebp)
  10384f:	0f be 45 cf          	movsbl -0x31(%ebp),%eax
  103853:	83 ec 08             	sub    $0x8,%esp
  103856:	50                   	push   %eax
  103857:	ff 75 18             	push   0x18(%ebp)
  10385a:	8b 45 14             	mov    0x14(%ebp),%eax
  10385d:	ff d0                	call   *%eax
  10385f:	83 c4 10             	add    $0x10,%esp
  103862:	83 45 e4 01          	addl   $0x1,-0x1c(%ebp)
  103866:	8b 45 e0             	mov    -0x20(%ebp),%eax
  103869:	8d 50 ff             	lea    -0x1(%eax),%edx
  10386c:	89 55 e0             	mov    %edx,-0x20(%ebp)
  10386f:	85 c0                	test   %eax,%eax
  103871:	7f a1                	jg     103814 <print_hex+0x175>
  103873:	83 7d 28 00          	cmpl   $0x0,0x28(%ebp)
  103877:	75 50                	jne    1038c9 <print_hex+0x22a>
  103879:	8b 45 10             	mov    0x10(%ebp),%eax
  10387c:	89 45 e0             	mov    %eax,-0x20(%ebp)
  10387f:	eb 18                	jmp    103899 <print_hex+0x1fa>
  103881:	83 ec 08             	sub    $0x8,%esp
  103884:	6a 20                	push   $0x20
  103886:	ff 75 18             	push   0x18(%ebp)
  103889:	8b 45 14             	mov    0x14(%ebp),%eax
  10388c:	ff d0                	call   *%eax
  10388e:	83 c4 10             	add    $0x10,%esp
  103891:	83 45 e4 01          	addl   $0x1,-0x1c(%ebp)
  103895:	83 6d e0 01          	subl   $0x1,-0x20(%ebp)
  103899:	8b 45 e0             	mov    -0x20(%ebp),%eax
  10389c:	99                   	cltd   
  10389d:	83 7d 20 00          	cmpl   $0x0,0x20(%ebp)
  1038a1:	74 0c                	je     1038af <print_hex+0x210>
  1038a3:	be 02 00 00 00       	mov    $0x2,%esi
  1038a8:	bf 00 00 00 00       	mov    $0x0,%edi
  1038ad:	eb 0a                	jmp    1038b9 <print_hex+0x21a>
  1038af:	be 00 00 00 00       	mov    $0x0,%esi
  1038b4:	bf 00 00 00 00       	mov    $0x0,%edi
  1038b9:	8b 4d d8             	mov    -0x28(%ebp),%ecx
  1038bc:	8b 5d dc             	mov    -0x24(%ebp),%ebx
  1038bf:	01 f1                	add    %esi,%ecx
  1038c1:	11 fb                	adc    %edi,%ebx
  1038c3:	39 c1                	cmp    %eax,%ecx
  1038c5:	19 d3                	sbb    %edx,%ebx
  1038c7:	7c b8                	jl     103881 <print_hex+0x1e2>
  1038c9:	8b 45 e4             	mov    -0x1c(%ebp),%eax
  1038cc:	8d 65 f4             	lea    -0xc(%ebp),%esp
  1038cf:	5b                   	pop    %ebx
  1038d0:	5e                   	pop    %esi
  1038d1:	5f                   	pop    %edi
  1038d2:	5d                   	pop    %ebp
  1038d3:	c3                   	ret    

001038d4 <xvasprintf>:
  1038d4:	55                   	push   %ebp
  1038d5:	89 e5                	mov    %esp,%ebp
  1038d7:	81 ec 98 00 00 00    	sub    $0x98,%esp
  1038dd:	c7 45 f0 00 00 00 00 	movl   $0x0,-0x10(%ebp)
  1038e4:	8b 45 10             	mov    0x10(%ebp),%eax
  1038e7:	89 45 ec             	mov    %eax,-0x14(%ebp)
  1038ea:	e9 c6 0b 00 00       	jmp    1044b5 <xvasprintf+0xbe1>
  1038ef:	8b 45 ec             	mov    -0x14(%ebp),%eax
  1038f2:	0f b6 00             	movzbl (%eax),%eax
  1038f5:	3c 25                	cmp    $0x25,%al
  1038f7:	74 21                	je     10391a <xvasprintf+0x46>
  1038f9:	8b 45 ec             	mov    -0x14(%ebp),%eax
  1038fc:	0f b6 00             	movzbl (%eax),%eax
  1038ff:	0f be c0             	movsbl %al,%eax
  103902:	83 ec 08             	sub    $0x8,%esp
  103905:	50                   	push   %eax
  103906:	ff 75 0c             	push   0xc(%ebp)
  103909:	8b 45 08             	mov    0x8(%ebp),%eax
  10390c:	ff d0                	call   *%eax
  10390e:	83 c4 10             	add    $0x10,%esp
  103911:	83 45 f0 01          	addl   $0x1,-0x10(%ebp)
  103915:	e9 97 0b 00 00       	jmp    1044b1 <xvasprintf+0xbdd>
  10391a:	83 45 ec 01          	addl   $0x1,-0x14(%ebp)
  10391e:	c7 45 e8 00 00 00 00 	movl   $0x0,-0x18(%ebp)
  103925:	c7 45 e4 01 00 00 00 	movl   $0x1,-0x1c(%ebp)
  10392c:	c7 45 e0 00 00 00 00 	movl   $0x0,-0x20(%ebp)
  103933:	c7 45 dc 00 00 00 00 	movl   $0x0,-0x24(%ebp)
  10393a:	c7 45 d8 00 00 00 00 	movl   $0x0,-0x28(%ebp)
  103941:	c7 45 d4 00 00 00 00 	movl   $0x0,-0x2c(%ebp)
  103948:	c7 45 d0 ff ff ff ff 	movl   $0xffffffff,-0x30(%ebp)
  10394f:	8b 45 ec             	mov    -0x14(%ebp),%eax
  103952:	0f b6 00             	movzbl (%eax),%eax
  103955:	3c 2d                	cmp    $0x2d,%al
  103957:	75 0d                	jne    103966 <xvasprintf+0x92>
  103959:	c7 45 e4 00 00 00 00 	movl   $0x0,-0x1c(%ebp)
  103960:	83 45 ec 01          	addl   $0x1,-0x14(%ebp)
  103964:	eb e9                	jmp    10394f <xvasprintf+0x7b>
  103966:	8b 45 ec             	mov    -0x14(%ebp),%eax
  103969:	0f b6 00             	movzbl (%eax),%eax
  10396c:	3c 23                	cmp    $0x23,%al
  10396e:	75 0d                	jne    10397d <xvasprintf+0xa9>
  103970:	c7 45 d8 01 00 00 00 	movl   $0x1,-0x28(%ebp)
  103977:	83 45 ec 01          	addl   $0x1,-0x14(%ebp)
  10397b:	eb d2                	jmp    10394f <xvasprintf+0x7b>
  10397d:	8b 45 ec             	mov    -0x14(%ebp),%eax
  103980:	0f b6 00             	movzbl (%eax),%eax
  103983:	3c 2a                	cmp    $0x2a,%al
  103985:	75 14                	jne    10399b <xvasprintf+0xc7>
  103987:	8b 45 14             	mov    0x14(%ebp),%eax
  10398a:	8d 50 04             	lea    0x4(%eax),%edx
  10398d:	89 55 14             	mov    %edx,0x14(%ebp)
  103990:	8b 00                	mov    (%eax),%eax
  103992:	89 45 e8             	mov    %eax,-0x18(%ebp)
  103995:	83 45 ec 01          	addl   $0x1,-0x14(%ebp)
  103999:	eb b4                	jmp    10394f <xvasprintf+0x7b>
  10399b:	8b 45 ec             	mov    -0x14(%ebp),%eax
  10399e:	0f b6 00             	movzbl (%eax),%eax
  1039a1:	3c 30                	cmp    $0x30,%al
  1039a3:	75 0d                	jne    1039b2 <xvasprintf+0xde>
  1039a5:	c7 45 e0 01 00 00 00 	movl   $0x1,-0x20(%ebp)
  1039ac:	83 45 ec 01          	addl   $0x1,-0x14(%ebp)
  1039b0:	eb 9d                	jmp    10394f <xvasprintf+0x7b>
  1039b2:	8b 45 ec             	mov    -0x14(%ebp),%eax
  1039b5:	0f b6 00             	movzbl (%eax),%eax
  1039b8:	3c 2b                	cmp    $0x2b,%al
  1039ba:	75 0d                	jne    1039c9 <xvasprintf+0xf5>
  1039bc:	c7 45 d4 01 00 00 00 	movl   $0x1,-0x2c(%ebp)
  1039c3:	83 45 ec 01          	addl   $0x1,-0x14(%ebp)
  1039c7:	eb 86                	jmp    10394f <xvasprintf+0x7b>
  1039c9:	8b 45 ec             	mov    -0x14(%ebp),%eax
  1039cc:	0f b6 00             	movzbl (%eax),%eax
  1039cf:	3c 20                	cmp    $0x20,%al
  1039d1:	75 10                	jne    1039e3 <xvasprintf+0x10f>
  1039d3:	c7 45 d4 02 00 00 00 	movl   $0x2,-0x2c(%ebp)
  1039da:	83 45 ec 01          	addl   $0x1,-0x14(%ebp)
  1039de:	e9 6c ff ff ff       	jmp    10394f <xvasprintf+0x7b>
