
build-output/sysroot/boot/hexahedron-kernel.elf:     file format elf32-i386


Disassembly of section .text:

00100000 <__kernel_start>:
  100000:	02 b0 ad 1b 07 00    	add    0x71bad(%eax),%dh
  100006:	00 00                	add    %al,(%eax)
  100008:	f7 4f 52 e4 00 00 10 	testl  $0x100000e4,0x52(%edi)
  10000f:	00 00                	add    %al,(%eax)
  100011:	00 10                	add    %dl,(%eax)
  100013:	00 00                	add    %al,(%eax)
  100015:	90                   	nop
  100016:	10 00                	adc    %al,(%eax)
  100018:	e6 de                	out    %al,$0xde
  10001a:	10 00                	adc    %al,(%eax)
  10001c:	76 33                	jbe    100051 <multiboot2_address_tag+0x11>
  10001e:	10 00                	adc    %al,(%eax)
  100020:	00 00                	add    %al,(%eax)
  100022:	00 00                	add    %al,(%eax)
  100024:	00 04 00             	add    %al,(%eax,%eax,1)
  100027:	00 00                	add    %al,(%eax)
  100029:	03 00                	add    (%eax),%eax
  10002b:	00 20                	add    %ah,(%eax)
  10002d:	00 00                	add    %al,(%eax)
	...

00100030 <multiboot2_header_start>:
  100030:	d6                   	(bad)  
  100031:	50                   	push   %eax
  100032:	52                   	push   %edx
  100033:	e8 00 00 00 00       	call   100038 <multiboot2_header_start+0x8>
  100038:	80 00 00             	addb   $0x0,(%eax)
  10003b:	00 aa ae ad 17     	add    %ch,0x217adae(%edx)

00100040 <multiboot2_address_tag>:
  100040:	02 00                	add    (%eax),%al
  100042:	00 00                	add    %al,(%eax)
  100044:	18 00                	sbb    %al,(%eax)
  100046:	00 00                	add    %al,(%eax)
  100048:	30 00                	xor    %al,(%eax)
  10004a:	10 00                	adc    %al,(%eax)
  10004c:	00 00                	add    %al,(%eax)
  10004e:	10 00                	adc    %al,(%eax)
  100050:	00 90 10 00 e6 de    	add    %dl,-0x2119fff0(%eax)
  100056:	10 00                	adc    %al,(%eax)

00100058 <multiboot2_entry_tag>:
  100058:	03 00                	add    (%eax),%eax
  10005a:	00 00                	add    %al,(%eax)
  10005c:	0c 00                	or     $0x0,%al
  10005e:	00 00                	add    %al,(%eax)
  100060:	76 33                	jbe    100095 <mulitboot2_align_mods+0x5>
  100062:	10 00                	adc    %al,(%eax)
  100064:	00 00                	add    %al,(%eax)
	...

00100068 <multiboot2_fb_tag>:
  100068:	05 00 00 00 14       	add    $0x14000000,%eax
  10006d:	00 00                	add    %al,(%eax)
  10006f:	00 00                	add    %al,(%eax)
  100071:	04 00                	add    $0x0,%al
  100073:	00 00                	add    %al,(%eax)
  100075:	03 00                	add    (%eax),%eax
  100077:	00 20                	add    %ah,(%eax)
  100079:	00 00                	add    %al,(%eax)
  10007b:	00 00                	add    %al,(%eax)
  10007d:	00 00                	add    %al,(%eax)
	...

00100080 <multiboot2_console_flags_tag>:
  100080:	04 00                	add    $0x0,%al
  100082:	00 00                	add    %al,(%eax)
  100084:	0c 00                	or     $0x0,%al
  100086:	00 00                	add    %al,(%eax)
  100088:	02 00                	add    (%eax),%al
  10008a:	00 00                	add    %al,(%eax)
  10008c:	00 00                	add    %al,(%eax)
	...

00100090 <mulitboot2_align_mods>:
  100090:	06                   	push   %es
  100091:	00 00                	add    %al,(%eax)
  100093:	00 08                	add    %cl,(%eax)
  100095:	00 00                	add    %al,(%eax)
	...

00100098 <mulitboot_relocatable_tag>:
  100098:	0a 00                	or     (%eax),%al
  10009a:	00 00                	add    %al,(%eax)
  10009c:	18 00                	sbb    %al,(%eax)
  10009e:	00 00                	add    %al,(%eax)
  1000a0:	00 00                	add    %al,(%eax)
  1000a2:	10 00                	adc    %al,(%eax)
  1000a4:	00 00                	add    %al,(%eax)
  1000a6:	20 00                	and    %al,(%eax)
  1000a8:	00 10                	add    %dl,(%eax)
  1000aa:	00 00                	add    %al,(%eax)
  1000ac:	01 00                	add    %eax,(%eax)
	...

001000b0 <clock_update>:
  1000b0:	55                   	push   %ebp
  1000b1:	89 e5                	mov    %esp,%ebp
  1000b3:	83 ec 28             	sub    $0x28,%esp
  1000b6:	8b 45 08             	mov    0x8(%ebp),%eax
  1000b9:	89 45 e0             	mov    %eax,-0x20(%ebp)
  1000bc:	8b 45 0c             	mov    0xc(%ebp),%eax
  1000bf:	89 45 e4             	mov    %eax,-0x1c(%ebp)
  1000c2:	8b 45 e0             	mov    -0x20(%ebp),%eax
  1000c5:	8b 55 e4             	mov    -0x1c(%ebp),%edx
  1000c8:	a3 18 90 10 00       	mov    %eax,0x109018
  1000cd:	89 15 1c 90 10 00    	mov    %edx,0x10901c
  1000d3:	c7 45 f4 00 00 00 00 	movl   $0x0,-0xc(%ebp)
  1000da:	eb 30                	jmp    10010c <clock_update+0x5c>
  1000dc:	8b 45 f4             	mov    -0xc(%ebp),%eax
  1000df:	8b 04 85 40 90 10 00 	mov    0x109040(,%eax,4),%eax
  1000e6:	85 c0                	test   %eax,%eax
  1000e8:	74 1e                	je     100108 <clock_update+0x58>
  1000ea:	8b 45 f4             	mov    -0xc(%ebp),%eax
  1000ed:	8b 04 85 40 90 10 00 	mov    0x109040(,%eax,4),%eax
  1000f4:	89 45 f0             	mov    %eax,-0x10(%ebp)
  1000f7:	83 ec 08             	sub    $0x8,%esp
  1000fa:	ff 75 e4             	push   -0x1c(%ebp)
  1000fd:	ff 75 e0             	push   -0x20(%ebp)
  100100:	8b 45 f0             	mov    -0x10(%ebp),%eax
  100103:	ff d0                	call   *%eax
  100105:	83 c4 10             	add    $0x10,%esp
  100108:	83 45 f4 01          	addl   $0x1,-0xc(%ebp)
  10010c:	83 7d f4 7f          	cmpl   $0x7f,-0xc(%ebp)
  100110:	7e ca                	jle    1000dc <clock_update+0x2c>
  100112:	90                   	nop
  100113:	90                   	nop
  100114:	c9                   	leave  
  100115:	c3                   	ret    

00100116 <clock_gettimeofday>:
  100116:	55                   	push   %ebp
  100117:	89 e5                	mov    %esp,%ebp
  100119:	83 ec 28             	sub    $0x28,%esp
  10011c:	a1 00 90 10 00       	mov    0x109000,%eax
  100121:	ff d0                	call   *%eax
  100123:	89 45 f0             	mov    %eax,-0x10(%ebp)
  100126:	89 55 f4             	mov    %edx,-0xc(%ebp)
  100129:	a1 08 90 10 00       	mov    0x109008,%eax
  10012e:	8d 55 e0             	lea    -0x20(%ebp),%edx
  100131:	52                   	push   %edx
  100132:	8d 55 e8             	lea    -0x18(%ebp),%edx
  100135:	52                   	push   %edx
  100136:	ff 75 f4             	push   -0xc(%ebp)
  100139:	ff 75 f0             	push   -0x10(%ebp)
  10013c:	ff d0                	call   *%eax
  10013e:	83 c4 10             	add    $0x10,%esp
  100141:	a1 10 90 10 00       	mov    0x109010,%eax
  100146:	8b 15 14 90 10 00    	mov    0x109014,%edx
  10014c:	89 c1                	mov    %eax,%ecx
  10014e:	8b 45 e8             	mov    -0x18(%ebp),%eax
  100151:	8b 55 ec             	mov    -0x14(%ebp),%edx
  100154:	01 c8                	add    %ecx,%eax
  100156:	89 c2                	mov    %eax,%edx
  100158:	8b 45 08             	mov    0x8(%ebp),%eax
  10015b:	89 10                	mov    %edx,(%eax)
  10015d:	8b 45 e0             	mov    -0x20(%ebp),%eax
  100160:	8b 55 e4             	mov    -0x1c(%ebp),%edx
  100163:	89 c2                	mov    %eax,%edx
  100165:	8b 45 08             	mov    0x8(%ebp),%eax
  100168:	89 50 04             	mov    %edx,0x4(%eax)
  10016b:	b8 00 00 00 00       	mov    $0x0,%eax
  100170:	c9                   	leave  
  100171:	c3                   	ret    

00100172 <clock_settimeofday>:
  100172:	55                   	push   %ebp
  100173:	89 e5                	mov    %esp,%ebp
  100175:	53                   	push   %ebx
  100176:	83 ec 14             	sub    $0x14,%esp
  100179:	83 7d 08 00          	cmpl   $0x0,0x8(%ebp)
  10017d:	75 07                	jne    100186 <clock_settimeofday+0x14>
  10017f:	b8 ea ff ff ff       	mov    $0xffffffea,%eax
  100184:	eb 66                	jmp    1001ec <clock_settimeofday+0x7a>
  100186:	8b 45 08             	mov    0x8(%ebp),%eax
  100189:	8b 40 04             	mov    0x4(%eax),%eax
  10018c:	3d 40 42 0f 00       	cmp    $0xf4240,%eax
  100191:	7e 07                	jle    10019a <clock_settimeofday+0x28>
  100193:	b8 ea ff ff ff       	mov    $0xffffffea,%eax
  100198:	eb 52                	jmp    1001ec <clock_settimeofday+0x7a>
  10019a:	e8 30 54 00 00       	call   1055cf <now>
  10019f:	89 45 f0             	mov    %eax,-0x10(%ebp)
  1001a2:	89 55 f4             	mov    %edx,-0xc(%ebp)
  1001a5:	8b 0d 10 90 10 00    	mov    0x109010,%ecx
  1001ab:	8b 1d 14 90 10 00    	mov    0x109014,%ebx
  1001b1:	8b 45 08             	mov    0x8(%ebp),%eax
  1001b4:	8b 00                	mov    (%eax),%eax
  1001b6:	99                   	cltd   
  1001b7:	2b 45 f0             	sub    -0x10(%ebp),%eax
  1001ba:	1b 55 f4             	sbb    -0xc(%ebp),%edx
  1001bd:	01 c8                	add    %ecx,%eax
  1001bf:	11 da                	adc    %ebx,%edx
  1001c1:	a3 10 90 10 00       	mov    %eax,0x109010
  1001c6:	89 15 14 90 10 00    	mov    %edx,0x109014
  1001cc:	8b 0d 0c 90 10 00    	mov    0x10900c,%ecx
  1001d2:	a1 10 90 10 00       	mov    0x109010,%eax
  1001d7:	8b 15 14 90 10 00    	mov    0x109014,%edx
  1001dd:	83 ec 08             	sub    $0x8,%esp
  1001e0:	52                   	push   %edx
  1001e1:	50                   	push   %eax
  1001e2:	ff d1                	call   *%ecx
  1001e4:	83 c4 10             	add    $0x10,%esp
  1001e7:	b8 00 00 00 00       	mov    $0x0,%eax
  1001ec:	8b 5d fc             	mov    -0x4(%ebp),%ebx
  1001ef:	c9                   	leave  
  1001f0:	c3                   	ret    

001001f1 <clock_relative>:
  1001f1:	55                   	push   %ebp
  1001f2:	89 e5                	mov    %esp,%ebp
  1001f4:	56                   	push   %esi
  1001f5:	53                   	push   %ebx
  1001f6:	83 ec 20             	sub    $0x20,%esp
  1001f9:	a1 00 90 10 00       	mov    0x109000,%eax
  1001fe:	ff d0                	call   *%eax
  100200:	89 45 f0             	mov    %eax,-0x10(%ebp)
  100203:	89 55 f4             	mov    %edx,-0xc(%ebp)
  100206:	a1 08 90 10 00       	mov    0x109008,%eax
  10020b:	8d 55 e0             	lea    -0x20(%ebp),%edx
  10020e:	52                   	push   %edx
  10020f:	8d 55 e8             	lea    -0x18(%ebp),%edx
  100212:	52                   	push   %edx
  100213:	ff 75 f4             	push   -0xc(%ebp)
  100216:	ff 75 f0             	push   -0x10(%ebp)
  100219:	ff d0                	call   *%eax
  10021b:	83 c4 10             	add    $0x10,%esp
  10021e:	8b 4d 0c             	mov    0xc(%ebp),%ecx
  100221:	bb 00 00 00 00       	mov    $0x0,%ebx
  100226:	8b 45 e8             	mov    -0x18(%ebp),%eax
  100229:	8b 55 ec             	mov    -0x14(%ebp),%edx
  10022c:	01 c8                	add    %ecx,%eax
  10022e:	11 da                	adc    %ebx,%edx
  100230:	bb 3f 42 0f 00       	mov    $0xf423f,%ebx
  100235:	b9 00 00 00 00       	mov    $0x0,%ecx
  10023a:	39 c3                	cmp    %eax,%ebx
  10023c:	19 d1                	sbb    %edx,%ecx
  10023e:	73 65                	jae    1002a5 <clock_relative+0xb4>
  100240:	8b 45 e8             	mov    -0x18(%ebp),%eax
  100243:	8b 55 ec             	mov    -0x14(%ebp),%edx
  100246:	89 c2                	mov    %eax,%edx
  100248:	8b 45 08             	mov    0x8(%ebp),%eax
  10024b:	8d 34 02             	lea    (%edx,%eax,1),%esi
  10024e:	8b 4d 0c             	mov    0xc(%ebp),%ecx
  100251:	bb 00 00 00 00       	mov    $0x0,%ebx
  100256:	8b 45 e0             	mov    -0x20(%ebp),%eax
  100259:	8b 55 e4             	mov    -0x1c(%ebp),%edx
  10025c:	01 c8                	add    %ecx,%eax
  10025e:	11 da                	adc    %ebx,%edx
  100260:	6a 00                	push   $0x0
  100262:	68 40 42 0f 00       	push   $0xf4240
  100267:	52                   	push   %edx
  100268:	50                   	push   %eax
  100269:	e8 a2 53 00 00       	call   105610 <__udivdi3>
  10026e:	83 c4 10             	add    $0x10,%esp
  100271:	8d 14 06             	lea    (%esi,%eax,1),%edx
  100274:	8b 45 10             	mov    0x10(%ebp),%eax
  100277:	89 10                	mov    %edx,(%eax)
  100279:	8b 4d 0c             	mov    0xc(%ebp),%ecx
  10027c:	bb 00 00 00 00       	mov    $0x0,%ebx
  100281:	8b 45 e0             	mov    -0x20(%ebp),%eax
  100284:	8b 55 e4             	mov    -0x1c(%ebp),%edx
  100287:	01 c8                	add    %ecx,%eax
  100289:	11 da                	adc    %ebx,%edx
  10028b:	6a 00                	push   $0x0
  10028d:	68 40 42 0f 00       	push   $0xf4240
  100292:	52                   	push   %edx
  100293:	50                   	push   %eax
  100294:	e8 97 54 00 00       	call   105730 <__umoddi3>
  100299:	83 c4 10             	add    $0x10,%esp
  10029c:	89 c2                	mov    %eax,%edx
  10029e:	8b 45 14             	mov    0x14(%ebp),%eax
  1002a1:	89 10                	mov    %edx,(%eax)
  1002a3:	eb 24                	jmp    1002c9 <clock_relative+0xd8>
  1002a5:	8b 45 e8             	mov    -0x18(%ebp),%eax
  1002a8:	8b 55 ec             	mov    -0x14(%ebp),%edx
  1002ab:	89 c2                	mov    %eax,%edx
  1002ad:	8b 45 08             	mov    0x8(%ebp),%eax
  1002b0:	01 c2                	add    %eax,%edx
  1002b2:	8b 45 10             	mov    0x10(%ebp),%eax
  1002b5:	89 10                	mov    %edx,(%eax)
  1002b7:	8b 45 e0             	mov    -0x20(%ebp),%eax
  1002ba:	8b 55 e4             	mov    -0x1c(%ebp),%edx
  1002bd:	89 c2                	mov    %eax,%edx
  1002bf:	8b 45 0c             	mov    0xc(%ebp),%eax
  1002c2:	01 c2                	add    %eax,%edx
  1002c4:	8b 45 14             	mov    0x14(%ebp),%eax
  1002c7:	89 10                	mov    %edx,(%eax)
  1002c9:	90                   	nop
  1002ca:	8d 65 f8             	lea    -0x8(%ebp),%esp
  1002cd:	5b                   	pop    %ebx
  1002ce:	5e                   	pop    %esi
  1002cf:	5d                   	pop    %ebp
  1002d0:	c3                   	ret    

001002d1 <clock_registerUpdateCallback>:
  1002d1:	55                   	push   %ebp
  1002d2:	89 e5                	mov    %esp,%ebp
  1002d4:	83 ec 10             	sub    $0x10,%esp
  1002d7:	c7 45 fc ff ff ff ff 	movl   $0xffffffff,-0x4(%ebp)
  1002de:	c7 45 f8 00 00 00 00 	movl   $0x0,-0x8(%ebp)
  1002e5:	eb 1a                	jmp    100301 <clock_registerUpdateCallback+0x30>
  1002e7:	8b 45 f8             	mov    -0x8(%ebp),%eax
  1002ea:	8b 04 85 40 90 10 00 	mov    0x109040(,%eax,4),%eax
  1002f1:	85 c0                	test   %eax,%eax
  1002f3:	74 08                	je     1002fd <clock_registerUpdateCallback+0x2c>
  1002f5:	8b 45 f8             	mov    -0x8(%ebp),%eax
  1002f8:	89 45 fc             	mov    %eax,-0x4(%ebp)
  1002fb:	eb 0a                	jmp    100307 <clock_registerUpdateCallback+0x36>
  1002fd:	83 45 f8 01          	addl   $0x1,-0x8(%ebp)
  100301:	83 7d f8 7f          	cmpl   $0x7f,-0x8(%ebp)
  100305:	7e e0                	jle    1002e7 <clock_registerUpdateCallback+0x16>
  100307:	83 7d fc ff          	cmpl   $0xffffffff,-0x4(%ebp)
  10030b:	75 07                	jne    100314 <clock_registerUpdateCallback+0x43>
  10030d:	b8 ea ff ff ff       	mov    $0xffffffea,%eax
  100312:	eb 10                	jmp    100324 <clock_registerUpdateCallback+0x53>
  100314:	8b 45 fc             	mov    -0x4(%ebp),%eax
  100317:	8b 55 08             	mov    0x8(%ebp),%edx
  10031a:	89 14 85 40 90 10 00 	mov    %edx,0x109040(,%eax,4)
  100321:	8b 45 fc             	mov    -0x4(%ebp),%eax
  100324:	c9                   	leave  
  100325:	c3                   	ret    

00100326 <clock_unregisterUpdateCallback>:
  100326:	55                   	push   %ebp
  100327:	89 e5                	mov    %esp,%ebp
  100329:	83 7d 08 00          	cmpl   $0x0,0x8(%ebp)
  10032d:	78 10                	js     10033f <clock_unregisterUpdateCallback+0x19>
  10032f:	8b 45 08             	mov    0x8(%ebp),%eax
  100332:	c7 04 85 40 90 10 00 	movl   $0x0,0x109040(,%eax,4)
  100339:	00 00 00 00 
  10033d:	eb 01                	jmp    100340 <clock_unregisterUpdateCallback+0x1a>
  10033f:	90                   	nop
  100340:	5d                   	pop    %ebp
  100341:	c3                   	ret    

00100342 <clock_getBoottime>:
  100342:	55                   	push   %ebp
  100343:	89 e5                	mov    %esp,%ebp
  100345:	a1 10 90 10 00       	mov    0x109010,%eax
  10034a:	8b 15 14 90 10 00    	mov    0x109014,%edx
  100350:	5d                   	pop    %ebp
  100351:	c3                   	ret    

00100352 <clock_setDevice>:
  100352:	55                   	push   %ebp
  100353:	89 e5                	mov    %esp,%ebp
  100355:	8b 45 08             	mov    0x8(%ebp),%eax
  100358:	a3 00 90 10 00       	mov    %eax,0x109000
  10035d:	8b 45 0c             	mov    0xc(%ebp),%eax
  100360:	a3 04 90 10 00       	mov    %eax,0x109004
  100365:	8b 45 10             	mov    0x10(%ebp),%eax
  100368:	a3 08 90 10 00       	mov    %eax,0x109008
  10036d:	8b 45 14             	mov    0x14(%ebp),%eax
  100370:	a3 0c 90 10 00       	mov    %eax,0x10900c
  100375:	8b 45 18             	mov    0x18(%ebp),%eax
  100378:	a3 10 90 10 00       	mov    %eax,0x109010
  10037d:	8b 45 1c             	mov    0x1c(%ebp),%eax
  100380:	a3 14 90 10 00       	mov    %eax,0x109014
  100385:	c7 05 20 90 10 00 01 	movl   $0x1,0x109020
  10038c:	00 00 00 
  10038f:	90                   	nop
  100390:	5d                   	pop    %ebp
  100391:	c3                   	ret    

00100392 <clock_isReady>:
  100392:	55                   	push   %ebp
  100393:	89 e5                	mov    %esp,%ebp
  100395:	a1 20 90 10 00       	mov    0x109020,%eax
  10039a:	5d                   	pop    %ebp
  10039b:	c3                   	ret    

0010039c <serial_print>:
  10039c:	55                   	push   %ebp
  10039d:	89 e5                	mov    %esp,%ebp
  10039f:	83 ec 18             	sub    $0x18,%esp
  1003a2:	8b 45 0c             	mov    0xc(%ebp),%eax
  1003a5:	88 45 f4             	mov    %al,-0xc(%ebp)
  1003a8:	a1 40 92 10 00       	mov    0x109240,%eax
  1003ad:	85 c0                	test   %eax,%eax
  1003af:	75 07                	jne    1003b8 <serial_print+0x1c>
  1003b1:	b8 00 00 00 00       	mov    $0x0,%eax
  1003b6:	eb 27                	jmp    1003df <serial_print+0x43>
  1003b8:	80 7d f4 0a          	cmpb   $0xa,-0xc(%ebp)
  1003bc:	75 0f                	jne    1003cd <serial_print+0x31>
  1003be:	a1 40 92 10 00       	mov    0x109240,%eax
  1003c3:	83 ec 0c             	sub    $0xc,%esp
  1003c6:	6a 0d                	push   $0xd
  1003c8:	ff d0                	call   *%eax
  1003ca:	83 c4 10             	add    $0x10,%esp
  1003cd:	a1 40 92 10 00       	mov    0x109240,%eax
  1003d2:	0f be 55 f4          	movsbl -0xc(%ebp),%edx
  1003d6:	83 ec 0c             	sub    $0xc,%esp
  1003d9:	52                   	push   %edx
  1003da:	ff d0                	call   *%eax
  1003dc:	83 c4 10             	add    $0x10,%esp
  1003df:	c9                   	leave  
  1003e0:	c3                   	ret    

001003e1 <serial_setWriteMethod>:
  1003e1:	55                   	push   %ebp
  1003e2:	89 e5                	mov    %esp,%ebp
  1003e4:	83 7d 08 00          	cmpl   $0x0,0x8(%ebp)
  1003e8:	74 08                	je     1003f2 <serial_setWriteMethod+0x11>
  1003ea:	8b 45 08             	mov    0x8(%ebp),%eax
  1003ed:	a3 40 92 10 00       	mov    %eax,0x109240
  1003f2:	90                   	nop
  1003f3:	5d                   	pop    %ebp
  1003f4:	c3                   	ret    

001003f5 <serial_printf>:
  1003f5:	55                   	push   %ebp
  1003f6:	89 e5                	mov    %esp,%ebp
  1003f8:	83 ec 18             	sub    $0x18,%esp
  1003fb:	8d 45 0c             	lea    0xc(%ebp),%eax
  1003fe:	89 45 f0             	mov    %eax,-0x10(%ebp)
  100401:	8b 45 f0             	mov    -0x10(%ebp),%eax
  100404:	50                   	push   %eax
  100405:	ff 75 08             	push   0x8(%ebp)
  100408:	6a 00                	push   $0x0
  10040a:	68 9c 03 10 00       	push   $0x10039c
  10040f:	e8 c0 34 00 00       	call   1038d4 <xvasprintf>
  100414:	83 c4 10             	add    $0x10,%esp
  100417:	89 45 f4             	mov    %eax,-0xc(%ebp)
  10041a:	8b 45 f4             	mov    -0xc(%ebp),%eax
  10041d:	c9                   	leave  
  10041e:	c3                   	ret    

0010041f <debug_print>:
  10041f:	55                   	push   %ebp
  100420:	89 e5                	mov    %esp,%ebp
  100422:	83 ec 18             	sub    $0x18,%esp
  100425:	8b 45 0c             	mov    0xc(%ebp),%eax
  100428:	88 45 f4             	mov    %al,-0xc(%ebp)
  10042b:	a1 44 92 10 00       	mov    0x109244,%eax
  100430:	85 c0                	test   %eax,%eax
  100432:	75 07                	jne    10043b <debug_print+0x1c>
  100434:	b8 00 00 00 00       	mov    $0x0,%eax
  100439:	eb 27                	jmp    100462 <debug_print+0x43>
  10043b:	80 7d f4 0a          	cmpb   $0xa,-0xc(%ebp)
  10043f:	75 0f                	jne    100450 <debug_print+0x31>
  100441:	a1 44 92 10 00       	mov    0x109244,%eax
  100446:	83 ec 0c             	sub    $0xc,%esp
  100449:	6a 0d                	push   $0xd
  10044b:	ff d0                	call   *%eax
  10044d:	83 c4 10             	add    $0x10,%esp
  100450:	a1 44 92 10 00       	mov    0x109244,%eax
  100455:	0f be 55 f4          	movsbl -0xc(%ebp),%edx
  100459:	83 ec 0c             	sub    $0xc,%esp
  10045c:	52                   	push   %edx
  10045d:	ff d0                	call   *%eax
  10045f:	83 c4 10             	add    $0x10,%esp
  100462:	c9                   	leave  
  100463:	c3                   	ret    

00100464 <debug_write>:
  100464:	55                   	push   %ebp
  100465:	89 e5                	mov    %esp,%ebp
  100467:	83 ec 18             	sub    $0x18,%esp
  10046a:	c7 45 f4 00 00 00 00 	movl   $0x0,-0xc(%ebp)
  100471:	eb 20                	jmp    100493 <debug_write+0x2f>
  100473:	8b 55 0c             	mov    0xc(%ebp),%edx
  100476:	8b 45 f4             	mov    -0xc(%ebp),%eax
  100479:	01 d0                	add    %edx,%eax
  10047b:	0f b6 00             	movzbl (%eax),%eax
  10047e:	0f be c0             	movsbl %al,%eax
  100481:	83 ec 08             	sub    $0x8,%esp
  100484:	50                   	push   %eax
  100485:	6a 00                	push   $0x0
  100487:	e8 93 ff ff ff       	call   10041f <debug_print>
  10048c:	83 c4 10             	add    $0x10,%esp
  10048f:	83 45 f4 01          	addl   $0x1,-0xc(%ebp)
  100493:	8b 45 f4             	mov    -0xc(%ebp),%eax
  100496:	3b 45 08             	cmp    0x8(%ebp),%eax
  100499:	72 d8                	jb     100473 <debug_write+0xf>
  10049b:	b8 00 00 00 00       	mov    $0x0,%eax
  1004a0:	c9                   	leave  
  1004a1:	c3                   	ret    

001004a2 <dprintf_internal>:
  1004a2:	55                   	push   %ebp
  1004a3:	89 e5                	mov    %esp,%ebp
  1004a5:	81 ec a8 00 00 00    	sub    $0xa8,%esp
  1004ab:	83 7d 10 00          	cmpl   $0x0,0x10(%ebp)
  1004af:	0f 84 42 01 00 00    	je     1005f7 <dprintf_internal+0x155>
  1004b5:	83 7d 10 04          	cmpl   $0x4,0x10(%ebp)
  1004b9:	74 68                	je     100523 <dprintf_internal+0x81>
  1004bb:	83 7d 10 04          	cmpl   $0x4,0x10(%ebp)
  1004bf:	77 7a                	ja     10053b <dprintf_internal+0x99>
  1004c1:	83 7d 10 03          	cmpl   $0x3,0x10(%ebp)
  1004c5:	74 44                	je     10050b <dprintf_internal+0x69>
  1004c7:	83 7d 10 03          	cmpl   $0x3,0x10(%ebp)
  1004cb:	77 6e                	ja     10053b <dprintf_internal+0x99>
  1004cd:	83 7d 10 01          	cmpl   $0x1,0x10(%ebp)
  1004d1:	74 08                	je     1004db <dprintf_internal+0x39>
  1004d3:	83 7d 10 02          	cmpl   $0x2,0x10(%ebp)
  1004d7:	74 1a                	je     1004f3 <dprintf_internal+0x51>
  1004d9:	eb 60                	jmp    10053b <dprintf_internal+0x99>
  1004db:	83 ec 04             	sub    $0x4,%esp
  1004de:	6a 04                	push   $0x4
  1004e0:	68 ee 60 10 00       	push   $0x1060ee
  1004e5:	8d 45 e7             	lea    -0x19(%ebp),%eax
  1004e8:	50                   	push   %eax
  1004e9:	e8 18 42 00 00       	call   104706 <strncpy>
  1004ee:	83 c4 10             	add    $0x10,%esp
  1004f1:	eb 5e                	jmp    100551 <dprintf_internal+0xaf>
  1004f3:	83 ec 04             	sub    $0x4,%esp
  1004f6:	6a 04                	push   $0x4
  1004f8:	68 f3 60 10 00       	push   $0x1060f3
  1004fd:	8d 45 e7             	lea    -0x19(%ebp),%eax
  100500:	50                   	push   %eax
  100501:	e8 00 42 00 00       	call   104706 <strncpy>
  100506:	83 c4 10             	add    $0x10,%esp
  100509:	eb 46                	jmp    100551 <dprintf_internal+0xaf>
  10050b:	83 ec 04             	sub    $0x4,%esp
  10050e:	6a 04                	push   $0x4
  100510:	68 f8 60 10 00       	push   $0x1060f8
  100515:	8d 45 e7             	lea    -0x19(%ebp),%eax
  100518:	50                   	push   %eax
  100519:	e8 e8 41 00 00       	call   104706 <strncpy>
  10051e:	83 c4 10             	add    $0x10,%esp
  100521:	eb 2e                	jmp    100551 <dprintf_internal+0xaf>
  100523:	83 ec 04             	sub    $0x4,%esp
  100526:	6a 04                	push   $0x4
  100528:	68 fd 60 10 00       	push   $0x1060fd
  10052d:	8d 45 e7             	lea    -0x19(%ebp),%eax
  100530:	50                   	push   %eax
  100531:	e8 d0 41 00 00       	call   104706 <strncpy>
  100536:	83 c4 10             	add    $0x10,%esp
  100539:	eb 16                	jmp    100551 <dprintf_internal+0xaf>
  10053b:	83 ec 04             	sub    $0x4,%esp
  10053e:	6a 04                	push   $0x4
  100540:	68 02 61 10 00       	push   $0x106102
  100545:	8d 45 e7             	lea    -0x19(%ebp),%eax
  100548:	50                   	push   %eax
  100549:	e8 b8 41 00 00       	call   104706 <strncpy>
  10054e:	83 c4 10             	add    $0x10,%esp
  100551:	c6 45 eb 00          	movb   $0x0,-0x15(%ebp)
  100555:	c7 45 f4 00 00 00 00 	movl   $0x0,-0xc(%ebp)
  10055c:	e8 31 fe ff ff       	call   100392 <clock_isReady>
  100561:	85 c0                	test   %eax,%eax
  100563:	75 22                	jne    100587 <dprintf_internal+0xe5>
  100565:	8d 45 e7             	lea    -0x19(%ebp),%eax
  100568:	50                   	push   %eax
  100569:	68 07 61 10 00       	push   $0x106107
  10056e:	68 80 00 00 00       	push   $0x80
  100573:	8d 85 67 ff ff ff    	lea    -0x99(%ebp),%eax
  100579:	50                   	push   %eax
  10057a:	e8 00 40 00 00       	call   10457f <snprintf>
  10057f:	83 c4 10             	add    $0x10,%esp
  100582:	89 45 f4             	mov    %eax,-0xc(%ebp)
  100585:	eb 59                	jmp    1005e0 <dprintf_internal+0x13e>
  100587:	83 ec 0c             	sub    $0xc,%esp
  10058a:	8d 85 5c ff ff ff    	lea    -0xa4(%ebp),%eax
  100590:	50                   	push   %eax
  100591:	e8 fb 4f 00 00       	call   105591 <time>
  100596:	83 c4 10             	add    $0x10,%esp
  100599:	83 ec 0c             	sub    $0xc,%esp
  10059c:	8d 85 5c ff ff ff    	lea    -0xa4(%ebp),%eax
  1005a2:	50                   	push   %eax
  1005a3:	e8 37 46 00 00       	call   104bdf <localtime>
  1005a8:	83 c4 10             	add    $0x10,%esp
  1005ab:	89 45 f0             	mov    %eax,-0x10(%ebp)
  1005ae:	83 ec 0c             	sub    $0xc,%esp
  1005b1:	ff 75 f0             	push   -0x10(%ebp)
  1005b4:	e8 b4 4f 00 00       	call   10556d <asctime>
  1005b9:	83 c4 10             	add    $0x10,%esp
  1005bc:	83 ec 0c             	sub    $0xc,%esp
  1005bf:	8d 55 e7             	lea    -0x19(%ebp),%edx
  1005c2:	52                   	push   %edx
  1005c3:	50                   	push   %eax
  1005c4:	68 1e 61 10 00       	push   $0x10611e
  1005c9:	68 80 00 00 00       	push   $0x80
  1005ce:	8d 85 67 ff ff ff    	lea    -0x99(%ebp),%eax
  1005d4:	50                   	push   %eax
  1005d5:	e8 a5 3f 00 00       	call   10457f <snprintf>
  1005da:	83 c4 20             	add    $0x20,%esp
  1005dd:	89 45 f4             	mov    %eax,-0xc(%ebp)
  1005e0:	83 ec 08             	sub    $0x8,%esp
  1005e3:	8d 85 67 ff ff ff    	lea    -0x99(%ebp),%eax
  1005e9:	50                   	push   %eax
  1005ea:	ff 75 f4             	push   -0xc(%ebp)
  1005ed:	e8 72 fe ff ff       	call   100464 <debug_write>
  1005f2:	83 c4 10             	add    $0x10,%esp
  1005f5:	eb 01                	jmp    1005f8 <dprintf_internal+0x156>
  1005f7:	90                   	nop
  1005f8:	8d 45 18             	lea    0x18(%ebp),%eax
  1005fb:	89 85 60 ff ff ff    	mov    %eax,-0xa0(%ebp)
  100601:	8b 85 60 ff ff ff    	mov    -0xa0(%ebp),%eax
  100607:	50                   	push   %eax
  100608:	ff 75 14             	push   0x14(%ebp)
  10060b:	6a 00                	push   $0x0
  10060d:	68 1f 04 10 00       	push   $0x10041f
  100612:	e8 bd 32 00 00       	call   1038d4 <xvasprintf>
  100617:	83 c4 10             	add    $0x10,%esp
  10061a:	89 45 ec             	mov    %eax,-0x14(%ebp)
  10061d:	8b 45 ec             	mov    -0x14(%ebp),%eax
  100620:	c9                   	leave  
  100621:	c3                   	ret    

00100622 <debug_setOutput>:
  100622:	55                   	push   %ebp
  100623:	89 e5                	mov    %esp,%ebp
  100625:	8b 45 08             	mov    0x8(%ebp),%eax
  100628:	a3 44 92 10 00       	mov    %eax,0x109244
  10062d:	90                   	nop
  10062e:	5d                   	pop    %ebp
  10062f:	c3                   	ret    

00100630 <kernel_panic_putchar>:
  100630:	55                   	push   %ebp
  100631:	89 e5                	mov    %esp,%ebp
  100633:	83 ec 18             	sub    $0x18,%esp
  100636:	8b 45 0c             	mov    0xc(%ebp),%eax
  100639:	88 45 f4             	mov    %al,-0xc(%ebp)
  10063c:	0f be 45 f4          	movsbl -0xc(%ebp),%eax
  100640:	83 ec 0c             	sub    $0xc,%esp
  100643:	50                   	push   %eax
  100644:	68 bc 62 10 00       	push   $0x1062bc
  100649:	6a 00                	push   $0x0
  10064b:	6a 2b                	push   $0x2b
  10064d:	68 bf 62 10 00       	push   $0x1062bf
  100652:	e8 4b fe ff ff       	call   1004a2 <dprintf_internal>
  100657:	83 c4 20             	add    $0x20,%esp
  10065a:	b8 00 00 00 00       	mov    $0x0,%eax
  10065f:	c9                   	leave  
  100660:	c3                   	ret    

00100661 <kernel_panic_extended>:
  100661:	55                   	push   %ebp
  100662:	89 e5                	mov    %esp,%ebp
  100664:	83 ec 18             	sub    $0x18,%esp
  100667:	8b 55 08             	mov    0x8(%ebp),%edx
  10066a:	a1 20 80 10 00       	mov    0x108020,%eax
  10066f:	39 c2                	cmp    %eax,%edx
  100671:	7c 15                	jl     100688 <kernel_panic_extended+0x27>
  100673:	ff 75 08             	push   0x8(%ebp)
  100676:	68 d4 62 10 00       	push   $0x1062d4
  10067b:	ff 75 0c             	push   0xc(%ebp)
  10067e:	6a 02                	push   $0x2
  100680:	e8 dc ff ff ff       	call   100661 <kernel_panic_extended>
  100685:	83 c4 10             	add    $0x10,%esp
  100688:	e8 c3 1b 00 00       	call   102250 <arch_panic_prepare>
  10068d:	68 14 63 10 00       	push   $0x106314
  100692:	6a 00                	push   $0x0
  100694:	6a 40                	push   $0x40
  100696:	68 bf 62 10 00       	push   $0x1062bf
  10069b:	e8 02 fe ff ff       	call   1004a2 <dprintf_internal>
  1006a0:	83 c4 10             	add    $0x10,%esp
  1006a3:	68 18 63 10 00       	push   $0x106318
  1006a8:	6a 00                	push   $0x0
  1006aa:	6a 41                	push   $0x41
  1006ac:	68 bf 62 10 00       	push   $0x1062bf
  1006b1:	e8 ec fd ff ff       	call   1004a2 <dprintf_internal>
  1006b6:	83 c4 10             	add    $0x10,%esp
  1006b9:	68 60 63 10 00       	push   $0x106360
  1006be:	6a 00                	push   $0x0
  1006c0:	6a 42                	push   $0x42
  1006c2:	68 bf 62 10 00       	push   $0x1062bf
  1006c7:	e8 d6 fd ff ff       	call   1004a2 <dprintf_internal>
  1006cc:	83 c4 10             	add    $0x10,%esp
  1006cf:	68 a4 63 10 00       	push   $0x1063a4
  1006d4:	6a 00                	push   $0x0
  1006d6:	6a 43                	push   $0x43
  1006d8:	68 bf 62 10 00       	push   $0x1062bf
  1006dd:	e8 c0 fd ff ff       	call   1004a2 <dprintf_internal>
  1006e2:	83 c4 10             	add    $0x10,%esp
  1006e5:	8b 45 08             	mov    0x8(%ebp),%eax
  1006e8:	8b 04 85 24 80 10 00 	mov    0x108024(,%eax,4),%eax
  1006ef:	83 ec 08             	sub    $0x8,%esp
  1006f2:	ff 75 0c             	push   0xc(%ebp)
  1006f5:	50                   	push   %eax
  1006f6:	68 dd 63 10 00       	push   $0x1063dd
  1006fb:	6a 00                	push   $0x0
  1006fd:	6a 45                	push   $0x45
  1006ff:	68 bf 62 10 00       	push   $0x1062bf
  100704:	e8 99 fd ff ff       	call   1004a2 <dprintf_internal>
  100709:	83 c4 20             	add    $0x20,%esp
  10070c:	8d 45 14             	lea    0x14(%ebp),%eax
  10070f:	89 45 f4             	mov    %eax,-0xc(%ebp)
  100712:	8b 45 f4             	mov    -0xc(%ebp),%eax
  100715:	50                   	push   %eax
  100716:	ff 75 10             	push   0x10(%ebp)
  100719:	6a 00                	push   $0x0
  10071b:	68 30 06 10 00       	push   $0x100630
  100720:	e8 af 31 00 00       	call   1038d4 <xvasprintf>
  100725:	83 c4 10             	add    $0x10,%esp
  100728:	8b 45 08             	mov    0x8(%ebp),%eax
  10072b:	8b 04 85 34 80 10 00 	mov    0x108034(,%eax,4),%eax
  100732:	83 ec 0c             	sub    $0xc,%esp
  100735:	50                   	push   %eax
  100736:	68 f9 63 10 00       	push   $0x1063f9
  10073b:	6a 00                	push   $0x0
  10073d:	6a 4d                	push   $0x4d
  10073f:	68 bf 62 10 00       	push   $0x1062bf
  100744:	e8 59 fd ff ff       	call   1004a2 <dprintf_internal>
  100749:	83 c4 20             	add    $0x20,%esp
  10074c:	68 00 64 10 00       	push   $0x106400
  100751:	6a 00                	push   $0x0
  100753:	6a 50                	push   $0x50
  100755:	68 bf 62 10 00       	push   $0x1062bf
  10075a:	e8 43 fd ff ff       	call   1004a2 <dprintf_internal>
  10075f:	83 c4 10             	add    $0x10,%esp
  100762:	e8 ef 1a 00 00       	call   102256 <arch_panic_finalize>
  100767:	90                   	nop
  100768:	c9                   	leave  
  100769:	c3                   	ret    

0010076a <kernel_panic>:
  10076a:	55                   	push   %ebp
  10076b:	89 e5                	mov    %esp,%ebp
  10076d:	83 ec 08             	sub    $0x8,%esp
  100770:	8b 55 08             	mov    0x8(%ebp),%edx
  100773:	a1 20 80 10 00       	mov    0x108020,%eax
  100778:	39 c2                	cmp    %eax,%edx
  10077a:	7c 15                	jl     100791 <kernel_panic+0x27>
  10077c:	ff 75 08             	push   0x8(%ebp)
  10077f:	68 54 64 10 00       	push   $0x106454
  100784:	ff 75 0c             	push   0xc(%ebp)
  100787:	6a 02                	push   $0x2
  100789:	e8 d3 fe ff ff       	call   100661 <kernel_panic_extended>
  10078e:	83 c4 10             	add    $0x10,%esp
  100791:	e8 ba 1a 00 00       	call   102250 <arch_panic_prepare>
  100796:	68 14 63 10 00       	push   $0x106314
  10079b:	6a 00                	push   $0x0
  10079d:	6a 63                	push   $0x63
  10079f:	68 bf 62 10 00       	push   $0x1062bf
  1007a4:	e8 f9 fc ff ff       	call   1004a2 <dprintf_internal>
  1007a9:	83 c4 10             	add    $0x10,%esp
  1007ac:	68 18 63 10 00       	push   $0x106318
  1007b1:	6a 00                	push   $0x0
  1007b3:	6a 64                	push   $0x64
  1007b5:	68 bf 62 10 00       	push   $0x1062bf
  1007ba:	e8 e3 fc ff ff       	call   1004a2 <dprintf_internal>
  1007bf:	83 c4 10             	add    $0x10,%esp
  1007c2:	68 60 63 10 00       	push   $0x106360
  1007c7:	6a 00                	push   $0x0
  1007c9:	6a 65                	push   $0x65
  1007cb:	68 bf 62 10 00       	push   $0x1062bf
  1007d0:	e8 cd fc ff ff       	call   1004a2 <dprintf_internal>
  1007d5:	83 c4 10             	add    $0x10,%esp
  1007d8:	68 a4 63 10 00       	push   $0x1063a4
  1007dd:	6a 00                	push   $0x0
  1007df:	6a 66                	push   $0x66
  1007e1:	68 bf 62 10 00       	push   $0x1062bf
  1007e6:	e8 b7 fc ff ff       	call   1004a2 <dprintf_internal>
  1007eb:	83 c4 10             	add    $0x10,%esp
  1007ee:	8b 45 08             	mov    0x8(%ebp),%eax
  1007f1:	8b 04 85 24 80 10 00 	mov    0x108024(,%eax,4),%eax
  1007f8:	83 ec 08             	sub    $0x8,%esp
  1007fb:	ff 75 0c             	push   0xc(%ebp)
  1007fe:	50                   	push   %eax
  1007ff:	68 dd 63 10 00       	push   $0x1063dd
  100804:	6a 00                	push   $0x0
  100806:	6a 67                	push   $0x67
  100808:	68 bf 62 10 00       	push   $0x1062bf
  10080d:	e8 90 fc ff ff       	call   1004a2 <dprintf_internal>
  100812:	83 c4 20             	add    $0x20,%esp
  100815:	8b 45 08             	mov    0x8(%ebp),%eax
  100818:	8b 04 85 34 80 10 00 	mov    0x108034(,%eax,4),%eax
  10081f:	83 ec 0c             	sub    $0xc,%esp
  100822:	50                   	push   %eax
  100823:	68 8b 64 10 00       	push   $0x10648b
  100828:	6a 00                	push   $0x0
  10082a:	6a 68                	push   $0x68
  10082c:	68 bf 62 10 00       	push   $0x1062bf
  100831:	e8 6c fc ff ff       	call   1004a2 <dprintf_internal>
  100836:	83 c4 20             	add    $0x20,%esp
  100839:	68 00 64 10 00       	push   $0x106400
  10083e:	6a 00                	push   $0x0
  100840:	6a 6b                	push   $0x6b
  100842:	68 bf 62 10 00       	push   $0x1062bf
  100847:	e8 56 fc ff ff       	call   1004a2 <dprintf_internal>
  10084c:	83 c4 10             	add    $0x10,%esp
  10084f:	e8 02 1a 00 00       	call   102256 <arch_panic_finalize>
  100854:	90                   	nop
  100855:	c9                   	leave  
  100856:	c3                   	ret    

00100857 <kernel_panic_prepare>:
  100857:	55                   	push   %ebp
  100858:	89 e5                	mov    %esp,%ebp
  10085a:	83 ec 08             	sub    $0x8,%esp
  10085d:	e8 ee 19 00 00       	call   102250 <arch_panic_prepare>
  100862:	68 14 63 10 00       	push   $0x106314
  100867:	6a 00                	push   $0x0
  100869:	6a 75                	push   $0x75
  10086b:	68 bf 62 10 00       	push   $0x1062bf
  100870:	e8 2d fc ff ff       	call   1004a2 <dprintf_internal>
  100875:	83 c4 10             	add    $0x10,%esp
  100878:	68 18 63 10 00       	push   $0x106318
  10087d:	6a 00                	push   $0x0
  10087f:	6a 76                	push   $0x76
  100881:	68 bf 62 10 00       	push   $0x1062bf
  100886:	e8 17 fc ff ff       	call   1004a2 <dprintf_internal>
  10088b:	83 c4 10             	add    $0x10,%esp
  10088e:	68 60 63 10 00       	push   $0x106360
  100893:	6a 00                	push   $0x0
  100895:	6a 77                	push   $0x77
  100897:	68 bf 62 10 00       	push   $0x1062bf
  10089c:	e8 01 fc ff ff       	call   1004a2 <dprintf_internal>
  1008a1:	83 c4 10             	add    $0x10,%esp
  1008a4:	68 a4 63 10 00       	push   $0x1063a4
  1008a9:	6a 00                	push   $0x0
  1008ab:	6a 78                	push   $0x78
  1008ad:	68 bf 62 10 00       	push   $0x1062bf
  1008b2:	e8 eb fb ff ff       	call   1004a2 <dprintf_internal>
  1008b7:	83 c4 10             	add    $0x10,%esp
  1008ba:	90                   	nop
  1008bb:	c9                   	leave  
  1008bc:	c3                   	ret    

001008bd <kernel_panic_finalize>:
  1008bd:	55                   	push   %ebp
  1008be:	89 e5                	mov    %esp,%ebp
  1008c0:	83 ec 08             	sub    $0x8,%esp
  1008c3:	68 00 64 10 00       	push   $0x106400
  1008c8:	6a 00                	push   $0x0
  1008ca:	6a 7f                	push   $0x7f
  1008cc:	68 bf 62 10 00       	push   $0x1062bf
  1008d1:	e8 cc fb ff ff       	call   1004a2 <dprintf_internal>
  1008d6:	83 c4 10             	add    $0x10,%esp
  1008d9:	e8 78 19 00 00       	call   102256 <arch_panic_finalize>
  1008de:	90                   	nop
  1008df:	c9                   	leave  
  1008e0:	c3                   	ret    

001008e1 <pmm_init>:
  1008e1:	55                   	push   %ebp
  1008e2:	89 e5                	mov    %esp,%ebp
  1008e4:	83 ec 08             	sub    $0x8,%esp
  1008e7:	83 7d 08 00          	cmpl   $0x0,0x8(%ebp)
  1008eb:	74 06                	je     1008f3 <pmm_init+0x12>
  1008ed:	83 7d 0c 00          	cmpl   $0x0,0xc(%ebp)
  1008f1:	75 12                	jne    100905 <pmm_init+0x24>
  1008f3:	83 ec 08             	sub    $0x8,%esp
  1008f6:	68 8e 64 10 00       	push   $0x10648e
  1008fb:	6a 02                	push   $0x2
  1008fd:	e8 68 fe ff ff       	call   10076a <kernel_panic>
  100902:	83 c4 10             	add    $0x10,%esp
  100905:	8b 45 08             	mov    0x8(%ebp),%eax
  100908:	a3 50 92 10 00       	mov    %eax,0x109250
  10090d:	a1 50 92 10 00       	mov    0x109250,%eax
  100912:	c1 e8 0c             	shr    $0xc,%eax
  100915:	a3 58 92 10 00       	mov    %eax,0x109258
  10091a:	a1 58 92 10 00       	mov    0x109258,%eax
  10091f:	a3 54 92 10 00       	mov    %eax,0x109254
  100924:	8b 45 0c             	mov    0xc(%ebp),%eax
  100927:	a3 48 92 10 00       	mov    %eax,0x109248
  10092c:	a1 58 92 10 00       	mov    0x109258,%eax
  100931:	a3 4c 92 10 00       	mov    %eax,0x10924c
  100936:	a1 4c 92 10 00       	mov    0x10924c,%eax
  10093b:	c1 e8 03             	shr    $0x3,%eax
  10093e:	89 c2                	mov    %eax,%edx
  100940:	a1 48 92 10 00       	mov    0x109248,%eax
  100945:	83 ec 04             	sub    $0x4,%esp
  100948:	52                   	push   %edx
  100949:	6a 0f                	push   $0xf
  10094b:	50                   	push   %eax
  10094c:	e8 88 3d 00 00       	call   1046d9 <memset>
  100951:	83 c4 10             	add    $0x10,%esp
  100954:	b8 00 00 00 00       	mov    $0x0,%eax
  100959:	c9                   	leave  
  10095a:	c3                   	ret    

0010095b <pmm_setFrame>:
  10095b:	55                   	push   %ebp
  10095c:	89 e5                	mov    %esp,%ebp
  10095e:	56                   	push   %esi
  10095f:	53                   	push   %ebx
  100960:	8b 15 48 92 10 00    	mov    0x109248,%edx
  100966:	8b 45 08             	mov    0x8(%ebp),%eax
  100969:	8d 48 1f             	lea    0x1f(%eax),%ecx
  10096c:	85 c0                	test   %eax,%eax
  10096e:	0f 48 c1             	cmovs  %ecx,%eax
  100971:	c1 f8 05             	sar    $0x5,%eax
  100974:	89 c3                	mov    %eax,%ebx
  100976:	89 d8                	mov    %ebx,%eax
  100978:	c1 e0 02             	shl    $0x2,%eax
  10097b:	01 d0                	add    %edx,%eax
  10097d:	8b 10                	mov    (%eax),%edx
  10097f:	8b 45 08             	mov    0x8(%ebp),%eax
  100982:	83 e0 1f             	and    $0x1f,%eax
  100985:	be 01 00 00 00       	mov    $0x1,%esi
  10098a:	89 c1                	mov    %eax,%ecx
  10098c:	d3 e6                	shl    %cl,%esi
  10098e:	89 f0                	mov    %esi,%eax
  100990:	89 c6                	mov    %eax,%esi
  100992:	a1 48 92 10 00       	mov    0x109248,%eax
  100997:	89 d9                	mov    %ebx,%ecx
  100999:	c1 e1 02             	shl    $0x2,%ecx
  10099c:	01 c8                	add    %ecx,%eax
  10099e:	09 f2                	or     %esi,%edx
  1009a0:	89 10                	mov    %edx,(%eax)
  1009a2:	90                   	nop
  1009a3:	5b                   	pop    %ebx
  1009a4:	5e                   	pop    %esi
  1009a5:	5d                   	pop    %ebp
  1009a6:	c3                   	ret    

001009a7 <pmm_clearFrame>:
  1009a7:	55                   	push   %ebp
  1009a8:	89 e5                	mov    %esp,%ebp
  1009aa:	56                   	push   %esi
  1009ab:	53                   	push   %ebx
  1009ac:	8b 15 48 92 10 00    	mov    0x109248,%edx
  1009b2:	8b 45 08             	mov    0x8(%ebp),%eax
  1009b5:	8d 48 1f             	lea    0x1f(%eax),%ecx
  1009b8:	85 c0                	test   %eax,%eax
  1009ba:	0f 48 c1             	cmovs  %ecx,%eax
  1009bd:	c1 f8 05             	sar    $0x5,%eax
  1009c0:	89 c3                	mov    %eax,%ebx
  1009c2:	89 d8                	mov    %ebx,%eax
  1009c4:	c1 e0 02             	shl    $0x2,%eax
  1009c7:	01 d0                	add    %edx,%eax
  1009c9:	8b 10                	mov    (%eax),%edx
  1009cb:	8b 45 08             	mov    0x8(%ebp),%eax
  1009ce:	83 e0 1f             	and    $0x1f,%eax
  1009d1:	be 01 00 00 00       	mov    $0x1,%esi
  1009d6:	89 c1                	mov    %eax,%ecx
  1009d8:	d3 e6                	shl    %cl,%esi
  1009da:	89 f0                	mov    %esi,%eax
  1009dc:	f7 d0                	not    %eax
  1009de:	89 c6                	mov    %eax,%esi
  1009e0:	a1 48 92 10 00       	mov    0x109248,%eax
  1009e5:	89 d9                	mov    %ebx,%ecx
  1009e7:	c1 e1 02             	shl    $0x2,%ecx
  1009ea:	01 c8                	add    %ecx,%eax
  1009ec:	21 f2                	and    %esi,%edx
  1009ee:	89 10                	mov    %edx,(%eax)
  1009f0:	90                   	nop
  1009f1:	5b                   	pop    %ebx
  1009f2:	5e                   	pop    %esi
  1009f3:	5d                   	pop    %ebp
  1009f4:	c3                   	ret    

001009f5 <pmm_testFrame>:
  1009f5:	55                   	push   %ebp
  1009f6:	89 e5                	mov    %esp,%ebp
  1009f8:	53                   	push   %ebx
  1009f9:	8b 15 48 92 10 00    	mov    0x109248,%edx
  1009ff:	8b 45 08             	mov    0x8(%ebp),%eax
  100a02:	8d 48 1f             	lea    0x1f(%eax),%ecx
  100a05:	85 c0                	test   %eax,%eax
  100a07:	0f 48 c1             	cmovs  %ecx,%eax
  100a0a:	c1 f8 05             	sar    $0x5,%eax
  100a0d:	c1 e0 02             	shl    $0x2,%eax
  100a10:	01 d0                	add    %edx,%eax
  100a12:	8b 00                	mov    (%eax),%eax
  100a14:	8b 55 08             	mov    0x8(%ebp),%edx
  100a17:	83 e2 1f             	and    $0x1f,%edx
  100a1a:	bb 01 00 00 00       	mov    $0x1,%ebx
  100a1f:	89 d1                	mov    %edx,%ecx
  100a21:	d3 e3                	shl    %cl,%ebx
  100a23:	89 da                	mov    %ebx,%edx
  100a25:	21 d0                	and    %edx,%eax
  100a27:	8b 5d fc             	mov    -0x4(%ebp),%ebx
  100a2a:	c9                   	leave  
  100a2b:	c3                   	ret    

00100a2c <pmm_findFirstFrame>:
  100a2c:	55                   	push   %ebp
  100a2d:	89 e5                	mov    %esp,%ebp
  100a2f:	53                   	push   %ebx
  100a30:	83 ec 10             	sub    $0x10,%esp
  100a33:	c7 45 f8 00 00 00 00 	movl   $0x0,-0x8(%ebp)
  100a3a:	eb 5d                	jmp    100a99 <pmm_findFirstFrame+0x6d>
  100a3c:	a1 48 92 10 00       	mov    0x109248,%eax
  100a41:	8b 55 f8             	mov    -0x8(%ebp),%edx
  100a44:	c1 e2 02             	shl    $0x2,%edx
  100a47:	01 d0                	add    %edx,%eax
  100a49:	8b 00                	mov    (%eax),%eax
  100a4b:	83 f8 ff             	cmp    $0xffffffff,%eax
  100a4e:	74 45                	je     100a95 <pmm_findFirstFrame+0x69>
  100a50:	c7 45 f4 00 00 00 00 	movl   $0x0,-0xc(%ebp)
  100a57:	eb 36                	jmp    100a8f <pmm_findFirstFrame+0x63>
  100a59:	a1 48 92 10 00       	mov    0x109248,%eax
  100a5e:	8b 55 f8             	mov    -0x8(%ebp),%edx
  100a61:	c1 e2 02             	shl    $0x2,%edx
  100a64:	01 d0                	add    %edx,%eax
  100a66:	8b 10                	mov    (%eax),%edx
  100a68:	8b 45 f4             	mov    -0xc(%ebp),%eax
  100a6b:	bb 01 00 00 00       	mov    $0x1,%ebx
  100a70:	89 c1                	mov    %eax,%ecx
  100a72:	d3 e3                	shl    %cl,%ebx
  100a74:	89 d8                	mov    %ebx,%eax
  100a76:	21 d0                	and    %edx,%eax
  100a78:	85 c0                	test   %eax,%eax
  100a7a:	75 0f                	jne    100a8b <pmm_findFirstFrame+0x5f>
  100a7c:	8b 45 f8             	mov    -0x8(%ebp),%eax
  100a7f:	c1 e0 05             	shl    $0x5,%eax
  100a82:	89 c2                	mov    %eax,%edx
  100a84:	8b 45 f4             	mov    -0xc(%ebp),%eax
  100a87:	01 d0                	add    %edx,%eax
  100a89:	eb 20                	jmp    100aab <pmm_findFirstFrame+0x7f>
  100a8b:	83 45 f4 01          	addl   $0x1,-0xc(%ebp)
  100a8f:	83 7d f4 1f          	cmpl   $0x1f,-0xc(%ebp)
  100a93:	76 c4                	jbe    100a59 <pmm_findFirstFrame+0x2d>
  100a95:	83 45 f8 01          	addl   $0x1,-0x8(%ebp)
  100a99:	a1 4c 92 10 00       	mov    0x10924c,%eax
  100a9e:	c1 e8 05             	shr    $0x5,%eax
  100aa1:	39 45 f8             	cmp    %eax,-0x8(%ebp)
  100aa4:	72 96                	jb     100a3c <pmm_findFirstFrame+0x10>
  100aa6:	b8 f4 ff ff ff       	mov    $0xfffffff4,%eax
  100aab:	8b 5d fc             	mov    -0x4(%ebp),%ebx
  100aae:	c9                   	leave  
  100aaf:	c3                   	ret    

00100ab0 <pmm_findFirstFrames>:
  100ab0:	55                   	push   %ebp
  100ab1:	89 e5                	mov    %esp,%ebp
  100ab3:	53                   	push   %ebx
  100ab4:	83 ec 20             	sub    $0x20,%esp
  100ab7:	83 7d 08 00          	cmpl   $0x0,0x8(%ebp)
  100abb:	75 0a                	jne    100ac7 <pmm_findFirstFrames+0x17>
  100abd:	b8 00 00 00 00       	mov    $0x0,%eax
  100ac2:	e9 e7 00 00 00       	jmp    100bae <pmm_findFirstFrames+0xfe>
  100ac7:	83 7d 08 01          	cmpl   $0x1,0x8(%ebp)
  100acb:	75 0a                	jne    100ad7 <pmm_findFirstFrames+0x27>
  100acd:	e8 5a ff ff ff       	call   100a2c <pmm_findFirstFrame>
  100ad2:	e9 d7 00 00 00       	jmp    100bae <pmm_findFirstFrames+0xfe>
  100ad7:	c7 45 f8 00 00 00 00 	movl   $0x0,-0x8(%ebp)
  100ade:	e9 b5 00 00 00       	jmp    100b98 <pmm_findFirstFrames+0xe8>
  100ae3:	a1 48 92 10 00       	mov    0x109248,%eax
  100ae8:	8b 55 f8             	mov    -0x8(%ebp),%edx
  100aeb:	c1 e2 02             	shl    $0x2,%edx
  100aee:	01 d0                	add    %edx,%eax
  100af0:	8b 00                	mov    (%eax),%eax
  100af2:	83 f8 ff             	cmp    $0xffffffff,%eax
  100af5:	0f 84 99 00 00 00    	je     100b94 <pmm_findFirstFrames+0xe4>
  100afb:	c7 45 f4 00 00 00 00 	movl   $0x0,-0xc(%ebp)
  100b02:	e9 83 00 00 00       	jmp    100b8a <pmm_findFirstFrames+0xda>
  100b07:	a1 48 92 10 00       	mov    0x109248,%eax
  100b0c:	8b 55 f8             	mov    -0x8(%ebp),%edx
  100b0f:	c1 e2 02             	shl    $0x2,%edx
  100b12:	01 d0                	add    %edx,%eax
  100b14:	8b 10                	mov    (%eax),%edx
  100b16:	8b 45 f4             	mov    -0xc(%ebp),%eax
  100b19:	bb 01 00 00 00       	mov    $0x1,%ebx
  100b1e:	89 c1                	mov    %eax,%ecx
  100b20:	d3 e3                	shl    %cl,%ebx
  100b22:	89 d8                	mov    %ebx,%eax
  100b24:	21 d0                	and    %edx,%eax
  100b26:	85 c0                	test   %eax,%eax
  100b28:	75 5c                	jne    100b86 <pmm_findFirstFrames+0xd6>
  100b2a:	8b 45 f8             	mov    -0x8(%ebp),%eax
  100b2d:	c1 e0 05             	shl    $0x5,%eax
  100b30:	89 c2                	mov    %eax,%edx
  100b32:	8b 45 f4             	mov    -0xc(%ebp),%eax
  100b35:	01 d0                	add    %edx,%eax
  100b37:	89 45 e8             	mov    %eax,-0x18(%ebp)
  100b3a:	c7 45 f0 00 00 00 00 	movl   $0x0,-0x10(%ebp)
  100b41:	c7 45 ec 00 00 00 00 	movl   $0x0,-0x14(%ebp)
  100b48:	eb 34                	jmp    100b7e <pmm_findFirstFrames+0xce>
  100b4a:	8b 55 e8             	mov    -0x18(%ebp),%edx
  100b4d:	8b 45 ec             	mov    -0x14(%ebp),%eax
  100b50:	01 d0                	add    %edx,%eax
  100b52:	50                   	push   %eax
  100b53:	e8 9d fe ff ff       	call   1009f5 <pmm_testFrame>
  100b58:	83 c4 04             	add    $0x4,%esp
  100b5b:	85 c0                	test   %eax,%eax
  100b5d:	75 04                	jne    100b63 <pmm_findFirstFrames+0xb3>
  100b5f:	83 45 f0 01          	addl   $0x1,-0x10(%ebp)
  100b63:	8b 45 f0             	mov    -0x10(%ebp),%eax
  100b66:	3b 45 08             	cmp    0x8(%ebp),%eax
  100b69:	75 0f                	jne    100b7a <pmm_findFirstFrames+0xca>
  100b6b:	8b 45 f8             	mov    -0x8(%ebp),%eax
  100b6e:	c1 e0 05             	shl    $0x5,%eax
  100b71:	89 c2                	mov    %eax,%edx
  100b73:	8b 45 f4             	mov    -0xc(%ebp),%eax
  100b76:	01 d0                	add    %edx,%eax
  100b78:	eb 34                	jmp    100bae <pmm_findFirstFrames+0xfe>
  100b7a:	83 45 ec 01          	addl   $0x1,-0x14(%ebp)
  100b7e:	8b 45 ec             	mov    -0x14(%ebp),%eax
  100b81:	3b 45 08             	cmp    0x8(%ebp),%eax
  100b84:	72 c4                	jb     100b4a <pmm_findFirstFrames+0x9a>
  100b86:	83 45 f4 01          	addl   $0x1,-0xc(%ebp)
  100b8a:	83 7d f4 1f          	cmpl   $0x1f,-0xc(%ebp)
  100b8e:	0f 86 73 ff ff ff    	jbe    100b07 <pmm_findFirstFrames+0x57>
  100b94:	83 45 f8 01          	addl   $0x1,-0x8(%ebp)
  100b98:	a1 4c 92 10 00       	mov    0x10924c,%eax
  100b9d:	c1 e8 05             	shr    $0x5,%eax
  100ba0:	39 45 f8             	cmp    %eax,-0x8(%ebp)
  100ba3:	0f 82 3a ff ff ff    	jb     100ae3 <pmm_findFirstFrames+0x33>
  100ba9:	b8 f4 ff ff ff       	mov    $0xfffffff4,%eax
  100bae:	8b 5d fc             	mov    -0x4(%ebp),%ebx
  100bb1:	c9                   	leave  
  100bb2:	c3                   	ret    

00100bb3 <pmm_initializeRegion>:
  100bb3:	55                   	push   %ebp
  100bb4:	89 e5                	mov    %esp,%ebp
  100bb6:	83 ec 10             	sub    $0x10,%esp
  100bb9:	83 7d 0c 00          	cmpl   $0x0,0xc(%ebp)
  100bbd:	74 4c                	je     100c0b <pmm_initializeRegion+0x58>
  100bbf:	83 7d 08 00          	cmpl   $0x0,0x8(%ebp)
  100bc3:	74 08                	je     100bcd <pmm_initializeRegion+0x1a>
  100bc5:	8b 45 08             	mov    0x8(%ebp),%eax
  100bc8:	c1 e8 0c             	shr    $0xc,%eax
  100bcb:	eb 05                	jmp    100bd2 <pmm_initializeRegion+0x1f>
  100bcd:	b8 00 00 00 00       	mov    $0x0,%eax
  100bd2:	89 45 fc             	mov    %eax,-0x4(%ebp)
  100bd5:	8b 45 0c             	mov    0xc(%ebp),%eax
  100bd8:	c1 e8 0c             	shr    $0xc,%eax
  100bdb:	89 45 f8             	mov    %eax,-0x8(%ebp)
  100bde:	eb 23                	jmp    100c03 <pmm_initializeRegion+0x50>
  100be0:	8b 45 fc             	mov    -0x4(%ebp),%eax
  100be3:	8d 50 01             	lea    0x1(%eax),%edx
  100be6:	89 55 fc             	mov    %edx,-0x4(%ebp)
  100be9:	50                   	push   %eax
  100bea:	e8 b8 fd ff ff       	call   1009a7 <pmm_clearFrame>
  100bef:	83 c4 04             	add    $0x4,%esp
  100bf2:	a1 54 92 10 00       	mov    0x109254,%eax
  100bf7:	83 e8 01             	sub    $0x1,%eax
  100bfa:	a3 54 92 10 00       	mov    %eax,0x109254
  100bff:	83 6d f8 01          	subl   $0x1,-0x8(%ebp)
  100c03:	83 7d f8 00          	cmpl   $0x0,-0x8(%ebp)
  100c07:	7f d7                	jg     100be0 <pmm_initializeRegion+0x2d>
  100c09:	eb 01                	jmp    100c0c <pmm_initializeRegion+0x59>
  100c0b:	90                   	nop
  100c0c:	c9                   	leave  
  100c0d:	c3                   	ret    

00100c0e <pmm_deinitializeRegion>:
  100c0e:	55                   	push   %ebp
  100c0f:	89 e5                	mov    %esp,%ebp
  100c11:	83 ec 10             	sub    $0x10,%esp
  100c14:	83 7d 0c 00          	cmpl   $0x0,0xc(%ebp)
  100c18:	74 4c                	je     100c66 <pmm_deinitializeRegion+0x58>
  100c1a:	83 7d 08 00          	cmpl   $0x0,0x8(%ebp)
  100c1e:	74 08                	je     100c28 <pmm_deinitializeRegion+0x1a>
  100c20:	8b 45 08             	mov    0x8(%ebp),%eax
  100c23:	c1 e8 0c             	shr    $0xc,%eax
  100c26:	eb 05                	jmp    100c2d <pmm_deinitializeRegion+0x1f>
  100c28:	b8 00 00 00 00       	mov    $0x0,%eax
  100c2d:	89 45 fc             	mov    %eax,-0x4(%ebp)
  100c30:	8b 45 0c             	mov    0xc(%ebp),%eax
  100c33:	c1 e8 0c             	shr    $0xc,%eax
  100c36:	89 45 f8             	mov    %eax,-0x8(%ebp)
  100c39:	eb 23                	jmp    100c5e <pmm_deinitializeRegion+0x50>
  100c3b:	8b 45 fc             	mov    -0x4(%ebp),%eax
  100c3e:	8d 50 01             	lea    0x1(%eax),%edx
  100c41:	89 55 fc             	mov    %edx,-0x4(%ebp)
  100c44:	50                   	push   %eax
  100c45:	e8 11 fd ff ff       	call   10095b <pmm_setFrame>
  100c4a:	83 c4 04             	add    $0x4,%esp
  100c4d:	a1 54 92 10 00       	mov    0x109254,%eax
  100c52:	83 c0 01             	add    $0x1,%eax
  100c55:	a3 54 92 10 00       	mov    %eax,0x109254
  100c5a:	83 6d f8 01          	subl   $0x1,-0x8(%ebp)
  100c5e:	83 7d f8 00          	cmpl   $0x0,-0x8(%ebp)
  100c62:	7f d7                	jg     100c3b <pmm_deinitializeRegion+0x2d>
  100c64:	eb 01                	jmp    100c67 <pmm_deinitializeRegion+0x59>
  100c66:	90                   	nop
  100c67:	c9                   	leave  
  100c68:	c3                   	ret    

00100c69 <pmm_allocateBlock>:
  100c69:	55                   	push   %ebp
  100c6a:	89 e5                	mov    %esp,%ebp
  100c6c:	83 ec 18             	sub    $0x18,%esp
  100c6f:	8b 15 58 92 10 00    	mov    0x109258,%edx
  100c75:	a1 54 92 10 00       	mov    0x109254,%eax
  100c7a:	39 c2                	cmp    %eax,%edx
  100c7c:	74 2e                	je     100cac <pmm_allocateBlock+0x43>
  100c7e:	e8 a9 fd ff ff       	call   100a2c <pmm_findFirstFrame>
  100c83:	89 45 f4             	mov    %eax,-0xc(%ebp)
  100c86:	83 7d f4 f4          	cmpl   $0xfffffff4,-0xc(%ebp)
  100c8a:	74 23                	je     100caf <pmm_allocateBlock+0x46>
  100c8c:	ff 75 f4             	push   -0xc(%ebp)
  100c8f:	e8 c7 fc ff ff       	call   10095b <pmm_setFrame>
  100c94:	83 c4 04             	add    $0x4,%esp
  100c97:	a1 54 92 10 00       	mov    0x109254,%eax
  100c9c:	83 c0 01             	add    $0x1,%eax
  100c9f:	a3 54 92 10 00       	mov    %eax,0x109254
  100ca4:	8b 45 f4             	mov    -0xc(%ebp),%eax
  100ca7:	c1 e0 0c             	shl    $0xc,%eax
  100caa:	eb 16                	jmp    100cc2 <pmm_allocateBlock+0x59>
  100cac:	90                   	nop
  100cad:	eb 01                	jmp    100cb0 <pmm_allocateBlock+0x47>
  100caf:	90                   	nop
  100cb0:	83 ec 08             	sub    $0x8,%esp
  100cb3:	68 8e 64 10 00       	push   $0x10648e
  100cb8:	6a 03                	push   $0x3
  100cba:	e8 ab fa ff ff       	call   10076a <kernel_panic>
  100cbf:	83 c4 10             	add    $0x10,%esp
  100cc2:	c9                   	leave  
  100cc3:	c3                   	ret    

00100cc4 <pmm_freeBlock>:
  100cc4:	55                   	push   %ebp
  100cc5:	89 e5                	mov    %esp,%ebp
  100cc7:	83 ec 10             	sub    $0x10,%esp
  100cca:	8b 45 08             	mov    0x8(%ebp),%eax
  100ccd:	25 ff 0f 00 00       	and    $0xfff,%eax
  100cd2:	85 c0                	test   %eax,%eax
  100cd4:	75 30                	jne    100d06 <pmm_freeBlock+0x42>
  100cd6:	83 7d 08 00          	cmpl   $0x0,0x8(%ebp)
  100cda:	74 08                	je     100ce4 <pmm_freeBlock+0x20>
  100cdc:	8b 45 08             	mov    0x8(%ebp),%eax
  100cdf:	c1 e8 0c             	shr    $0xc,%eax
  100ce2:	eb 05                	jmp    100ce9 <pmm_freeBlock+0x25>
  100ce4:	b8 00 00 00 00       	mov    $0x0,%eax
  100ce9:	89 45 fc             	mov    %eax,-0x4(%ebp)
  100cec:	ff 75 fc             	push   -0x4(%ebp)
  100cef:	e8 b3 fc ff ff       	call   1009a7 <pmm_clearFrame>
  100cf4:	83 c4 04             	add    $0x4,%esp
  100cf7:	a1 54 92 10 00       	mov    0x109254,%eax
  100cfc:	83 e8 01             	sub    $0x1,%eax
  100cff:	a3 54 92 10 00       	mov    %eax,0x109254
  100d04:	eb 01                	jmp    100d07 <pmm_freeBlock+0x43>
  100d06:	90                   	nop
  100d07:	c9                   	leave  
  100d08:	c3                   	ret    

00100d09 <pmm_allocateBlocks>:
  100d09:	55                   	push   %ebp
  100d0a:	89 e5                	mov    %esp,%ebp
  100d0c:	83 ec 18             	sub    $0x18,%esp
  100d0f:	83 7d 08 00          	cmpl   $0x0,0x8(%ebp)
  100d13:	75 12                	jne    100d27 <pmm_allocateBlocks+0x1e>
  100d15:	83 ec 08             	sub    $0x8,%esp
  100d18:	68 8e 64 10 00       	push   $0x10648e
  100d1d:	6a 02                	push   $0x2
  100d1f:	e8 46 fa ff ff       	call   10076a <kernel_panic>
  100d24:	83 c4 10             	add    $0x10,%esp
  100d27:	8b 15 58 92 10 00    	mov    0x109258,%edx
  100d2d:	a1 54 92 10 00       	mov    0x109254,%eax
  100d32:	29 c2                	sub    %eax,%edx
  100d34:	39 55 08             	cmp    %edx,0x8(%ebp)
  100d37:	72 12                	jb     100d4b <pmm_allocateBlocks+0x42>
  100d39:	83 ec 08             	sub    $0x8,%esp
  100d3c:	68 8e 64 10 00       	push   $0x10648e
  100d41:	6a 03                	push   $0x3
  100d43:	e8 22 fa ff ff       	call   10076a <kernel_panic>
  100d48:	83 c4 10             	add    $0x10,%esp
  100d4b:	83 ec 0c             	sub    $0xc,%esp
  100d4e:	ff 75 08             	push   0x8(%ebp)
  100d51:	e8 5a fd ff ff       	call   100ab0 <pmm_findFirstFrames>
  100d56:	83 c4 10             	add    $0x10,%esp
  100d59:	89 45 f0             	mov    %eax,-0x10(%ebp)
  100d5c:	83 7d f0 f4          	cmpl   $0xfffffff4,-0x10(%ebp)
  100d60:	75 12                	jne    100d74 <pmm_allocateBlocks+0x6b>
  100d62:	83 ec 08             	sub    $0x8,%esp
  100d65:	68 8e 64 10 00       	push   $0x10648e
  100d6a:	6a 03                	push   $0x3
  100d6c:	e8 f9 f9 ff ff       	call   10076a <kernel_panic>
  100d71:	83 c4 10             	add    $0x10,%esp
  100d74:	c7 45 f4 00 00 00 00 	movl   $0x0,-0xc(%ebp)
  100d7b:	eb 18                	jmp    100d95 <pmm_allocateBlocks+0x8c>
  100d7d:	8b 55 f0             	mov    -0x10(%ebp),%edx
  100d80:	8b 45 f4             	mov    -0xc(%ebp),%eax
  100d83:	01 d0                	add    %edx,%eax
  100d85:	83 ec 0c             	sub    $0xc,%esp
  100d88:	50                   	push   %eax
  100d89:	e8 cd fb ff ff       	call   10095b <pmm_setFrame>
  100d8e:	83 c4 10             	add    $0x10,%esp
  100d91:	83 45 f4 01          	addl   $0x1,-0xc(%ebp)
  100d95:	8b 45 f4             	mov    -0xc(%ebp),%eax
  100d98:	3b 45 08             	cmp    0x8(%ebp),%eax
  100d9b:	72 e0                	jb     100d7d <pmm_allocateBlocks+0x74>
  100d9d:	8b 15 54 92 10 00    	mov    0x109254,%edx
  100da3:	8b 45 08             	mov    0x8(%ebp),%eax
  100da6:	01 d0                	add    %edx,%eax
  100da8:	a3 54 92 10 00       	mov    %eax,0x109254
  100dad:	8b 45 f0             	mov    -0x10(%ebp),%eax
  100db0:	c1 e0 0c             	shl    $0xc,%eax
  100db3:	c9                   	leave  
  100db4:	c3                   	ret    

00100db5 <pmm_freeBlocks>:
  100db5:	55                   	push   %ebp
  100db6:	89 e5                	mov    %esp,%ebp
  100db8:	83 ec 10             	sub    $0x10,%esp
  100dbb:	83 7d 0c 00          	cmpl   $0x0,0xc(%ebp)
  100dbf:	74 4b                	je     100e0c <pmm_freeBlocks+0x57>
  100dc1:	83 7d 08 00          	cmpl   $0x0,0x8(%ebp)
  100dc5:	74 08                	je     100dcf <pmm_freeBlocks+0x1a>
  100dc7:	8b 45 08             	mov    0x8(%ebp),%eax
  100dca:	c1 e8 0c             	shr    $0xc,%eax
  100dcd:	eb 05                	jmp    100dd4 <pmm_freeBlocks+0x1f>
  100dcf:	b8 00 00 00 00       	mov    $0x0,%eax
  100dd4:	89 45 f8             	mov    %eax,-0x8(%ebp)
  100dd7:	c7 45 fc 00 00 00 00 	movl   $0x0,-0x4(%ebp)
  100dde:	eb 15                	jmp    100df5 <pmm_freeBlocks+0x40>
  100de0:	8b 55 f8             	mov    -0x8(%ebp),%edx
  100de3:	8b 45 fc             	mov    -0x4(%ebp),%eax
  100de6:	01 d0                	add    %edx,%eax
  100de8:	50                   	push   %eax
  100de9:	e8 b9 fb ff ff       	call   1009a7 <pmm_clearFrame>
  100dee:	83 c4 04             	add    $0x4,%esp
  100df1:	83 45 fc 01          	addl   $0x1,-0x4(%ebp)
  100df5:	8b 45 fc             	mov    -0x4(%ebp),%eax
  100df8:	3b 45 0c             	cmp    0xc(%ebp),%eax
  100dfb:	72 e3                	jb     100de0 <pmm_freeBlocks+0x2b>
  100dfd:	a1 54 92 10 00       	mov    0x109254,%eax
  100e02:	2b 45 0c             	sub    0xc(%ebp),%eax
  100e05:	a3 54 92 10 00       	mov    %eax,0x109254
  100e0a:	eb 01                	jmp    100e0d <pmm_freeBlocks+0x58>
  100e0c:	90                   	nop
  100e0d:	c9                   	leave  
  100e0e:	c3                   	ret    

00100e0f <pmm_getPhysicalMemorySize>:
  100e0f:	55                   	push   %ebp
  100e10:	89 e5                	mov    %esp,%ebp
  100e12:	a1 50 92 10 00       	mov    0x109250,%eax
  100e17:	5d                   	pop    %ebp
  100e18:	c3                   	ret    

00100e19 <pmm_getMaximumBlocks>:
  100e19:	55                   	push   %ebp
  100e1a:	89 e5                	mov    %esp,%ebp
  100e1c:	a1 58 92 10 00       	mov    0x109258,%eax
  100e21:	5d                   	pop    %ebp
  100e22:	c3                   	ret    

00100e23 <pmm_getUsedBlocks>:
  100e23:	55                   	push   %ebp
  100e24:	89 e5                	mov    %esp,%ebp
  100e26:	a1 54 92 10 00       	mov    0x109254,%eax
  100e2b:	5d                   	pop    %ebp
  100e2c:	c3                   	ret    

00100e2d <pmm_getFreeBlocks>:
  100e2d:	55                   	push   %ebp
  100e2e:	89 e5                	mov    %esp,%ebp
  100e30:	8b 15 58 92 10 00    	mov    0x109258,%edx
  100e36:	a1 54 92 10 00       	mov    0x109254,%eax
  100e3b:	29 c2                	sub    %eax,%edx
  100e3d:	89 d0                	mov    %edx,%eax
  100e3f:	5d                   	pop    %ebp
  100e40:	c3                   	ret    

00100e41 <arch_parse_multiboot2>:
  100e41:	55                   	push   %ebp
  100e42:	89 e5                	mov    %esp,%ebp
  100e44:	b8 00 00 00 00       	mov    $0x0,%eax
  100e49:	5d                   	pop    %ebp
  100e4a:	c3                   	ret    

00100e4b <arch_parse_multiboot1>:
  100e4b:	55                   	push   %ebp
  100e4c:	89 e5                	mov    %esp,%ebp
  100e4e:	53                   	push   %ebx
  100e4f:	83 ec 24             	sub    $0x24,%esp
  100e52:	83 ec 0c             	sub    $0xc,%esp
  100e55:	6a 18                	push   $0x18
  100e57:	e8 02 14 00 00       	call   10225e <arch_allocate_structure>
  100e5c:	83 c4 10             	add    $0x10,%esp
  100e5f:	89 45 dc             	mov    %eax,-0x24(%ebp)
  100e62:	8b 45 08             	mov    0x8(%ebp),%eax
  100e65:	8b 40 10             	mov    0x10(%eax),%eax
  100e68:	83 ec 0c             	sub    $0xc,%esp
  100e6b:	50                   	push   %eax
  100e6c:	e8 f8 38 00 00       	call   104769 <strlen>
  100e71:	83 c4 10             	add    $0x10,%esp
  100e74:	85 c0                	test   %eax,%eax
  100e76:	74 4c                	je     100ec4 <arch_parse_multiboot1+0x79>
  100e78:	8b 45 08             	mov    0x8(%ebp),%eax
  100e7b:	8b 40 10             	mov    0x10(%eax),%eax
  100e7e:	83 ec 0c             	sub    $0xc,%esp
  100e81:	50                   	push   %eax
  100e82:	e8 e2 38 00 00       	call   104769 <strlen>
  100e87:	83 c4 10             	add    $0x10,%esp
  100e8a:	8b 55 08             	mov    0x8(%ebp),%edx
  100e8d:	8b 52 10             	mov    0x10(%edx),%edx
  100e90:	83 ec 08             	sub    $0x8,%esp
  100e93:	50                   	push   %eax
  100e94:	52                   	push   %edx
  100e95:	e8 fb 13 00 00       	call   102295 <arch_relocate_structure>
  100e9a:	83 c4 10             	add    $0x10,%esp
  100e9d:	89 c2                	mov    %eax,%edx
  100e9f:	8b 45 dc             	mov    -0x24(%ebp),%eax
  100ea2:	89 10                	mov    %edx,(%eax)
  100ea4:	8b 45 dc             	mov    -0x24(%ebp),%eax
  100ea7:	8b 18                	mov    (%eax),%ebx
  100ea9:	8b 45 dc             	mov    -0x24(%ebp),%eax
  100eac:	8b 00                	mov    (%eax),%eax
  100eae:	83 ec 0c             	sub    $0xc,%esp
  100eb1:	50                   	push   %eax
  100eb2:	e8 b2 38 00 00       	call   104769 <strlen>
  100eb7:	83 c4 10             	add    $0x10,%esp
  100eba:	83 e8 01             	sub    $0x1,%eax
  100ebd:	01 d8                	add    %ebx,%eax
  100ebf:	c6 00 00             	movb   $0x0,(%eax)
  100ec2:	eb 14                	jmp    100ed8 <arch_parse_multiboot1+0x8d>
  100ec4:	83 ec 0c             	sub    $0xc,%esp
  100ec7:	6a 01                	push   $0x1
  100ec9:	e8 90 13 00 00       	call   10225e <arch_allocate_structure>
  100ece:	83 c4 10             	add    $0x10,%esp
  100ed1:	89 c2                	mov    %eax,%edx
  100ed3:	8b 45 dc             	mov    -0x24(%ebp),%eax
  100ed6:	89 10                	mov    %edx,(%eax)
  100ed8:	8b 45 08             	mov    0x8(%ebp),%eax
  100edb:	8b 40 40             	mov    0x40(%eax),%eax
  100ede:	83 ec 0c             	sub    $0xc,%esp
  100ee1:	50                   	push   %eax
  100ee2:	e8 82 38 00 00       	call   104769 <strlen>
  100ee7:	83 c4 10             	add    $0x10,%esp
  100eea:	85 c0                	test   %eax,%eax
  100eec:	74 4f                	je     100f3d <arch_parse_multiboot1+0xf2>
  100eee:	8b 45 08             	mov    0x8(%ebp),%eax
  100ef1:	8b 40 40             	mov    0x40(%eax),%eax
  100ef4:	83 ec 0c             	sub    $0xc,%esp
  100ef7:	50                   	push   %eax
  100ef8:	e8 6c 38 00 00       	call   104769 <strlen>
  100efd:	83 c4 10             	add    $0x10,%esp
  100f00:	8b 55 08             	mov    0x8(%ebp),%edx
  100f03:	8b 52 40             	mov    0x40(%edx),%edx
  100f06:	83 ec 08             	sub    $0x8,%esp
  100f09:	50                   	push   %eax
  100f0a:	52                   	push   %edx
  100f0b:	e8 85 13 00 00       	call   102295 <arch_relocate_structure>
  100f10:	83 c4 10             	add    $0x10,%esp
  100f13:	89 c2                	mov    %eax,%edx
  100f15:	8b 45 dc             	mov    -0x24(%ebp),%eax
  100f18:	89 50 04             	mov    %edx,0x4(%eax)
  100f1b:	8b 45 dc             	mov    -0x24(%ebp),%eax
  100f1e:	8b 58 04             	mov    0x4(%eax),%ebx
  100f21:	8b 45 dc             	mov    -0x24(%ebp),%eax
  100f24:	8b 40 04             	mov    0x4(%eax),%eax
  100f27:	83 ec 0c             	sub    $0xc,%esp
  100f2a:	50                   	push   %eax
  100f2b:	e8 39 38 00 00       	call   104769 <strlen>
  100f30:	83 c4 10             	add    $0x10,%esp
  100f33:	83 e8 01             	sub    $0x1,%eax
  100f36:	01 d8                	add    %ebx,%eax
  100f38:	c6 00 00             	movb   $0x0,(%eax)
  100f3b:	eb 15                	jmp    100f52 <arch_parse_multiboot1+0x107>
  100f3d:	83 ec 0c             	sub    $0xc,%esp
  100f40:	6a 01                	push   $0x1
  100f42:	e8 17 13 00 00       	call   10225e <arch_allocate_structure>
  100f47:	83 c4 10             	add    $0x10,%esp
  100f4a:	89 c2                	mov    %eax,%edx
  100f4c:	8b 45 dc             	mov    -0x24(%ebp),%eax
  100f4f:	89 50 04             	mov    %edx,0x4(%eax)
  100f52:	83 ec 0c             	sub    $0xc,%esp
  100f55:	6a 18                	push   $0x18
  100f57:	e8 02 13 00 00       	call   10225e <arch_allocate_structure>
  100f5c:	83 c4 10             	add    $0x10,%esp
  100f5f:	89 c2                	mov    %eax,%edx
  100f61:	8b 45 dc             	mov    -0x24(%ebp),%eax
  100f64:	89 50 0c             	mov    %edx,0xc(%eax)
  100f67:	8b 45 dc             	mov    -0x24(%ebp),%eax
  100f6a:	8b 48 0c             	mov    0xc(%eax),%ecx
  100f6d:	8b 45 08             	mov    0x8(%ebp),%eax
  100f70:	8b 50 5c             	mov    0x5c(%eax),%edx
  100f73:	8b 40 58             	mov    0x58(%eax),%eax
  100f76:	89 01                	mov    %eax,(%ecx)
  100f78:	89 51 04             	mov    %edx,0x4(%ecx)
  100f7b:	8b 45 dc             	mov    -0x24(%ebp),%eax
  100f7e:	8b 40 0c             	mov    0xc(%eax),%eax
  100f81:	8b 55 08             	mov    0x8(%ebp),%edx
  100f84:	8b 52 64             	mov    0x64(%edx),%edx
  100f87:	89 50 0c             	mov    %edx,0xc(%eax)
  100f8a:	8b 45 dc             	mov    -0x24(%ebp),%eax
  100f8d:	8b 40 0c             	mov    0xc(%eax),%eax
  100f90:	8b 55 08             	mov    0x8(%ebp),%edx
  100f93:	8b 52 68             	mov    0x68(%edx),%edx
  100f96:	89 50 10             	mov    %edx,0x10(%eax)
  100f99:	8b 45 dc             	mov    -0x24(%ebp),%eax
  100f9c:	8b 40 0c             	mov    0xc(%eax),%eax
  100f9f:	8b 55 08             	mov    0x8(%ebp),%edx
  100fa2:	0f b6 52 6c          	movzbl 0x6c(%edx),%edx
  100fa6:	88 50 14             	mov    %dl,0x14(%eax)
  100fa9:	8b 45 dc             	mov    -0x24(%ebp),%eax
  100fac:	8b 40 0c             	mov    0xc(%eax),%eax
  100faf:	8b 55 08             	mov    0x8(%ebp),%edx
  100fb2:	8b 52 60             	mov    0x60(%edx),%edx
  100fb5:	89 50 08             	mov    %edx,0x8(%eax)
  100fb8:	8b 45 08             	mov    0x8(%ebp),%eax
  100fbb:	8b 40 14             	mov    0x14(%eax),%eax
  100fbe:	85 c0                	test   %eax,%eax
  100fc0:	0f 84 51 01 00 00    	je     101117 <arch_parse_multiboot1+0x2cc>
  100fc6:	8b 45 08             	mov    0x8(%ebp),%eax
  100fc9:	8b 40 18             	mov    0x18(%eax),%eax
  100fcc:	89 45 f4             	mov    %eax,-0xc(%ebp)
  100fcf:	83 ec 0c             	sub    $0xc,%esp
  100fd2:	6a 10                	push   $0x10
  100fd4:	e8 85 12 00 00       	call   10225e <arch_allocate_structure>
  100fd9:	83 c4 10             	add    $0x10,%esp
  100fdc:	89 c2                	mov    %eax,%edx
  100fde:	8b 45 dc             	mov    -0x24(%ebp),%eax
  100fe1:	89 50 08             	mov    %edx,0x8(%eax)
  100fe4:	8b 45 f4             	mov    -0xc(%ebp),%eax
  100fe7:	8b 40 08             	mov    0x8(%eax),%eax
  100fea:	83 ec 0c             	sub    $0xc,%esp
  100fed:	50                   	push   %eax
  100fee:	e8 76 37 00 00       	call   104769 <strlen>
  100ff3:	83 c4 10             	add    $0x10,%esp
  100ff6:	8b 55 f4             	mov    -0xc(%ebp),%edx
  100ff9:	8b 52 08             	mov    0x8(%edx),%edx
  100ffc:	83 ec 08             	sub    $0x8,%esp
  100fff:	50                   	push   %eax
  101000:	52                   	push   %edx
  101001:	e8 8f 12 00 00       	call   102295 <arch_relocate_structure>
  101006:	83 c4 10             	add    $0x10,%esp
  101009:	89 c2                	mov    %eax,%edx
  10100b:	8b 45 dc             	mov    -0x24(%ebp),%eax
  10100e:	8b 40 08             	mov    0x8(%eax),%eax
  101011:	89 50 08             	mov    %edx,0x8(%eax)
  101014:	8b 45 dc             	mov    -0x24(%ebp),%eax
  101017:	8b 40 08             	mov    0x8(%eax),%eax
  10101a:	8b 55 f4             	mov    -0xc(%ebp),%edx
  10101d:	8b 12                	mov    (%edx),%edx
  10101f:	89 10                	mov    %edx,(%eax)
  101021:	8b 45 dc             	mov    -0x24(%ebp),%eax
  101024:	8b 40 08             	mov    0x8(%eax),%eax
  101027:	8b 55 f4             	mov    -0xc(%ebp),%edx
  10102a:	8b 52 04             	mov    0x4(%edx),%edx
  10102d:	89 50 04             	mov    %edx,0x4(%eax)
  101030:	8b 45 08             	mov    0x8(%ebp),%eax
  101033:	8b 40 14             	mov    0x14(%eax),%eax
  101036:	83 f8 01             	cmp    $0x1,%eax
  101039:	0f 84 db 00 00 00    	je     10111a <arch_parse_multiboot1+0x2cf>
  10103f:	8b 45 dc             	mov    -0x24(%ebp),%eax
  101042:	8b 40 08             	mov    0x8(%eax),%eax
  101045:	89 45 f0             	mov    %eax,-0x10(%ebp)
  101048:	c7 45 ec 01 00 00 00 	movl   $0x1,-0x14(%ebp)
  10104f:	e9 b2 00 00 00       	jmp    101106 <arch_parse_multiboot1+0x2bb>
  101054:	83 45 f4 10          	addl   $0x10,-0xc(%ebp)
  101058:	83 ec 0c             	sub    $0xc,%esp
  10105b:	6a 10                	push   $0x10
  10105d:	e8 fc 11 00 00       	call   10225e <arch_allocate_structure>
  101062:	83 c4 10             	add    $0x10,%esp
  101065:	89 45 d8             	mov    %eax,-0x28(%ebp)
  101068:	8b 45 f4             	mov    -0xc(%ebp),%eax
  10106b:	8b 40 08             	mov    0x8(%eax),%eax
  10106e:	83 ec 0c             	sub    $0xc,%esp
  101071:	50                   	push   %eax
  101072:	e8 f2 36 00 00       	call   104769 <strlen>
  101077:	83 c4 10             	add    $0x10,%esp
  10107a:	8b 55 f4             	mov    -0xc(%ebp),%edx
  10107d:	8b 52 08             	mov    0x8(%edx),%edx
  101080:	83 ec 08             	sub    $0x8,%esp
  101083:	50                   	push   %eax
  101084:	52                   	push   %edx
  101085:	e8 0b 12 00 00       	call   102295 <arch_relocate_structure>
  10108a:	83 c4 10             	add    $0x10,%esp
  10108d:	89 c2                	mov    %eax,%edx
  10108f:	8b 45 d8             	mov    -0x28(%ebp),%eax
  101092:	89 50 08             	mov    %edx,0x8(%eax)
  101095:	8b 45 f4             	mov    -0xc(%ebp),%eax
  101098:	8b 50 04             	mov    0x4(%eax),%edx
  10109b:	8b 45 f4             	mov    -0xc(%ebp),%eax
  10109e:	8b 00                	mov    (%eax),%eax
  1010a0:	29 c2                	sub    %eax,%edx
  1010a2:	8b 45 f4             	mov    -0xc(%ebp),%eax
  1010a5:	8b 00                	mov    (%eax),%eax
  1010a7:	83 ec 08             	sub    $0x8,%esp
  1010aa:	52                   	push   %edx
  1010ab:	50                   	push   %eax
  1010ac:	e8 e4 11 00 00       	call   102295 <arch_relocate_structure>
  1010b1:	83 c4 10             	add    $0x10,%esp
  1010b4:	8b 55 d8             	mov    -0x28(%ebp),%edx
  1010b7:	89 02                	mov    %eax,(%edx)
  1010b9:	8b 45 d8             	mov    -0x28(%ebp),%eax
  1010bc:	8b 10                	mov    (%eax),%edx
  1010be:	8b 45 f4             	mov    -0xc(%ebp),%eax
  1010c1:	8b 48 04             	mov    0x4(%eax),%ecx
  1010c4:	8b 45 f4             	mov    -0xc(%ebp),%eax
  1010c7:	8b 00                	mov    (%eax),%eax
  1010c9:	29 c1                	sub    %eax,%ecx
  1010cb:	01 ca                	add    %ecx,%edx
  1010cd:	8b 45 d8             	mov    -0x28(%ebp),%eax
  1010d0:	89 50 04             	mov    %edx,0x4(%eax)
  1010d3:	8b 45 d8             	mov    -0x28(%ebp),%eax
  1010d6:	8b 58 08             	mov    0x8(%eax),%ebx
  1010d9:	8b 45 d8             	mov    -0x28(%ebp),%eax
  1010dc:	8b 40 08             	mov    0x8(%eax),%eax
  1010df:	83 ec 0c             	sub    $0xc,%esp
  1010e2:	50                   	push   %eax
  1010e3:	e8 81 36 00 00       	call   104769 <strlen>
  1010e8:	83 c4 10             	add    $0x10,%esp
  1010eb:	83 e8 01             	sub    $0x1,%eax
  1010ee:	01 d8                	add    %ebx,%eax
  1010f0:	c6 00 00             	movb   $0x0,(%eax)
  1010f3:	8b 45 f0             	mov    -0x10(%ebp),%eax
  1010f6:	8b 55 d8             	mov    -0x28(%ebp),%edx
  1010f9:	89 50 0c             	mov    %edx,0xc(%eax)
  1010fc:	8b 45 d8             	mov    -0x28(%ebp),%eax
  1010ff:	89 45 f0             	mov    %eax,-0x10(%ebp)
  101102:	83 45 ec 01          	addl   $0x1,-0x14(%ebp)
  101106:	8b 45 08             	mov    0x8(%ebp),%eax
  101109:	8b 40 14             	mov    0x14(%eax),%eax
  10110c:	39 45 ec             	cmp    %eax,-0x14(%ebp)
  10110f:	0f 82 3f ff ff ff    	jb     101054 <arch_parse_multiboot1+0x209>
  101115:	eb 04                	jmp    10111b <arch_parse_multiboot1+0x2d0>
  101117:	90                   	nop
  101118:	eb 01                	jmp    10111b <arch_parse_multiboot1+0x2d0>
  10111a:	90                   	nop
  10111b:	8b 45 08             	mov    0x8(%ebp),%eax
  10111e:	8b 40 2c             	mov    0x2c(%eax),%eax
  101121:	85 c0                	test   %eax,%eax
  101123:	75 17                	jne    10113c <arch_parse_multiboot1+0x2f1>
  101125:	83 ec 04             	sub    $0x4,%esp
  101128:	68 98 64 10 00       	push   $0x106498
  10112d:	68 06 65 10 00       	push   $0x106506
  101132:	6a 02                	push   $0x2
  101134:	e8 28 f5 ff ff       	call   100661 <kernel_panic_extended>
  101139:	83 c4 10             	add    $0x10,%esp
  10113c:	8b 45 08             	mov    0x8(%ebp),%eax
  10113f:	8b 50 08             	mov    0x8(%eax),%edx
  101142:	8b 45 08             	mov    0x8(%ebp),%eax
  101145:	8b 40 04             	mov    0x4(%eax),%eax
  101148:	01 c2                	add    %eax,%edx
  10114a:	8b 45 dc             	mov    -0x24(%ebp),%eax
  10114d:	89 50 14             	mov    %edx,0x14(%eax)
  101150:	83 ec 0c             	sub    $0xc,%esp
  101153:	6a 18                	push   $0x18
  101155:	e8 04 11 00 00       	call   10225e <arch_allocate_structure>
  10115a:	83 c4 10             	add    $0x10,%esp
  10115d:	89 c2                	mov    %eax,%edx
  10115f:	8b 45 dc             	mov    -0x24(%ebp),%eax
  101162:	89 50 10             	mov    %edx,0x10(%eax)
  101165:	8b 45 dc             	mov    -0x24(%ebp),%eax
  101168:	8b 40 10             	mov    0x10(%eax),%eax
  10116b:	89 45 e4             	mov    %eax,-0x1c(%ebp)
  10116e:	8b 45 dc             	mov    -0x24(%ebp),%eax
  101171:	8b 40 10             	mov    0x10(%eax),%eax
  101174:	89 45 e0             	mov    %eax,-0x20(%ebp)
  101177:	8b 45 08             	mov    0x8(%ebp),%eax
  10117a:	8b 40 30             	mov    0x30(%eax),%eax
  10117d:	89 45 e8             	mov    %eax,-0x18(%ebp)
  101180:	e9 c0 00 00 00       	jmp    101245 <arch_parse_multiboot1+0x3fa>
  101185:	8b 45 e8             	mov    -0x18(%ebp),%eax
  101188:	8b 50 08             	mov    0x8(%eax),%edx
  10118b:	8b 40 04             	mov    0x4(%eax),%eax
  10118e:	8b 4d e0             	mov    -0x20(%ebp),%ecx
  101191:	89 01                	mov    %eax,(%ecx)
  101193:	89 51 04             	mov    %edx,0x4(%ecx)
  101196:	8b 45 e8             	mov    -0x18(%ebp),%eax
  101199:	8b 50 10             	mov    0x10(%eax),%edx
  10119c:	8b 40 0c             	mov    0xc(%eax),%eax
  10119f:	8b 4d e0             	mov    -0x20(%ebp),%ecx
  1011a2:	89 41 08             	mov    %eax,0x8(%ecx)
  1011a5:	89 51 0c             	mov    %edx,0xc(%ecx)
  1011a8:	8b 45 e8             	mov    -0x18(%ebp),%eax
  1011ab:	8b 40 14             	mov    0x14(%eax),%eax
  1011ae:	83 f8 05             	cmp    $0x5,%eax
  1011b1:	74 3f                	je     1011f2 <arch_parse_multiboot1+0x3a7>
  1011b3:	83 f8 05             	cmp    $0x5,%eax
  1011b6:	77 46                	ja     1011fe <arch_parse_multiboot1+0x3b3>
  1011b8:	83 f8 04             	cmp    $0x4,%eax
  1011bb:	74 29                	je     1011e6 <arch_parse_multiboot1+0x39b>
  1011bd:	83 f8 04             	cmp    $0x4,%eax
  1011c0:	77 3c                	ja     1011fe <arch_parse_multiboot1+0x3b3>
  1011c2:	83 f8 01             	cmp    $0x1,%eax
  1011c5:	74 07                	je     1011ce <arch_parse_multiboot1+0x383>
  1011c7:	83 f8 03             	cmp    $0x3,%eax
  1011ca:	74 0e                	je     1011da <arch_parse_multiboot1+0x38f>
  1011cc:	eb 30                	jmp    1011fe <arch_parse_multiboot1+0x3b3>
  1011ce:	8b 45 e0             	mov    -0x20(%ebp),%eax
  1011d1:	c7 40 10 00 00 00 00 	movl   $0x0,0x10(%eax)
  1011d8:	eb 2f                	jmp    101209 <arch_parse_multiboot1+0x3be>
  1011da:	8b 45 e0             	mov    -0x20(%ebp),%eax
  1011dd:	c7 40 10 02 00 00 00 	movl   $0x2,0x10(%eax)
  1011e4:	eb 23                	jmp    101209 <arch_parse_multiboot1+0x3be>
  1011e6:	8b 45 e0             	mov    -0x20(%ebp),%eax
  1011e9:	c7 40 10 03 00 00 00 	movl   $0x3,0x10(%eax)
  1011f0:	eb 17                	jmp    101209 <arch_parse_multiboot1+0x3be>
  1011f2:	8b 45 e0             	mov    -0x20(%ebp),%eax
  1011f5:	c7 40 10 04 00 00 00 	movl   $0x4,0x10(%eax)
  1011fc:	eb 0b                	jmp    101209 <arch_parse_multiboot1+0x3be>
  1011fe:	8b 45 e0             	mov    -0x20(%ebp),%eax
  101201:	c7 40 10 01 00 00 00 	movl   $0x1,0x10(%eax)
  101208:	90                   	nop
  101209:	8b 45 08             	mov    0x8(%ebp),%eax
  10120c:	8b 50 30             	mov    0x30(%eax),%edx
  10120f:	8b 45 e8             	mov    -0x18(%ebp),%eax
  101212:	39 c2                	cmp    %eax,%edx
  101214:	74 0f                	je     101225 <arch_parse_multiboot1+0x3da>
  101216:	8b 45 e4             	mov    -0x1c(%ebp),%eax
  101219:	8b 55 e0             	mov    -0x20(%ebp),%edx
  10121c:	89 50 14             	mov    %edx,0x14(%eax)
  10121f:	8b 45 e0             	mov    -0x20(%ebp),%eax
  101222:	89 45 e4             	mov    %eax,-0x1c(%ebp)
  101225:	83 ec 0c             	sub    $0xc,%esp
  101228:	6a 18                	push   $0x18
  10122a:	e8 2f 10 00 00       	call   10225e <arch_allocate_structure>
  10122f:	83 c4 10             	add    $0x10,%esp
  101232:	89 45 e0             	mov    %eax,-0x20(%ebp)
  101235:	8b 45 e8             	mov    -0x18(%ebp),%eax
  101238:	8b 10                	mov    (%eax),%edx
  10123a:	8b 45 e8             	mov    -0x18(%ebp),%eax
  10123d:	01 d0                	add    %edx,%eax
  10123f:	83 c0 04             	add    $0x4,%eax
  101242:	89 45 e8             	mov    %eax,-0x18(%ebp)
  101245:	8b 45 08             	mov    0x8(%ebp),%eax
  101248:	8b 50 30             	mov    0x30(%eax),%edx
  10124b:	8b 45 08             	mov    0x8(%ebp),%eax
  10124e:	8b 40 2c             	mov    0x2c(%eax),%eax
  101251:	01 d0                	add    %edx,%eax
  101253:	8b 55 e8             	mov    -0x18(%ebp),%edx
  101256:	39 c2                	cmp    %eax,%edx
  101258:	0f 82 27 ff ff ff    	jb     101185 <arch_parse_multiboot1+0x33a>
  10125e:	8b 45 e4             	mov    -0x1c(%ebp),%eax
  101261:	c7 40 14 00 00 00 00 	movl   $0x0,0x14(%eax)
  101268:	8b 45 dc             	mov    -0x24(%ebp),%eax
  10126b:	8b 5d fc             	mov    -0x4(%ebp),%ebx
  10126e:	c9                   	leave  
  10126f:	c3                   	ret    

00101270 <arch_mark_memory>:
  101270:	55                   	push   %ebp
  101271:	89 e5                	mov    %esp,%ebp
  101273:	57                   	push   %edi
  101274:	56                   	push   %esi
  101275:	53                   	push   %ebx
  101276:	83 ec 1c             	sub    $0x1c,%esp
  101279:	8b 45 08             	mov    0x8(%ebp),%eax
  10127c:	8b 40 10             	mov    0x10(%eax),%eax
  10127f:	89 45 e4             	mov    %eax,-0x1c(%ebp)
  101282:	e9 cf 00 00 00       	jmp    101356 <arch_mark_memory+0xe6>
  101287:	8b 45 e4             	mov    -0x1c(%ebp),%eax
  10128a:	8b 50 04             	mov    0x4(%eax),%edx
  10128d:	8b 00                	mov    (%eax),%eax
  10128f:	83 fa 00             	cmp    $0x0,%edx
  101292:	76 3c                	jbe    1012d0 <arch_mark_memory+0x60>
  101294:	8b 45 e4             	mov    -0x1c(%ebp),%eax
  101297:	8b 48 08             	mov    0x8(%eax),%ecx
  10129a:	8b 58 0c             	mov    0xc(%eax),%ebx
  10129d:	8b 45 e4             	mov    -0x1c(%ebp),%eax
  1012a0:	8b 50 04             	mov    0x4(%eax),%edx
  1012a3:	8b 00                	mov    (%eax),%eax
  1012a5:	53                   	push   %ebx
  1012a6:	51                   	push   %ecx
  1012a7:	52                   	push   %edx
  1012a8:	50                   	push   %eax
  1012a9:	68 0c 65 10 00       	push   $0x10650c
  1012ae:	6a 02                	push   $0x2
  1012b0:	68 b2 00 00 00       	push   $0xb2
  1012b5:	68 63 65 10 00       	push   $0x106563
  1012ba:	e8 e3 f1 ff ff       	call   1004a2 <dprintf_internal>
  1012bf:	83 c4 20             	add    $0x20,%esp
  1012c2:	8b 45 e4             	mov    -0x1c(%ebp),%eax
  1012c5:	8b 40 14             	mov    0x14(%eax),%eax
  1012c8:	89 45 e4             	mov    %eax,-0x1c(%ebp)
  1012cb:	e9 86 00 00 00       	jmp    101356 <arch_mark_memory+0xe6>
  1012d0:	8b 45 e4             	mov    -0x1c(%ebp),%eax
  1012d3:	8b 40 10             	mov    0x10(%eax),%eax
  1012d6:	85 c0                	test   %eax,%eax
  1012d8:	75 73                	jne    10134d <arch_mark_memory+0xdd>
  1012da:	8b 45 e4             	mov    -0x1c(%ebp),%eax
  1012dd:	8b 50 0c             	mov    0xc(%eax),%edx
  1012e0:	8b 40 08             	mov    0x8(%eax),%eax
  1012e3:	0f ac d0 0a          	shrd   $0xa,%edx,%eax
  1012e7:	c1 ea 0a             	shr    $0xa,%edx
  1012ea:	89 c1                	mov    %eax,%ecx
  1012ec:	89 d3                	mov    %edx,%ebx
  1012ee:	8b 45 e4             	mov    -0x1c(%ebp),%eax
  1012f1:	8b 30                	mov    (%eax),%esi
  1012f3:	8b 78 04             	mov    0x4(%eax),%edi
  1012f6:	8b 45 e4             	mov    -0x1c(%ebp),%eax
  1012f9:	8b 50 0c             	mov    0xc(%eax),%edx
  1012fc:	8b 40 08             	mov    0x8(%eax),%eax
  1012ff:	01 c6                	add    %eax,%esi
  101301:	11 d7                	adc    %edx,%edi
  101303:	8b 45 e4             	mov    -0x1c(%ebp),%eax
  101306:	8b 50 04             	mov    0x4(%eax),%edx
  101309:	8b 00                	mov    (%eax),%eax
  10130b:	83 ec 08             	sub    $0x8,%esp
  10130e:	53                   	push   %ebx
  10130f:	51                   	push   %ecx
  101310:	57                   	push   %edi
  101311:	56                   	push   %esi
  101312:	52                   	push   %edx
  101313:	50                   	push   %eax
  101314:	68 7c 65 10 00       	push   $0x10657c
  101319:	6a 04                	push   $0x4
  10131b:	68 b8 00 00 00       	push   $0xb8
  101320:	68 63 65 10 00       	push   $0x106563
  101325:	e8 78 f1 ff ff       	call   1004a2 <dprintf_internal>
  10132a:	83 c4 30             	add    $0x30,%esp
  10132d:	8b 45 e4             	mov    -0x1c(%ebp),%eax
  101330:	8b 50 0c             	mov    0xc(%eax),%edx
  101333:	8b 40 08             	mov    0x8(%eax),%eax
  101336:	89 c1                	mov    %eax,%ecx
  101338:	8b 45 e4             	mov    -0x1c(%ebp),%eax
  10133b:	8b 50 04             	mov    0x4(%eax),%edx
  10133e:	8b 00                	mov    (%eax),%eax
  101340:	83 ec 08             	sub    $0x8,%esp
  101343:	51                   	push   %ecx
  101344:	50                   	push   %eax
  101345:	e8 69 f8 ff ff       	call   100bb3 <pmm_initializeRegion>
  10134a:	83 c4 10             	add    $0x10,%esp
  10134d:	8b 45 e4             	mov    -0x1c(%ebp),%eax
  101350:	8b 40 14             	mov    0x14(%eax),%eax
  101353:	89 45 e4             	mov    %eax,-0x1c(%ebp)
  101356:	83 7d e4 00          	cmpl   $0x0,-0x1c(%ebp)
  10135a:	0f 85 27 ff ff ff    	jne    101287 <arch_mark_memory+0x17>
  101360:	c7 45 e0 b0 00 10 00 	movl   $0x1000b0,-0x20(%ebp)
  101367:	8b 45 0c             	mov    0xc(%ebp),%eax
  10136a:	2b 45 e0             	sub    -0x20(%ebp),%eax
  10136d:	c1 e8 0a             	shr    $0xa,%eax
  101370:	83 ec 04             	sub    $0x4,%esp
  101373:	50                   	push   %eax
  101374:	ff 75 0c             	push   0xc(%ebp)
  101377:	ff 75 e0             	push   -0x20(%ebp)
  10137a:	68 c4 65 10 00       	push   $0x1065c4
  10137f:	6a 04                	push   $0x4
  101381:	68 c2 00 00 00       	push   $0xc2
  101386:	68 63 65 10 00       	push   $0x106563
  10138b:	e8 12 f1 ff ff       	call   1004a2 <dprintf_internal>
  101390:	83 c4 20             	add    $0x20,%esp
  101393:	8b 45 0c             	mov    0xc(%ebp),%eax
  101396:	2b 45 e0             	sub    -0x20(%ebp),%eax
  101399:	83 ec 08             	sub    $0x8,%esp
  10139c:	50                   	push   %eax
  10139d:	ff 75 e0             	push   -0x20(%ebp)
  1013a0:	e8 69 f8 ff ff       	call   100c0e <pmm_deinitializeRegion>
  1013a5:	83 c4 10             	add    $0x10,%esp
  1013a8:	e8 6c fa ff ff       	call   100e19 <pmm_getMaximumBlocks>
  1013ad:	89 c3                	mov    %eax,%ebx
  1013af:	e8 79 fa ff ff       	call   100e2d <pmm_getFreeBlocks>
  1013b4:	83 ec 08             	sub    $0x8,%esp
  1013b7:	53                   	push   %ebx
  1013b8:	50                   	push   %eax
  1013b9:	68 08 66 10 00       	push   $0x106608
  1013be:	6a 04                	push   $0x4
  1013c0:	68 c5 00 00 00       	push   $0xc5
  1013c5:	68 63 65 10 00       	push   $0x106563
  1013ca:	e8 d3 f0 ff ff       	call   1004a2 <dprintf_internal>
  1013cf:	83 c4 20             	add    $0x20,%esp
  1013d2:	90                   	nop
  1013d3:	8d 65 f4             	lea    -0xc(%ebp),%esp
  1013d6:	5b                   	pop    %ebx
  1013d7:	5e                   	pop    %esi
  1013d8:	5f                   	pop    %edi
  1013d9:	5d                   	pop    %ebp
  1013da:	c3                   	ret    

001013db <hal_endInterrupt>:
  1013db:	55                   	push   %ebp
  1013dc:	89 e5                	mov    %esp,%ebp
  1013de:	83 ec 08             	sub    $0x8,%esp
  1013e1:	83 7d 08 08          	cmpl   $0x8,0x8(%ebp)
  1013e5:	76 12                	jbe    1013f9 <hal_endInterrupt+0x1e>
  1013e7:	83 ec 08             	sub    $0x8,%esp
  1013ea:	6a 20                	push   $0x20
  1013ec:	68 a0 00 00 00       	push   $0xa0
  1013f1:	e8 0a 0d 00 00       	call   102100 <outportb>
  1013f6:	83 c4 10             	add    $0x10,%esp
  1013f9:	83 ec 08             	sub    $0x8,%esp
  1013fc:	6a 20                	push   $0x20
  1013fe:	6a 20                	push   $0x20
  101400:	e8 fb 0c 00 00       	call   102100 <outportb>
  101405:	83 c4 10             	add    $0x10,%esp
  101408:	90                   	nop
  101409:	c9                   	leave  
  10140a:	c3                   	ret    

0010140b <hal_exceptionHandler>:
  10140b:	55                   	push   %ebp
  10140c:	89 e5                	mov    %esp,%ebp
  10140e:	53                   	push   %ebx
  10140f:	83 ec 04             	sub    $0x4,%esp
  101412:	68 48 66 10 00       	push   $0x106648
  101417:	6a 00                	push   $0x0
  101419:	6a 32                	push   $0x32
  10141b:	68 4b 66 10 00       	push   $0x10664b
  101420:	e8 7d f0 ff ff       	call   1004a2 <dprintf_internal>
  101425:	83 c4 10             	add    $0x10,%esp
  101428:	83 ec 0c             	sub    $0xc,%esp
  10142b:	ff 75 08             	push   0x8(%ebp)
  10142e:	68 64 66 10 00       	push   $0x106664
  101433:	6a 03                	push   $0x3
  101435:	6a 33                	push   $0x33
  101437:	68 4b 66 10 00       	push   $0x10664b
  10143c:	e8 61 f0 ff ff       	call   1004a2 <dprintf_internal>
  101441:	83 c4 20             	add    $0x20,%esp
  101444:	8b 45 0c             	mov    0xc(%ebp),%eax
  101447:	8b 58 18             	mov    0x18(%eax),%ebx
  10144a:	8b 45 0c             	mov    0xc(%ebp),%eax
  10144d:	8b 48 14             	mov    0x14(%eax),%ecx
  101450:	8b 45 0c             	mov    0xc(%ebp),%eax
  101453:	8b 50 10             	mov    0x10(%eax),%edx
  101456:	8b 45 0c             	mov    0xc(%ebp),%eax
  101459:	8b 40 0c             	mov    0xc(%eax),%eax
  10145c:	53                   	push   %ebx
  10145d:	51                   	push   %ecx
  10145e:	52                   	push   %edx
  10145f:	50                   	push   %eax
  101460:	68 8c 66 10 00       	push   $0x10668c
  101465:	6a 01                	push   $0x1
  101467:	6a 34                	push   $0x34
  101469:	68 4b 66 10 00       	push   $0x10664b
  10146e:	e8 2f f0 ff ff       	call   1004a2 <dprintf_internal>
  101473:	83 c4 20             	add    $0x20,%esp
  101476:	8b 45 0c             	mov    0xc(%ebp),%eax
  101479:	8b 58 28             	mov    0x28(%eax),%ebx
  10147c:	8b 45 0c             	mov    0xc(%ebp),%eax
  10147f:	8b 48 24             	mov    0x24(%eax),%ecx
  101482:	8b 45 0c             	mov    0xc(%ebp),%eax
  101485:	8b 50 20             	mov    0x20(%eax),%edx
  101488:	8b 45 0c             	mov    0xc(%ebp),%eax
  10148b:	8b 40 1c             	mov    0x1c(%eax),%eax
  10148e:	53                   	push   %ebx
  10148f:	51                   	push   %ecx
  101490:	52                   	push   %edx
  101491:	50                   	push   %eax
  101492:	68 b4 66 10 00       	push   $0x1066b4
  101497:	6a 01                	push   $0x1
  101499:	6a 35                	push   $0x35
  10149b:	68 4b 66 10 00       	push   $0x10664b
  1014a0:	e8 fd ef ff ff       	call   1004a2 <dprintf_internal>
  1014a5:	83 c4 20             	add    $0x20,%esp
  1014a8:	8b 45 0c             	mov    0xc(%ebp),%eax
  1014ab:	8b 50 30             	mov    0x30(%eax),%edx
  1014ae:	8b 45 0c             	mov    0xc(%ebp),%eax
  1014b1:	8b 40 2c             	mov    0x2c(%eax),%eax
  1014b4:	83 ec 08             	sub    $0x8,%esp
  1014b7:	52                   	push   %edx
  1014b8:	50                   	push   %eax
  1014b9:	68 d9 66 10 00       	push   $0x1066d9
  1014be:	6a 01                	push   $0x1
  1014c0:	6a 36                	push   $0x36
  1014c2:	68 4b 66 10 00       	push   $0x10664b
  1014c7:	e8 d6 ef ff ff       	call   1004a2 <dprintf_internal>
  1014cc:	83 c4 20             	add    $0x20,%esp
  1014cf:	8b 45 0c             	mov    0xc(%ebp),%eax
  1014d2:	8b 58 08             	mov    0x8(%eax),%ebx
  1014d5:	8b 45 0c             	mov    0xc(%ebp),%eax
  1014d8:	8b 48 04             	mov    0x4(%eax),%ecx
  1014db:	8b 45 0c             	mov    0xc(%ebp),%eax
  1014de:	8b 10                	mov    (%eax),%edx
  1014e0:	8b 45 0c             	mov    0xc(%ebp),%eax
  1014e3:	8b 40 34             	mov    0x34(%eax),%eax
  1014e6:	53                   	push   %ebx
  1014e7:	51                   	push   %ecx
  1014e8:	52                   	push   %edx
  1014e9:	50                   	push   %eax
  1014ea:	68 f0 66 10 00       	push   $0x1066f0
  1014ef:	6a 01                	push   $0x1
  1014f1:	6a 37                	push   $0x37
  1014f3:	68 4b 66 10 00       	push   $0x10664b
  1014f8:	e8 a5 ef ff ff       	call   1004a2 <dprintf_internal>
  1014fd:	83 c4 20             	add    $0x20,%esp
  101500:	8b 45 10             	mov    0x10(%ebp),%eax
  101503:	0f b7 40 16          	movzwl 0x16(%eax),%eax
  101507:	0f b7 d8             	movzwl %ax,%ebx
  10150a:	8b 45 10             	mov    0x10(%ebp),%eax
  10150d:	8b 48 18             	mov    0x18(%eax),%ecx
  101510:	8b 45 10             	mov    0x10(%ebp),%eax
  101513:	0f b7 40 10          	movzwl 0x10(%eax),%eax
  101517:	0f b7 d0             	movzwl %ax,%edx
  10151a:	8b 45 10             	mov    0x10(%ebp),%eax
  10151d:	8b 40 12             	mov    0x12(%eax),%eax
  101520:	53                   	push   %ebx
  101521:	51                   	push   %ecx
  101522:	52                   	push   %edx
  101523:	50                   	push   %eax
  101524:	68 14 67 10 00       	push   $0x106714
  101529:	6a 01                	push   $0x1
  10152b:	6a 38                	push   $0x38
  10152d:	68 4b 66 10 00       	push   $0x10664b
  101532:	e8 6b ef ff ff       	call   1004a2 <dprintf_internal>
  101537:	83 c4 20             	add    $0x20,%esp
  10153a:	90                   	nop
  10153b:	eb fd                	jmp    10153a <hal_exceptionHandler+0x12f>

0010153d <hal_interruptHandler>:
  10153d:	55                   	push   %ebp
  10153e:	89 e5                	mov    %esp,%ebp
  101540:	83 ec 18             	sub    $0x18,%esp
  101543:	8b 45 0c             	mov    0xc(%ebp),%eax
  101546:	8b 04 85 60 9a 10 00 	mov    0x109a60(,%eax,4),%eax
  10154d:	85 c0                	test   %eax,%eax
  10154f:	74 3d                	je     10158e <hal_interruptHandler+0x51>
  101551:	8b 45 0c             	mov    0xc(%ebp),%eax
  101554:	8b 04 85 60 9a 10 00 	mov    0x109a60(,%eax,4),%eax
  10155b:	89 45 f4             	mov    %eax,-0xc(%ebp)
  10155e:	83 ec 08             	sub    $0x8,%esp
  101561:	ff 75 14             	push   0x14(%ebp)
  101564:	ff 75 10             	push   0x10(%ebp)
  101567:	8b 45 f4             	mov    -0xc(%ebp),%eax
  10156a:	ff d0                	call   *%eax
  10156c:	83 c4 10             	add    $0x10,%esp
  10156f:	89 45 f0             	mov    %eax,-0x10(%ebp)
  101572:	83 7d f0 00          	cmpl   $0x0,-0x10(%ebp)
  101576:	74 16                	je     10158e <hal_interruptHandler+0x51>
  101578:	68 33 67 10 00       	push   $0x106733
  10157d:	6a 03                	push   $0x3
  10157f:	6a 48                	push   $0x48
  101581:	68 4b 66 10 00       	push   $0x10664b
  101586:	e8 17 ef ff ff       	call   1004a2 <dprintf_internal>
  10158b:	83 c4 10             	add    $0x10,%esp
  10158e:	83 ec 0c             	sub    $0xc,%esp
  101591:	ff 75 0c             	push   0xc(%ebp)
  101594:	e8 42 fe ff ff       	call   1013db <hal_endInterrupt>
  101599:	83 c4 10             	add    $0x10,%esp
  10159c:	90                   	nop
  10159d:	c9                   	leave  
  10159e:	c3                   	ret    

0010159f <hal_registerInterruptHandler>:
  10159f:	55                   	push   %ebp
  1015a0:	89 e5                	mov    %esp,%ebp
  1015a2:	8b 45 08             	mov    0x8(%ebp),%eax
  1015a5:	8b 04 85 60 9a 10 00 	mov    0x109a60(,%eax,4),%eax
  1015ac:	85 c0                	test   %eax,%eax
  1015ae:	74 07                	je     1015b7 <hal_registerInterruptHandler+0x18>
  1015b0:	b8 ea ff ff ff       	mov    $0xffffffea,%eax
  1015b5:	eb 12                	jmp    1015c9 <hal_registerInterruptHandler+0x2a>
  1015b7:	8b 45 08             	mov    0x8(%ebp),%eax
  1015ba:	8b 55 0c             	mov    0xc(%ebp),%edx
  1015bd:	89 14 85 60 9a 10 00 	mov    %edx,0x109a60(,%eax,4)
  1015c4:	b8 00 00 00 00       	mov    $0x0,%eax
  1015c9:	5d                   	pop    %ebp
  1015ca:	c3                   	ret    

001015cb <hal_unregisterInterruptHandler>:
  1015cb:	55                   	push   %ebp
  1015cc:	89 e5                	mov    %esp,%ebp
  1015ce:	8b 45 08             	mov    0x8(%ebp),%eax
  1015d1:	c7 04 85 60 9a 10 00 	movl   $0x0,0x109a60(,%eax,4)
  1015d8:	00 00 00 00 
  1015dc:	90                   	nop
  1015dd:	5d                   	pop    %ebp
  1015de:	c3                   	ret    

001015df <hal_registerInterruptVector>:
  1015df:	55                   	push   %ebp
  1015e0:	89 e5                	mov    %esp,%ebp
  1015e2:	83 ec 0c             	sub    $0xc,%esp
  1015e5:	8b 4d 08             	mov    0x8(%ebp),%ecx
  1015e8:	8b 55 0c             	mov    0xc(%ebp),%edx
  1015eb:	8b 45 10             	mov    0x10(%ebp),%eax
  1015ee:	88 4d fc             	mov    %cl,-0x4(%ebp)
  1015f1:	88 55 f8             	mov    %dl,-0x8(%ebp)
  1015f4:	66 89 45 f4          	mov    %ax,-0xc(%ebp)
  1015f8:	0f b6 45 fc          	movzbl -0x4(%ebp),%eax
  1015fc:	8b 55 14             	mov    0x14(%ebp),%edx
  1015ff:	66 89 14 c5 60 92 10 	mov    %dx,0x109260(,%eax,8)
  101606:	00 
  101607:	8b 45 14             	mov    0x14(%ebp),%eax
  10160a:	c1 e8 10             	shr    $0x10,%eax
  10160d:	89 c2                	mov    %eax,%edx
  10160f:	0f b6 45 fc          	movzbl -0x4(%ebp),%eax
  101613:	66 89 14 c5 66 92 10 	mov    %dx,0x109266(,%eax,8)
  10161a:	00 
  10161b:	0f b6 45 fc          	movzbl -0x4(%ebp),%eax
  10161f:	0f b7 55 f4          	movzwl -0xc(%ebp),%edx
  101623:	66 89 14 c5 62 92 10 	mov    %dx,0x109262(,%eax,8)
  10162a:	00 
  10162b:	0f b6 45 fc          	movzbl -0x4(%ebp),%eax
  10162f:	0f b6 55 f8          	movzbl -0x8(%ebp),%edx
  101633:	88 14 c5 65 92 10 00 	mov    %dl,0x109265(,%eax,8)
  10163a:	b8 00 00 00 00       	mov    $0x0,%eax
  10163f:	c9                   	leave  
  101640:	c3                   	ret    

00101641 <hal_initializePIC>:
  101641:	55                   	push   %ebp
  101642:	89 e5                	mov    %esp,%ebp
  101644:	83 ec 18             	sub    $0x18,%esp
  101647:	83 ec 0c             	sub    $0xc,%esp
  10164a:	6a 21                	push   $0x21
  10164c:	e8 07 0b 00 00       	call   102158 <inportb>
  101651:	83 c4 10             	add    $0x10,%esp
  101654:	88 45 f7             	mov    %al,-0x9(%ebp)
  101657:	83 ec 0c             	sub    $0xc,%esp
  10165a:	68 a1 00 00 00       	push   $0xa1
  10165f:	e8 f4 0a 00 00       	call   102158 <inportb>
  101664:	83 c4 10             	add    $0x10,%esp
  101667:	88 45 f6             	mov    %al,-0xa(%ebp)
  10166a:	83 ec 08             	sub    $0x8,%esp
  10166d:	6a 11                	push   $0x11
  10166f:	6a 20                	push   $0x20
  101671:	e8 8a 0a 00 00       	call   102100 <outportb>
  101676:	83 c4 10             	add    $0x10,%esp
  101679:	83 ec 08             	sub    $0x8,%esp
  10167c:	6a 11                	push   $0x11
  10167e:	68 a0 00 00 00       	push   $0xa0
  101683:	e8 78 0a 00 00       	call   102100 <outportb>
  101688:	83 c4 10             	add    $0x10,%esp
  10168b:	83 ec 08             	sub    $0x8,%esp
  10168e:	6a 20                	push   $0x20
  101690:	6a 21                	push   $0x21
  101692:	e8 69 0a 00 00       	call   102100 <outportb>
  101697:	83 c4 10             	add    $0x10,%esp
  10169a:	83 ec 08             	sub    $0x8,%esp
  10169d:	6a 28                	push   $0x28
  10169f:	68 a1 00 00 00       	push   $0xa1
  1016a4:	e8 57 0a 00 00       	call   102100 <outportb>
  1016a9:	83 c4 10             	add    $0x10,%esp
  1016ac:	83 ec 08             	sub    $0x8,%esp
  1016af:	6a 04                	push   $0x4
  1016b1:	6a 21                	push   $0x21
  1016b3:	e8 48 0a 00 00       	call   102100 <outportb>
  1016b8:	83 c4 10             	add    $0x10,%esp
  1016bb:	83 ec 08             	sub    $0x8,%esp
  1016be:	6a 02                	push   $0x2
  1016c0:	68 a1 00 00 00       	push   $0xa1
  1016c5:	e8 36 0a 00 00       	call   102100 <outportb>
  1016ca:	83 c4 10             	add    $0x10,%esp
  1016cd:	83 ec 08             	sub    $0x8,%esp
  1016d0:	6a 01                	push   $0x1
  1016d2:	6a 21                	push   $0x21
  1016d4:	e8 27 0a 00 00       	call   102100 <outportb>
  1016d9:	83 c4 10             	add    $0x10,%esp
  1016dc:	83 ec 08             	sub    $0x8,%esp
  1016df:	6a 01                	push   $0x1
  1016e1:	68 a1 00 00 00       	push   $0xa1
  1016e6:	e8 15 0a 00 00       	call   102100 <outportb>
  1016eb:	83 c4 10             	add    $0x10,%esp
  1016ee:	0f b6 45 f7          	movzbl -0x9(%ebp),%eax
  1016f2:	83 ec 08             	sub    $0x8,%esp
  1016f5:	50                   	push   %eax
  1016f6:	6a 21                	push   $0x21
  1016f8:	e8 03 0a 00 00       	call   102100 <outportb>
  1016fd:	83 c4 10             	add    $0x10,%esp
  101700:	0f b6 45 f6          	movzbl -0xa(%ebp),%eax
  101704:	83 ec 08             	sub    $0x8,%esp
  101707:	50                   	push   %eax
  101708:	68 a1 00 00 00       	push   $0xa1
  10170d:	e8 ee 09 00 00       	call   102100 <outportb>
  101712:	83 c4 10             	add    $0x10,%esp
  101715:	90                   	nop
  101716:	c9                   	leave  
  101717:	c3                   	ret    

00101718 <hal_initializeInterrupts>:
  101718:	55                   	push   %ebp
  101719:	89 e5                	mov    %esp,%ebp
  10171b:	83 ec 18             	sub    $0x18,%esp
  10171e:	e8 07 1c 00 00       	call   10332a <hal_installGDT>
  101723:	83 ec 04             	sub    $0x4,%esp
  101726:	68 f8 07 00 00       	push   $0x7f8
  10172b:	6a 00                	push   $0x0
  10172d:	68 60 92 10 00       	push   $0x109260
  101732:	e8 a2 2f 00 00       	call   1046d9 <memset>
  101737:	83 c4 10             	add    $0x10,%esp
  10173a:	b8 ec 2f 10 00       	mov    $0x102fec,%eax
  10173f:	50                   	push   %eax
  101740:	6a 08                	push   $0x8
  101742:	68 8e 00 00 00       	push   $0x8e
  101747:	6a 00                	push   $0x0
  101749:	e8 91 fe ff ff       	call   1015df <hal_registerInterruptVector>
  10174e:	83 c4 10             	add    $0x10,%esp
  101751:	b8 fd 2f 10 00       	mov    $0x102ffd,%eax
  101756:	50                   	push   %eax
  101757:	6a 08                	push   $0x8
  101759:	68 8e 00 00 00       	push   $0x8e
  10175e:	6a 01                	push   $0x1
  101760:	e8 7a fe ff ff       	call   1015df <hal_registerInterruptVector>
  101765:	83 c4 10             	add    $0x10,%esp
  101768:	b8 0e 30 10 00       	mov    $0x10300e,%eax
  10176d:	50                   	push   %eax
  10176e:	6a 08                	push   $0x8
  101770:	68 8e 00 00 00       	push   $0x8e
  101775:	6a 02                	push   $0x2
  101777:	e8 63 fe ff ff       	call   1015df <hal_registerInterruptVector>
  10177c:	83 c4 10             	add    $0x10,%esp
  10177f:	b8 1f 30 10 00       	mov    $0x10301f,%eax
  101784:	50                   	push   %eax
  101785:	6a 08                	push   $0x8
  101787:	68 8e 00 00 00       	push   $0x8e
  10178c:	6a 03                	push   $0x3
  10178e:	e8 4c fe ff ff       	call   1015df <hal_registerInterruptVector>
  101793:	83 c4 10             	add    $0x10,%esp
  101796:	b8 30 30 10 00       	mov    $0x103030,%eax
  10179b:	50                   	push   %eax
  10179c:	6a 08                	push   $0x8
  10179e:	68 8e 00 00 00       	push   $0x8e
  1017a3:	6a 04                	push   $0x4
  1017a5:	e8 35 fe ff ff       	call   1015df <hal_registerInterruptVector>
  1017aa:	83 c4 10             	add    $0x10,%esp
  1017ad:	b8 41 30 10 00       	mov    $0x103041,%eax
  1017b2:	50                   	push   %eax
  1017b3:	6a 08                	push   $0x8
  1017b5:	68 8e 00 00 00       	push   $0x8e
  1017ba:	6a 05                	push   $0x5
  1017bc:	e8 1e fe ff ff       	call   1015df <hal_registerInterruptVector>
  1017c1:	83 c4 10             	add    $0x10,%esp
  1017c4:	b8 52 30 10 00       	mov    $0x103052,%eax
  1017c9:	50                   	push   %eax
  1017ca:	6a 08                	push   $0x8
  1017cc:	68 8e 00 00 00       	push   $0x8e
  1017d1:	6a 06                	push   $0x6
  1017d3:	e8 07 fe ff ff       	call   1015df <hal_registerInterruptVector>
  1017d8:	83 c4 10             	add    $0x10,%esp
  1017db:	b8 63 30 10 00       	mov    $0x103063,%eax
  1017e0:	50                   	push   %eax
  1017e1:	6a 08                	push   $0x8
  1017e3:	68 8e 00 00 00       	push   $0x8e
  1017e8:	6a 07                	push   $0x7
  1017ea:	e8 f0 fd ff ff       	call   1015df <hal_registerInterruptVector>
  1017ef:	83 c4 10             	add    $0x10,%esp
  1017f2:	b8 74 30 10 00       	mov    $0x103074,%eax
  1017f7:	50                   	push   %eax
  1017f8:	6a 08                	push   $0x8
  1017fa:	68 8e 00 00 00       	push   $0x8e
  1017ff:	6a 08                	push   $0x8
  101801:	e8 d9 fd ff ff       	call   1015df <hal_registerInterruptVector>
  101806:	83 c4 10             	add    $0x10,%esp
  101809:	b8 83 30 10 00       	mov    $0x103083,%eax
  10180e:	50                   	push   %eax
  10180f:	6a 08                	push   $0x8
  101811:	68 8e 00 00 00       	push   $0x8e
  101816:	6a 09                	push   $0x9
  101818:	e8 c2 fd ff ff       	call   1015df <hal_registerInterruptVector>
  10181d:	83 c4 10             	add    $0x10,%esp
  101820:	b8 94 30 10 00       	mov    $0x103094,%eax
  101825:	50                   	push   %eax
  101826:	6a 08                	push   $0x8
  101828:	68 8e 00 00 00       	push   $0x8e
  10182d:	6a 0a                	push   $0xa
  10182f:	e8 ab fd ff ff       	call   1015df <hal_registerInterruptVector>
  101834:	83 c4 10             	add    $0x10,%esp
  101837:	b8 a3 30 10 00       	mov    $0x1030a3,%eax
  10183c:	50                   	push   %eax
  10183d:	6a 08                	push   $0x8
  10183f:	68 8e 00 00 00       	push   $0x8e
  101844:	6a 0b                	push   $0xb
  101846:	e8 94 fd ff ff       	call   1015df <hal_registerInterruptVector>
  10184b:	83 c4 10             	add    $0x10,%esp
  10184e:	b8 b2 30 10 00       	mov    $0x1030b2,%eax
  101853:	50                   	push   %eax
  101854:	6a 08                	push   $0x8
  101856:	68 8e 00 00 00       	push   $0x8e
  10185b:	6a 0c                	push   $0xc
  10185d:	e8 7d fd ff ff       	call   1015df <hal_registerInterruptVector>
  101862:	83 c4 10             	add    $0x10,%esp
  101865:	b8 c1 30 10 00       	mov    $0x1030c1,%eax
  10186a:	50                   	push   %eax
  10186b:	6a 08                	push   $0x8
  10186d:	68 8e 00 00 00       	push   $0x8e
  101872:	6a 0d                	push   $0xd
  101874:	e8 66 fd ff ff       	call   1015df <hal_registerInterruptVector>
  101879:	83 c4 10             	add    $0x10,%esp
  10187c:	b8 d0 30 10 00       	mov    $0x1030d0,%eax
  101881:	50                   	push   %eax
  101882:	6a 08                	push   $0x8
  101884:	68 8e 00 00 00       	push   $0x8e
  101889:	6a 0e                	push   $0xe
  10188b:	e8 4f fd ff ff       	call   1015df <hal_registerInterruptVector>
  101890:	83 c4 10             	add    $0x10,%esp
  101893:	b8 df 30 10 00       	mov    $0x1030df,%eax
  101898:	50                   	push   %eax
  101899:	6a 08                	push   $0x8
  10189b:	68 8e 00 00 00       	push   $0x8e
  1018a0:	6a 0f                	push   $0xf
  1018a2:	e8 38 fd ff ff       	call   1015df <hal_registerInterruptVector>
  1018a7:	83 c4 10             	add    $0x10,%esp
  1018aa:	b8 f0 30 10 00       	mov    $0x1030f0,%eax
  1018af:	50                   	push   %eax
  1018b0:	6a 08                	push   $0x8
  1018b2:	68 8e 00 00 00       	push   $0x8e
  1018b7:	6a 10                	push   $0x10
  1018b9:	e8 21 fd ff ff       	call   1015df <hal_registerInterruptVector>
  1018be:	83 c4 10             	add    $0x10,%esp
  1018c1:	b8 01 31 10 00       	mov    $0x103101,%eax
  1018c6:	50                   	push   %eax
  1018c7:	6a 08                	push   $0x8
  1018c9:	68 8e 00 00 00       	push   $0x8e
  1018ce:	6a 11                	push   $0x11
  1018d0:	e8 0a fd ff ff       	call   1015df <hal_registerInterruptVector>
  1018d5:	83 c4 10             	add    $0x10,%esp
  1018d8:	b8 10 31 10 00       	mov    $0x103110,%eax
  1018dd:	50                   	push   %eax
  1018de:	6a 08                	push   $0x8
  1018e0:	68 8e 00 00 00       	push   $0x8e
  1018e5:	6a 12                	push   $0x12
  1018e7:	e8 f3 fc ff ff       	call   1015df <hal_registerInterruptVector>
  1018ec:	83 c4 10             	add    $0x10,%esp
  1018ef:	b8 21 31 10 00       	mov    $0x103121,%eax
  1018f4:	50                   	push   %eax
  1018f5:	6a 08                	push   $0x8
  1018f7:	68 8e 00 00 00       	push   $0x8e
  1018fc:	6a 13                	push   $0x13
  1018fe:	e8 dc fc ff ff       	call   1015df <hal_registerInterruptVector>
  101903:	83 c4 10             	add    $0x10,%esp
  101906:	b8 32 31 10 00       	mov    $0x103132,%eax
  10190b:	50                   	push   %eax
  10190c:	6a 08                	push   $0x8
  10190e:	68 8e 00 00 00       	push   $0x8e
  101913:	6a 14                	push   $0x14
  101915:	e8 c5 fc ff ff       	call   1015df <hal_registerInterruptVector>
  10191a:	83 c4 10             	add    $0x10,%esp
  10191d:	b8 43 31 10 00       	mov    $0x103143,%eax
  101922:	50                   	push   %eax
  101923:	6a 08                	push   $0x8
  101925:	68 8e 00 00 00       	push   $0x8e
  10192a:	6a 15                	push   $0x15
  10192c:	e8 ae fc ff ff       	call   1015df <hal_registerInterruptVector>
  101931:	83 c4 10             	add    $0x10,%esp
  101934:	b8 52 31 10 00       	mov    $0x103152,%eax
  101939:	50                   	push   %eax
  10193a:	6a 08                	push   $0x8
  10193c:	68 8e 00 00 00       	push   $0x8e
  101941:	6a 1c                	push   $0x1c
  101943:	e8 97 fc ff ff       	call   1015df <hal_registerInterruptVector>
  101948:	83 c4 10             	add    $0x10,%esp
  10194b:	b8 63 31 10 00       	mov    $0x103163,%eax
  101950:	50                   	push   %eax
  101951:	6a 08                	push   $0x8
  101953:	68 8e 00 00 00       	push   $0x8e
  101958:	6a 1d                	push   $0x1d
  10195a:	e8 80 fc ff ff       	call   1015df <hal_registerInterruptVector>
  10195f:	83 c4 10             	add    $0x10,%esp
  101962:	b8 72 31 10 00       	mov    $0x103172,%eax
  101967:	50                   	push   %eax
  101968:	6a 08                	push   $0x8
  10196a:	68 8e 00 00 00       	push   $0x8e
  10196f:	6a 1e                	push   $0x1e
  101971:	e8 69 fc ff ff       	call   1015df <hal_registerInterruptVector>
  101976:	83 c4 10             	add    $0x10,%esp
  101979:	b8 81 31 10 00       	mov    $0x103181,%eax
  10197e:	50                   	push   %eax
  10197f:	6a 08                	push   $0x8
  101981:	68 8e 00 00 00       	push   $0x8e
  101986:	6a 1f                	push   $0x1f
  101988:	e8 52 fc ff ff       	call   1015df <hal_registerInterruptVector>
  10198d:	83 c4 10             	add    $0x10,%esp
  101990:	b8 92 31 10 00       	mov    $0x103192,%eax
  101995:	50                   	push   %eax
  101996:	6a 08                	push   $0x8
  101998:	68 8e 00 00 00       	push   $0x8e
  10199d:	6a 20                	push   $0x20
  10199f:	e8 3b fc ff ff       	call   1015df <hal_registerInterruptVector>
  1019a4:	83 c4 10             	add    $0x10,%esp
  1019a7:	b8 ab 31 10 00       	mov    $0x1031ab,%eax
  1019ac:	50                   	push   %eax
  1019ad:	6a 08                	push   $0x8
  1019af:	68 8e 00 00 00       	push   $0x8e
  1019b4:	6a 21                	push   $0x21
  1019b6:	e8 24 fc ff ff       	call   1015df <hal_registerInterruptVector>
  1019bb:	83 c4 10             	add    $0x10,%esp
  1019be:	b8 c4 31 10 00       	mov    $0x1031c4,%eax
  1019c3:	50                   	push   %eax
  1019c4:	6a 08                	push   $0x8
  1019c6:	68 8e 00 00 00       	push   $0x8e
  1019cb:	6a 22                	push   $0x22
  1019cd:	e8 0d fc ff ff       	call   1015df <hal_registerInterruptVector>
  1019d2:	83 c4 10             	add    $0x10,%esp
  1019d5:	b8 dd 31 10 00       	mov    $0x1031dd,%eax
  1019da:	50                   	push   %eax
  1019db:	6a 08                	push   $0x8
  1019dd:	68 8e 00 00 00       	push   $0x8e
  1019e2:	6a 23                	push   $0x23
  1019e4:	e8 f6 fb ff ff       	call   1015df <hal_registerInterruptVector>
  1019e9:	83 c4 10             	add    $0x10,%esp
  1019ec:	b8 f6 31 10 00       	mov    $0x1031f6,%eax
  1019f1:	50                   	push   %eax
  1019f2:	6a 08                	push   $0x8
  1019f4:	68 8e 00 00 00       	push   $0x8e
  1019f9:	6a 24                	push   $0x24
  1019fb:	e8 df fb ff ff       	call   1015df <hal_registerInterruptVector>
  101a00:	83 c4 10             	add    $0x10,%esp
  101a03:	b8 0f 32 10 00       	mov    $0x10320f,%eax
  101a08:	50                   	push   %eax
  101a09:	6a 08                	push   $0x8
  101a0b:	68 8e 00 00 00       	push   $0x8e
  101a10:	6a 25                	push   $0x25
  101a12:	e8 c8 fb ff ff       	call   1015df <hal_registerInterruptVector>
  101a17:	83 c4 10             	add    $0x10,%esp
  101a1a:	b8 28 32 10 00       	mov    $0x103228,%eax
  101a1f:	50                   	push   %eax
  101a20:	6a 08                	push   $0x8
  101a22:	68 8e 00 00 00       	push   $0x8e
  101a27:	6a 26                	push   $0x26
  101a29:	e8 b1 fb ff ff       	call   1015df <hal_registerInterruptVector>
  101a2e:	83 c4 10             	add    $0x10,%esp
  101a31:	b8 41 32 10 00       	mov    $0x103241,%eax
  101a36:	50                   	push   %eax
  101a37:	6a 08                	push   $0x8
  101a39:	68 8e 00 00 00       	push   $0x8e
  101a3e:	6a 27                	push   $0x27
  101a40:	e8 9a fb ff ff       	call   1015df <hal_registerInterruptVector>
  101a45:	83 c4 10             	add    $0x10,%esp
  101a48:	b8 5a 32 10 00       	mov    $0x10325a,%eax
  101a4d:	50                   	push   %eax
  101a4e:	6a 08                	push   $0x8
  101a50:	68 8e 00 00 00       	push   $0x8e
  101a55:	6a 28                	push   $0x28
  101a57:	e8 83 fb ff ff       	call   1015df <hal_registerInterruptVector>
  101a5c:	83 c4 10             	add    $0x10,%esp
  101a5f:	b8 73 32 10 00       	mov    $0x103273,%eax
  101a64:	50                   	push   %eax
  101a65:	6a 08                	push   $0x8
  101a67:	68 8e 00 00 00       	push   $0x8e
  101a6c:	6a 29                	push   $0x29
  101a6e:	e8 6c fb ff ff       	call   1015df <hal_registerInterruptVector>
  101a73:	83 c4 10             	add    $0x10,%esp
  101a76:	b8 8c 32 10 00       	mov    $0x10328c,%eax
  101a7b:	50                   	push   %eax
  101a7c:	6a 08                	push   $0x8
  101a7e:	68 8e 00 00 00       	push   $0x8e
  101a83:	6a 2a                	push   $0x2a
  101a85:	e8 55 fb ff ff       	call   1015df <hal_registerInterruptVector>
  101a8a:	83 c4 10             	add    $0x10,%esp
  101a8d:	b8 a5 32 10 00       	mov    $0x1032a5,%eax
  101a92:	50                   	push   %eax
  101a93:	6a 08                	push   $0x8
  101a95:	68 8e 00 00 00       	push   $0x8e
  101a9a:	6a 2b                	push   $0x2b
  101a9c:	e8 3e fb ff ff       	call   1015df <hal_registerInterruptVector>
  101aa1:	83 c4 10             	add    $0x10,%esp
  101aa4:	b8 be 32 10 00       	mov    $0x1032be,%eax
  101aa9:	50                   	push   %eax
  101aaa:	6a 08                	push   $0x8
  101aac:	68 8e 00 00 00       	push   $0x8e
  101ab1:	6a 2c                	push   $0x2c
  101ab3:	e8 27 fb ff ff       	call   1015df <hal_registerInterruptVector>
  101ab8:	83 c4 10             	add    $0x10,%esp
  101abb:	b8 d7 32 10 00       	mov    $0x1032d7,%eax
  101ac0:	50                   	push   %eax
  101ac1:	6a 08                	push   $0x8
  101ac3:	68 8e 00 00 00       	push   $0x8e
  101ac8:	6a 2d                	push   $0x2d
  101aca:	e8 10 fb ff ff       	call   1015df <hal_registerInterruptVector>
  101acf:	83 c4 10             	add    $0x10,%esp
  101ad2:	b8 f0 32 10 00       	mov    $0x1032f0,%eax
  101ad7:	50                   	push   %eax
  101ad8:	6a 08                	push   $0x8
  101ada:	68 8e 00 00 00       	push   $0x8e
  101adf:	6a 2e                	push   $0x2e
  101ae1:	e8 f9 fa ff ff       	call   1015df <hal_registerInterruptVector>
  101ae6:	83 c4 10             	add    $0x10,%esp
  101ae9:	b8 09 33 10 00       	mov    $0x103309,%eax
  101aee:	50                   	push   %eax
  101aef:	6a 08                	push   $0x8
  101af1:	68 8e 00 00 00       	push   $0x8e
  101af6:	6a 2f                	push   $0x2f
  101af8:	e8 e2 fa ff ff       	call   1015df <hal_registerInterruptVector>
  101afd:	83 c4 10             	add    $0x10,%esp
  101b00:	b8 60 92 10 00       	mov    $0x109260,%eax
  101b05:	89 45 f4             	mov    %eax,-0xc(%ebp)
  101b08:	66 c7 45 f2 f7 07    	movw   $0x7f7,-0xe(%ebp)
  101b0e:	0f 01 5d f2          	lidtl  -0xe(%ebp)
  101b12:	e8 2a fb ff ff       	call   101641 <hal_initializePIC>
  101b17:	fb                   	sti    
  101b18:	68 44 67 10 00       	push   $0x106744
  101b1d:	6a 01                	push   $0x1
  101b1f:	68 e8 00 00 00       	push   $0xe8
  101b24:	68 4b 66 10 00       	push   $0x10664b
  101b29:	e8 74 e9 ff ff       	call   1004a2 <dprintf_internal>
  101b2e:	83 c4 10             	add    $0x10,%esp
  101b31:	90                   	nop
  101b32:	c9                   	leave  
  101b33:	c3                   	ret    

00101b34 <mem_outofmemory>:
  101b34:	55                   	push   %ebp
  101b35:	89 e5                	mov    %esp,%ebp
  101b37:	83 ec 08             	sub    $0x8,%esp
  101b3a:	e8 18 ed ff ff       	call   100857 <kernel_panic_prepare>
  101b3f:	68 68 67 10 00       	push   $0x106768
  101b44:	6a 00                	push   $0x0
  101b46:	6a 31                	push   $0x31
  101b48:	68 a2 67 10 00       	push   $0x1067a2
  101b4d:	e8 50 e9 ff ff       	call   1004a2 <dprintf_internal>
  101b52:	83 c4 10             	add    $0x10,%esp
  101b55:	83 ec 08             	sub    $0x8,%esp
  101b58:	ff 75 0c             	push   0xc(%ebp)
  101b5b:	ff 75 08             	push   0x8(%ebp)
  101b5e:	68 b4 67 10 00       	push   $0x1067b4
  101b63:	6a 00                	push   $0x0
  101b65:	6a 32                	push   $0x32
  101b67:	68 a2 67 10 00       	push   $0x1067a2
  101b6c:	e8 31 e9 ff ff       	call   1004a2 <dprintf_internal>
  101b71:	83 c4 20             	add    $0x20,%esp
  101b74:	e8 44 ed ff ff       	call   1008bd <kernel_panic_finalize>
  101b79:	90                   	nop
  101b7a:	c9                   	leave  
  101b7b:	c3                   	ret    

00101b7c <mem_load_pdbr>:
  101b7c:	55                   	push   %ebp
  101b7d:	89 e5                	mov    %esp,%ebp
  101b7f:	8b 45 08             	mov    0x8(%ebp),%eax
  101b82:	0f 22 d8             	mov    %eax,%cr3
  101b85:	90                   	nop
  101b86:	5d                   	pop    %ebp
  101b87:	c3                   	ret    

00101b88 <mem_setPaging>:
  101b88:	55                   	push   %ebp
  101b89:	89 e5                	mov    %esp,%ebp
  101b8b:	83 ec 14             	sub    $0x14,%esp
  101b8e:	8b 45 08             	mov    0x8(%ebp),%eax
  101b91:	88 45 ec             	mov    %al,-0x14(%ebp)
  101b94:	80 7d ec 00          	cmpb   $0x0,-0x14(%ebp)
  101b98:	74 25                	je     101bbf <mem_setPaging+0x37>
  101b9a:	0f 20 e0             	mov    %cr4,%eax
  101b9d:	89 45 f8             	mov    %eax,-0x8(%ebp)
  101ba0:	83 65 f8 ef          	andl   $0xffffffef,-0x8(%ebp)
  101ba4:	8b 45 f8             	mov    -0x8(%ebp),%eax
  101ba7:	0f 22 e0             	mov    %eax,%cr4
  101baa:	0f 20 c0             	mov    %cr0,%eax
  101bad:	89 45 f4             	mov    %eax,-0xc(%ebp)
  101bb0:	81 4d f4 01 00 01 80 	orl    $0x80010001,-0xc(%ebp)
  101bb7:	8b 45 f4             	mov    -0xc(%ebp),%eax
  101bba:	0f 22 c0             	mov    %eax,%cr0
  101bbd:	eb 13                	jmp    101bd2 <mem_setPaging+0x4a>
  101bbf:	0f 20 c0             	mov    %cr0,%eax
  101bc2:	89 45 fc             	mov    %eax,-0x4(%ebp)
  101bc5:	81 65 fc ff ff ff 7f 	andl   $0x7fffffff,-0x4(%ebp)
  101bcc:	8b 45 fc             	mov    -0x4(%ebp),%eax
  101bcf:	0f 22 e0             	mov    %eax,%cr4
  101bd2:	90                   	nop
  101bd3:	c9                   	leave  
  101bd4:	c3                   	ret    

00101bd5 <mem_remapPhys>:
  101bd5:	55                   	push   %ebp
  101bd6:	89 e5                	mov    %esp,%ebp
  101bd8:	83 ec 08             	sub    $0x8,%esp
  101bdb:	81 7d 08 00 00 00 30 	cmpl   $0x30000000,0x8(%ebp)
  101be2:	76 17                	jbe    101bfb <mem_remapPhys+0x26>
  101be4:	83 ec 04             	sub    $0x4,%esp
  101be7:	68 e4 67 10 00       	push   $0x1067e4
  101bec:	68 44 68 10 00       	push   $0x106844
  101bf1:	6a 01                	push   $0x1
  101bf3:	e8 69 ea ff ff       	call   100661 <kernel_panic_extended>
  101bf8:	83 c4 10             	add    $0x10,%esp
  101bfb:	8b 45 08             	mov    0x8(%ebp),%eax
  101bfe:	0d 00 00 00 b0       	or     $0xb0000000,%eax
  101c03:	c9                   	leave  
  101c04:	c3                   	ret    

00101c05 <mem_switchDirectory>:
  101c05:	55                   	push   %ebp
  101c06:	89 e5                	mov    %esp,%ebp
  101c08:	83 7d 08 00          	cmpl   $0x0,0x8(%ebp)
  101c0c:	75 07                	jne    101c15 <mem_switchDirectory+0x10>
  101c0e:	b8 ea ff ff ff       	mov    $0xffffffea,%eax
  101c13:	eb 1e                	jmp    101c33 <mem_switchDirectory+0x2e>
  101c15:	8b 45 08             	mov    0x8(%ebp),%eax
  101c18:	a3 5c 9e 10 00       	mov    %eax,0x109e5c
  101c1d:	8b 45 08             	mov    0x8(%ebp),%eax
  101c20:	25 ff ff ff 4f       	and    $0x4fffffff,%eax
  101c25:	50                   	push   %eax
  101c26:	e8 51 ff ff ff       	call   101b7c <mem_load_pdbr>
  101c2b:	83 c4 04             	add    $0x4,%esp
  101c2e:	b8 00 00 00 00       	mov    $0x0,%eax
  101c33:	c9                   	leave  
  101c34:	c3                   	ret    

00101c35 <mem_getPage>:
  101c35:	55                   	push   %ebp
  101c36:	89 e5                	mov    %esp,%ebp
  101c38:	83 ec 18             	sub    $0x18,%esp
  101c3b:	83 7d 08 00          	cmpl   $0x0,0x8(%ebp)
  101c3f:	74 05                	je     101c46 <mem_getPage+0x11>
  101c41:	8b 45 08             	mov    0x8(%ebp),%eax
  101c44:	eb 05                	jmp    101c4b <mem_getPage+0x16>
  101c46:	a1 5c 9e 10 00       	mov    0x109e5c,%eax
  101c4b:	89 45 f4             	mov    %eax,-0xc(%ebp)
  101c4e:	8b 45 0c             	mov    0xc(%ebp),%eax
  101c51:	c1 e8 16             	shr    $0x16,%eax
  101c54:	8d 14 85 00 00 00 00 	lea    0x0(,%eax,4),%edx
  101c5b:	8b 45 f4             	mov    -0xc(%ebp),%eax
  101c5e:	01 d0                	add    %edx,%eax
  101c60:	89 45 f0             	mov    %eax,-0x10(%ebp)
  101c63:	8b 45 f0             	mov    -0x10(%ebp),%eax
  101c66:	0f b6 00             	movzbl (%eax),%eax
  101c69:	83 e0 01             	and    $0x1,%eax
  101c6c:	84 c0                	test   %al,%al
  101c6e:	0f 85 91 00 00 00    	jne    101d05 <mem_getPage+0xd0>
  101c74:	83 7d 10 00          	cmpl   $0x0,0x10(%ebp)
  101c78:	0f 84 bd 00 00 00    	je     101d3b <mem_getPage+0x106>
  101c7e:	e8 e6 ef ff ff       	call   100c69 <pmm_allocateBlock>
  101c83:	89 45 ec             	mov    %eax,-0x14(%ebp)
  101c86:	83 ec 0c             	sub    $0xc,%esp
  101c89:	ff 75 ec             	push   -0x14(%ebp)
  101c8c:	e8 44 ff ff ff       	call   101bd5 <mem_remapPhys>
  101c91:	83 c4 10             	add    $0x10,%esp
  101c94:	83 ec 04             	sub    $0x4,%esp
  101c97:	68 00 10 00 00       	push   $0x1000
  101c9c:	6a 00                	push   $0x0
  101c9e:	50                   	push   %eax
  101c9f:	e8 35 2a 00 00       	call   1046d9 <memset>
  101ca4:	83 c4 10             	add    $0x10,%esp
  101ca7:	83 ec 0c             	sub    $0xc,%esp
  101caa:	ff 75 ec             	push   -0x14(%ebp)
  101cad:	68 48 68 10 00       	push   $0x106848
  101cb2:	6a 04                	push   $0x4
  101cb4:	68 a2 00 00 00       	push   $0xa2
  101cb9:	68 a2 67 10 00       	push   $0x1067a2
  101cbe:	e8 df e7 ff ff       	call   1004a2 <dprintf_internal>
  101cc3:	83 c4 20             	add    $0x20,%esp
  101cc6:	8b 45 f0             	mov    -0x10(%ebp),%eax
  101cc9:	0f b6 10             	movzbl (%eax),%edx
  101ccc:	83 ca 01             	or     $0x1,%edx
  101ccf:	88 10                	mov    %dl,(%eax)
  101cd1:	8b 45 f0             	mov    -0x10(%ebp),%eax
  101cd4:	0f b6 10             	movzbl (%eax),%edx
  101cd7:	83 ca 02             	or     $0x2,%edx
  101cda:	88 10                	mov    %dl,(%eax)
  101cdc:	8b 45 f0             	mov    -0x10(%ebp),%eax
  101cdf:	0f b6 10             	movzbl (%eax),%edx
  101ce2:	83 ca 04             	or     $0x4,%edx
  101ce5:	88 10                	mov    %dl,(%eax)
  101ce7:	8b 45 ec             	mov    -0x14(%ebp),%eax
  101cea:	25 ff ff 0f 00       	and    $0xfffff,%eax
  101cef:	89 c2                	mov    %eax,%edx
  101cf1:	8b 45 f0             	mov    -0x10(%ebp),%eax
  101cf4:	89 d1                	mov    %edx,%ecx
  101cf6:	c1 e1 0c             	shl    $0xc,%ecx
  101cf9:	8b 10                	mov    (%eax),%edx
  101cfb:	81 e2 ff 0f 00 00    	and    $0xfff,%edx
  101d01:	09 ca                	or     %ecx,%edx
  101d03:	89 10                	mov    %edx,(%eax)
  101d05:	8b 45 0c             	mov    0xc(%ebp),%eax
  101d08:	c1 e8 16             	shr    $0x16,%eax
  101d0b:	8d 14 85 00 00 00 00 	lea    0x0(,%eax,4),%edx
  101d12:	8b 45 f4             	mov    -0xc(%ebp),%eax
  101d15:	01 d0                	add    %edx,%eax
  101d17:	8b 00                	mov    (%eax),%eax
  101d19:	c1 e8 0c             	shr    $0xc,%eax
  101d1c:	c1 e0 0c             	shl    $0xc,%eax
  101d1f:	89 45 e8             	mov    %eax,-0x18(%ebp)
  101d22:	8b 45 0c             	mov    0xc(%ebp),%eax
  101d25:	c1 e8 0c             	shr    $0xc,%eax
  101d28:	25 ff 03 00 00       	and    $0x3ff,%eax
  101d2d:	8d 14 85 00 00 00 00 	lea    0x0(,%eax,4),%edx
  101d34:	8b 45 e8             	mov    -0x18(%ebp),%eax
  101d37:	01 d0                	add    %edx,%eax
  101d39:	eb 06                	jmp    101d41 <mem_getPage+0x10c>
  101d3b:	90                   	nop
  101d3c:	b8 00 00 00 00       	mov    $0x0,%eax
  101d41:	c9                   	leave  
  101d42:	c3                   	ret    

00101d43 <mem_init>:
  101d43:	55                   	push   %ebp
  101d44:	89 e5                	mov    %esp,%ebp
  101d46:	83 ec 58             	sub    $0x58,%esp
  101d49:	83 7d 08 00          	cmpl   $0x0,0x8(%ebp)
  101d4d:	75 12                	jne    101d61 <mem_init+0x1e>
  101d4f:	83 ec 08             	sub    $0x8,%esp
  101d52:	68 44 68 10 00       	push   $0x106844
  101d57:	6a 02                	push   $0x2
  101d59:	e8 0c ea ff ff       	call   10076a <kernel_panic>
  101d5e:	83 c4 10             	add    $0x10,%esp
  101d61:	8b 45 08             	mov    0x8(%ebp),%eax
  101d64:	a3 64 9e 10 00       	mov    %eax,0x109e64
  101d69:	e8 fb ee ff ff       	call   100c69 <pmm_allocateBlock>
  101d6e:	89 45 d8             	mov    %eax,-0x28(%ebp)
  101d71:	83 ec 04             	sub    $0x4,%esp
  101d74:	68 00 10 00 00       	push   $0x1000
  101d79:	6a 00                	push   $0x0
  101d7b:	ff 75 d8             	push   -0x28(%ebp)
  101d7e:	e8 56 29 00 00       	call   1046d9 <memset>
  101d83:	83 c4 10             	add    $0x10,%esp
  101d86:	e8 8e f0 ff ff       	call   100e19 <pmm_getMaximumBlocks>
  101d8b:	c1 e0 0c             	shl    $0xc,%eax
  101d8e:	89 45 d4             	mov    %eax,-0x2c(%ebp)
  101d91:	8b 45 d4             	mov    -0x2c(%ebp),%eax
  101d94:	c1 e8 0c             	shr    $0xc,%eax
  101d97:	89 45 d0             	mov    %eax,-0x30(%ebp)
  101d9a:	81 7d d4 00 00 00 30 	cmpl   $0x30000000,-0x2c(%ebp)
  101da1:	76 28                	jbe    101dcb <mem_init+0x88>
  101da3:	8b 45 d4             	mov    -0x2c(%ebp),%eax
  101da6:	c1 e8 0a             	shr    $0xa,%eax
  101da9:	83 ec 08             	sub    $0x8,%esp
  101dac:	50                   	push   %eax
  101dad:	68 00 00 0c 00       	push   $0xc0000
  101db2:	68 60 68 10 00       	push   $0x106860
  101db7:	6a 02                	push   $0x2
  101db9:	68 d2 00 00 00       	push   $0xd2
  101dbe:	68 a2 67 10 00       	push   $0x1067a2
  101dc3:	e8 da e6 ff ff       	call   1004a2 <dprintf_internal>
  101dc8:	83 c4 20             	add    $0x20,%esp
  101dcb:	c7 45 f4 00 00 00 00 	movl   $0x0,-0xc(%ebp)
  101dd2:	c7 45 f0 00 00 00 00 	movl   $0x0,-0x10(%ebp)
  101dd9:	8b 45 d0             	mov    -0x30(%ebp),%eax
  101ddc:	05 00 04 00 00       	add    $0x400,%eax
  101de1:	c1 e8 0a             	shr    $0xa,%eax
  101de4:	89 45 cc             	mov    %eax,-0x34(%ebp)
  101de7:	c7 45 ec 00 00 00 00 	movl   $0x0,-0x14(%ebp)
  101dee:	c7 45 e8 00 00 00 00 	movl   $0x0,-0x18(%ebp)
  101df5:	e9 18 01 00 00       	jmp    101f12 <mem_init+0x1cf>
  101dfa:	e8 6a ee ff ff       	call   100c69 <pmm_allocateBlock>
  101dff:	89 45 c8             	mov    %eax,-0x38(%ebp)
  101e02:	83 ec 04             	sub    $0x4,%esp
  101e05:	68 00 10 00 00       	push   $0x1000
  101e0a:	6a 00                	push   $0x0
  101e0c:	ff 75 c8             	push   -0x38(%ebp)
  101e0f:	e8 c5 28 00 00       	call   1046d9 <memset>
  101e14:	83 c4 10             	add    $0x10,%esp
  101e17:	c7 45 e4 00 00 00 00 	movl   $0x0,-0x1c(%ebp)
  101e1e:	eb 77                	jmp    101e97 <mem_init+0x154>
  101e20:	c7 45 b0 00 00 00 00 	movl   $0x0,-0x50(%ebp)
  101e27:	0f b6 45 b0          	movzbl -0x50(%ebp),%eax
  101e2b:	83 c8 01             	or     $0x1,%eax
  101e2e:	88 45 b0             	mov    %al,-0x50(%ebp)
  101e31:	0f b6 45 b0          	movzbl -0x50(%ebp),%eax
  101e35:	83 c8 02             	or     $0x2,%eax
  101e38:	88 45 b0             	mov    %al,-0x50(%ebp)
  101e3b:	0f b6 45 b0          	movzbl -0x50(%ebp),%eax
  101e3f:	83 c8 04             	or     $0x4,%eax
  101e42:	88 45 b0             	mov    %al,-0x50(%ebp)
  101e45:	8b 45 f4             	mov    -0xc(%ebp),%eax
  101e48:	25 ff ff 0f 00       	and    $0xfffff,%eax
  101e4d:	c1 e0 0c             	shl    $0xc,%eax
  101e50:	89 c2                	mov    %eax,%edx
  101e52:	8b 45 b0             	mov    -0x50(%ebp),%eax
  101e55:	25 ff 0f 00 00       	and    $0xfff,%eax
  101e5a:	09 d0                	or     %edx,%eax
  101e5c:	89 45 b0             	mov    %eax,-0x50(%ebp)
  101e5f:	8b 45 f4             	mov    -0xc(%ebp),%eax
  101e62:	2d 00 00 00 50       	sub    $0x50000000,%eax
  101e67:	c1 e8 0c             	shr    $0xc,%eax
  101e6a:	25 ff 03 00 00       	and    $0x3ff,%eax
  101e6f:	8d 14 85 00 00 00 00 	lea    0x0(,%eax,4),%edx
  101e76:	8b 45 c8             	mov    -0x38(%ebp),%eax
  101e79:	01 c2                	add    %eax,%edx
  101e7b:	8b 45 b0             	mov    -0x50(%ebp),%eax
  101e7e:	89 02                	mov    %eax,(%edx)
  101e80:	83 45 ec 01          	addl   $0x1,-0x14(%ebp)
  101e84:	8b 45 d0             	mov    -0x30(%ebp),%eax
  101e87:	39 45 ec             	cmp    %eax,-0x14(%ebp)
  101e8a:	74 16                	je     101ea2 <mem_init+0x15f>
  101e8c:	81 45 f4 00 10 00 00 	addl   $0x1000,-0xc(%ebp)
  101e93:	83 45 e4 01          	addl   $0x1,-0x1c(%ebp)
  101e97:	81 7d e4 ff 03 00 00 	cmpl   $0x3ff,-0x1c(%ebp)
  101e9e:	7e 80                	jle    101e20 <mem_init+0xdd>
  101ea0:	eb 01                	jmp    101ea3 <mem_init+0x160>
  101ea2:	90                   	nop
  101ea3:	8b 45 f0             	mov    -0x10(%ebp),%eax
  101ea6:	2d 00 00 00 50       	sub    $0x50000000,%eax
  101eab:	c1 e8 16             	shr    $0x16,%eax
  101eae:	8d 14 85 00 00 00 00 	lea    0x0(,%eax,4),%edx
  101eb5:	8b 45 d8             	mov    -0x28(%ebp),%eax
  101eb8:	01 d0                	add    %edx,%eax
  101eba:	89 45 c4             	mov    %eax,-0x3c(%ebp)
  101ebd:	8b 45 c4             	mov    -0x3c(%ebp),%eax
  101ec0:	0f b6 10             	movzbl (%eax),%edx
  101ec3:	83 ca 01             	or     $0x1,%edx
  101ec6:	88 10                	mov    %dl,(%eax)
  101ec8:	8b 45 c4             	mov    -0x3c(%ebp),%eax
  101ecb:	0f b6 10             	movzbl (%eax),%edx
  101ece:	83 ca 02             	or     $0x2,%edx
  101ed1:	88 10                	mov    %dl,(%eax)
  101ed3:	8b 45 c4             	mov    -0x3c(%ebp),%eax
  101ed6:	0f b6 10             	movzbl (%eax),%edx
  101ed9:	83 ca 04             	or     $0x4,%edx
  101edc:	88 10                	mov    %dl,(%eax)
  101ede:	8b 45 c8             	mov    -0x38(%ebp),%eax
  101ee1:	c1 e8 0c             	shr    $0xc,%eax
  101ee4:	25 ff ff 0f 00       	and    $0xfffff,%eax
  101ee9:	89 c2                	mov    %eax,%edx
  101eeb:	8b 45 c4             	mov    -0x3c(%ebp),%eax
  101eee:	89 d1                	mov    %edx,%ecx
  101ef0:	c1 e1 0c             	shl    $0xc,%ecx
  101ef3:	8b 10                	mov    (%eax),%edx
  101ef5:	81 e2 ff 0f 00 00    	and    $0xfff,%edx
  101efb:	09 ca                	or     %ecx,%edx
  101efd:	89 10                	mov    %edx,(%eax)
  101eff:	81 45 f0 00 00 40 00 	addl   $0x400000,-0x10(%ebp)
  101f06:	8b 45 d0             	mov    -0x30(%ebp),%eax
  101f09:	39 45 ec             	cmp    %eax,-0x14(%ebp)
  101f0c:	74 12                	je     101f20 <mem_init+0x1dd>
  101f0e:	83 45 e8 01          	addl   $0x1,-0x18(%ebp)
  101f12:	8b 45 e8             	mov    -0x18(%ebp),%eax
  101f15:	3b 45 cc             	cmp    -0x34(%ebp),%eax
  101f18:	0f 8c dc fe ff ff    	jl     101dfa <mem_init+0xb7>
  101f1e:	eb 01                	jmp    101f21 <mem_init+0x1de>
  101f20:	90                   	nop
  101f21:	a1 64 9e 10 00       	mov    0x109e64,%eax
  101f26:	05 ff 0f 00 00       	add    $0xfff,%eax
  101f2b:	25 00 f0 ff ff       	and    $0xfffff000,%eax
  101f30:	89 45 c0             	mov    %eax,-0x40(%ebp)
  101f33:	8b 45 c0             	mov    -0x40(%ebp),%eax
  101f36:	c1 e8 0c             	shr    $0xc,%eax
  101f39:	89 45 bc             	mov    %eax,-0x44(%ebp)
  101f3c:	8b 45 bc             	mov    -0x44(%ebp),%eax
  101f3f:	05 00 04 00 00       	add    $0x400,%eax
  101f44:	c1 e8 0a             	shr    $0xa,%eax
  101f47:	89 45 cc             	mov    %eax,-0x34(%ebp)
  101f4a:	c7 45 ec 00 00 00 00 	movl   $0x0,-0x14(%ebp)
  101f51:	c7 45 f4 00 00 00 00 	movl   $0x0,-0xc(%ebp)
  101f58:	c7 45 f0 00 00 00 00 	movl   $0x0,-0x10(%ebp)
  101f5f:	c7 45 e0 00 00 00 00 	movl   $0x0,-0x20(%ebp)
  101f66:	e9 f9 00 00 00       	jmp    102064 <mem_init+0x321>
  101f6b:	e8 f9 ec ff ff       	call   100c69 <pmm_allocateBlock>
  101f70:	89 45 b8             	mov    %eax,-0x48(%ebp)
  101f73:	83 ec 04             	sub    $0x4,%esp
  101f76:	68 00 10 00 00       	push   $0x1000
  101f7b:	6a 00                	push   $0x0
  101f7d:	ff 75 b8             	push   -0x48(%ebp)
  101f80:	e8 54 27 00 00       	call   1046d9 <memset>
  101f85:	83 c4 10             	add    $0x10,%esp
  101f88:	c7 45 dc 00 00 00 00 	movl   $0x0,-0x24(%ebp)
  101f8f:	eb 68                	jmp    101ff9 <mem_init+0x2b6>
  101f91:	c7 45 ac 00 00 00 00 	movl   $0x0,-0x54(%ebp)
  101f98:	0f b6 45 ac          	movzbl -0x54(%ebp),%eax
  101f9c:	83 c8 01             	or     $0x1,%eax
  101f9f:	88 45 ac             	mov    %al,-0x54(%ebp)
  101fa2:	0f b6 45 ac          	movzbl -0x54(%ebp),%eax
  101fa6:	83 c8 02             	or     $0x2,%eax
  101fa9:	88 45 ac             	mov    %al,-0x54(%ebp)
  101fac:	8b 45 f4             	mov    -0xc(%ebp),%eax
  101faf:	25 ff ff 0f 00       	and    $0xfffff,%eax
  101fb4:	c1 e0 0c             	shl    $0xc,%eax
  101fb7:	89 c2                	mov    %eax,%edx
  101fb9:	8b 45 ac             	mov    -0x54(%ebp),%eax
  101fbc:	25 ff 0f 00 00       	and    $0xfff,%eax
  101fc1:	09 d0                	or     %edx,%eax
  101fc3:	89 45 ac             	mov    %eax,-0x54(%ebp)
  101fc6:	8b 45 f4             	mov    -0xc(%ebp),%eax
  101fc9:	c1 e8 0c             	shr    $0xc,%eax
  101fcc:	25 ff 03 00 00       	and    $0x3ff,%eax
  101fd1:	8d 14 85 00 00 00 00 	lea    0x0(,%eax,4),%edx
  101fd8:	8b 45 b8             	mov    -0x48(%ebp),%eax
  101fdb:	01 c2                	add    %eax,%edx
  101fdd:	8b 45 ac             	mov    -0x54(%ebp),%eax
  101fe0:	89 02                	mov    %eax,(%edx)
  101fe2:	83 45 ec 01          	addl   $0x1,-0x14(%ebp)
  101fe6:	8b 45 d0             	mov    -0x30(%ebp),%eax
  101fe9:	39 45 ec             	cmp    %eax,-0x14(%ebp)
  101fec:	74 16                	je     102004 <mem_init+0x2c1>
  101fee:	81 45 f4 00 10 00 00 	addl   $0x1000,-0xc(%ebp)
  101ff5:	83 45 dc 01          	addl   $0x1,-0x24(%ebp)
  101ff9:	81 7d dc ff 03 00 00 	cmpl   $0x3ff,-0x24(%ebp)
  102000:	7e 8f                	jle    101f91 <mem_init+0x24e>
  102002:	eb 01                	jmp    102005 <mem_init+0x2c2>
  102004:	90                   	nop
  102005:	8b 45 f0             	mov    -0x10(%ebp),%eax
  102008:	c1 e8 16             	shr    $0x16,%eax
  10200b:	8d 14 85 00 00 00 00 	lea    0x0(,%eax,4),%edx
  102012:	8b 45 d8             	mov    -0x28(%ebp),%eax
  102015:	01 d0                	add    %edx,%eax
  102017:	89 45 b4             	mov    %eax,-0x4c(%ebp)
  10201a:	8b 45 b4             	mov    -0x4c(%ebp),%eax
  10201d:	0f b6 10             	movzbl (%eax),%edx
  102020:	83 ca 01             	or     $0x1,%edx
  102023:	88 10                	mov    %dl,(%eax)
  102025:	8b 45 b4             	mov    -0x4c(%ebp),%eax
  102028:	0f b6 10             	movzbl (%eax),%edx
  10202b:	83 ca 02             	or     $0x2,%edx
  10202e:	88 10                	mov    %dl,(%eax)
  102030:	8b 45 b8             	mov    -0x48(%ebp),%eax
  102033:	c1 e8 0c             	shr    $0xc,%eax
  102036:	25 ff ff 0f 00       	and    $0xfffff,%eax
  10203b:	89 c2                	mov    %eax,%edx
  10203d:	8b 45 b4             	mov    -0x4c(%ebp),%eax
  102040:	89 d1                	mov    %edx,%ecx
  102042:	c1 e1 0c             	shl    $0xc,%ecx
  102045:	8b 10                	mov    (%eax),%edx
  102047:	81 e2 ff 0f 00 00    	and    $0xfff,%edx
  10204d:	09 ca                	or     %ecx,%edx
  10204f:	89 10                	mov    %edx,(%eax)
  102051:	81 45 f0 00 00 40 00 	addl   $0x400000,-0x10(%ebp)
  102058:	8b 45 d0             	mov    -0x30(%ebp),%eax
  10205b:	39 45 ec             	cmp    %eax,-0x14(%ebp)
  10205e:	74 12                	je     102072 <mem_init+0x32f>
  102060:	83 45 e0 01          	addl   $0x1,-0x20(%ebp)
  102064:	8b 45 e0             	mov    -0x20(%ebp),%eax
  102067:	3b 45 cc             	cmp    -0x34(%ebp),%eax
  10206a:	0f 8c fb fe ff ff    	jl     101f6b <mem_init+0x228>
  102070:	eb 01                	jmp    102073 <mem_init+0x330>
  102072:	90                   	nop
  102073:	68 c8 68 10 00       	push   $0x1068c8
  102078:	6a 01                	push   $0x1
  10207a:	68 1f 01 00 00       	push   $0x11f
  10207f:	68 a2 67 10 00       	push   $0x1067a2
  102084:	e8 19 e4 ff ff       	call   1004a2 <dprintf_internal>
  102089:	83 c4 10             	add    $0x10,%esp
  10208c:	8b 45 d8             	mov    -0x28(%ebp),%eax
  10208f:	a3 60 9e 10 00       	mov    %eax,0x109e60
  102094:	a1 60 9e 10 00       	mov    0x109e60,%eax
  102099:	83 ec 0c             	sub    $0xc,%esp
  10209c:	50                   	push   %eax
  10209d:	e8 63 fb ff ff       	call   101c05 <mem_switchDirectory>
  1020a2:	83 c4 10             	add    $0x10,%esp
  1020a5:	83 ec 0c             	sub    $0xc,%esp
  1020a8:	6a 01                	push   $0x1
  1020aa:	e8 d9 fa ff ff       	call   101b88 <mem_setPaging>
  1020af:	83 c4 10             	add    $0x10,%esp
  1020b2:	68 e7 68 10 00       	push   $0x1068e7
  1020b7:	6a 01                	push   $0x1
  1020b9:	68 25 01 00 00       	push   $0x125
  1020be:	68 a2 67 10 00       	push   $0x1067a2
  1020c3:	e8 da e3 ff ff       	call   1004a2 <dprintf_internal>
  1020c8:	83 c4 10             	add    $0x10,%esp
  1020cb:	90                   	nop
  1020cc:	eb fd                	jmp    1020cb <mem_init+0x388>

001020ce <hal_init>:
  1020ce:	55                   	push   %ebp
  1020cf:	89 e5                	mov    %esp,%ebp
  1020d1:	83 ec 08             	sub    $0x8,%esp
  1020d4:	e8 44 0c 00 00       	call   102d1d <serial_initialize>
  1020d9:	83 ec 0c             	sub    $0xc,%esp
  1020dc:	68 f6 2d 10 00       	push   $0x102df6
  1020e1:	e8 3c e5 ff ff       	call   100622 <debug_setOutput>
  1020e6:	83 c4 10             	add    $0x10,%esp
  1020e9:	e8 c2 00 00 00       	call   1021b0 <arch_say_hello>
  1020ee:	e8 25 f6 ff ff       	call   101718 <hal_initializeInterrupts>
  1020f3:	e8 ff 08 00 00       	call   1029f7 <clock_initialize>
  1020f8:	e8 20 0e 00 00       	call   102f1d <pit_initialize>
  1020fd:	90                   	nop
  1020fe:	c9                   	leave  
  1020ff:	c3                   	ret    

00102100 <outportb>:
  102100:	55                   	push   %ebp
  102101:	89 e5                	mov    %esp,%ebp
  102103:	83 ec 08             	sub    $0x8,%esp
  102106:	8b 55 08             	mov    0x8(%ebp),%edx
  102109:	8b 45 0c             	mov    0xc(%ebp),%eax
  10210c:	66 89 55 fc          	mov    %dx,-0x4(%ebp)
  102110:	88 45 f8             	mov    %al,-0x8(%ebp)
  102113:	0f b7 55 fc          	movzwl -0x4(%ebp),%edx
  102117:	0f b6 45 f8          	movzbl -0x8(%ebp),%eax
  10211b:	ee                   	out    %al,(%dx)
  10211c:	90                   	nop
  10211d:	c9                   	leave  
  10211e:	c3                   	ret    

0010211f <outportw>:
  10211f:	55                   	push   %ebp
  102120:	89 e5                	mov    %esp,%ebp
  102122:	83 ec 08             	sub    $0x8,%esp
  102125:	8b 55 08             	mov    0x8(%ebp),%edx
  102128:	8b 45 0c             	mov    0xc(%ebp),%eax
  10212b:	66 89 55 fc          	mov    %dx,-0x4(%ebp)
  10212f:	66 89 45 f8          	mov    %ax,-0x8(%ebp)
  102133:	0f b7 55 fc          	movzwl -0x4(%ebp),%edx
  102137:	0f b7 45 f8          	movzwl -0x8(%ebp),%eax
  10213b:	66 ef                	out    %ax,(%dx)
  10213d:	90                   	nop
  10213e:	c9                   	leave  
  10213f:	c3                   	ret    

00102140 <outportl>:
  102140:	55                   	push   %ebp
  102141:	89 e5                	mov    %esp,%ebp
  102143:	83 ec 04             	sub    $0x4,%esp
  102146:	8b 45 08             	mov    0x8(%ebp),%eax
  102149:	66 89 45 fc          	mov    %ax,-0x4(%ebp)
  10214d:	0f b7 55 fc          	movzwl -0x4(%ebp),%edx
  102151:	8b 45 0c             	mov    0xc(%ebp),%eax
  102154:	ef                   	out    %eax,(%dx)
  102155:	90                   	nop
  102156:	c9                   	leave  
  102157:	c3                   	ret    

00102158 <inportb>:
  102158:	55                   	push   %ebp
  102159:	89 e5                	mov    %esp,%ebp
  10215b:	83 ec 14             	sub    $0x14,%esp
  10215e:	8b 45 08             	mov    0x8(%ebp),%eax
  102161:	66 89 45 ec          	mov    %ax,-0x14(%ebp)
  102165:	0f b7 45 ec          	movzwl -0x14(%ebp),%eax
  102169:	89 c2                	mov    %eax,%edx
  10216b:	ec                   	in     (%dx),%al
  10216c:	88 45 ff             	mov    %al,-0x1(%ebp)
  10216f:	0f b6 45 ff          	movzbl -0x1(%ebp),%eax
  102173:	c9                   	leave  
  102174:	c3                   	ret    

00102175 <inportw>:
  102175:	55                   	push   %ebp
  102176:	89 e5                	mov    %esp,%ebp
  102178:	83 ec 14             	sub    $0x14,%esp
  10217b:	8b 45 08             	mov    0x8(%ebp),%eax
  10217e:	66 89 45 ec          	mov    %ax,-0x14(%ebp)
  102182:	0f b7 45 ec          	movzwl -0x14(%ebp),%eax
  102186:	89 c2                	mov    %eax,%edx
  102188:	66 ed                	in     (%dx),%ax
  10218a:	66 89 45 fe          	mov    %ax,-0x2(%ebp)
  10218e:	0f b7 45 fe          	movzwl -0x2(%ebp),%eax
  102192:	c9                   	leave  
  102193:	c3                   	ret    

00102194 <inportl>:
  102194:	55                   	push   %ebp
  102195:	89 e5                	mov    %esp,%ebp
  102197:	83 ec 14             	sub    $0x14,%esp
  10219a:	8b 45 08             	mov    0x8(%ebp),%eax
  10219d:	66 89 45 ec          	mov    %ax,-0x14(%ebp)
  1021a1:	0f b7 45 ec          	movzwl -0x14(%ebp),%eax
  1021a5:	89 c2                	mov    %eax,%edx
  1021a7:	ed                   	in     (%dx),%eax
  1021a8:	89 45 fc             	mov    %eax,-0x4(%ebp)
  1021ab:	8b 45 fc             	mov    -0x4(%ebp),%eax
  1021ae:	c9                   	leave  
  1021af:	c3                   	ret    

001021b0 <arch_say_hello>:
  1021b0:	55                   	push   %ebp
  1021b1:	89 e5                	mov    %esp,%ebp
  1021b3:	57                   	push   %edi
  1021b4:	56                   	push   %esi
  1021b5:	53                   	push   %ebx
  1021b6:	83 ec 0c             	sub    $0xc,%esp
  1021b9:	a1 10 80 10 00       	mov    0x108010,%eax
  1021be:	83 ec 0c             	sub    $0xc,%esp
  1021c1:	50                   	push   %eax
  1021c2:	68 00 69 10 00       	push   $0x106900
  1021c7:	6a 00                	push   $0x0
  1021c9:	6a 2a                	push   $0x2a
  1021cb:	68 04 69 10 00       	push   $0x106904
  1021d0:	e8 cd e2 ff ff       	call   1004a2 <dprintf_internal>
  1021d5:	83 c4 20             	add    $0x20,%esp
  1021d8:	8b 3d 0c 80 10 00    	mov    0x10800c,%edi
  1021de:	8b 35 14 80 10 00    	mov    0x108014,%esi
  1021e4:	8b 1d 18 80 10 00    	mov    0x108018,%ebx
  1021ea:	8b 0d 2c 60 10 00    	mov    0x10602c,%ecx
  1021f0:	8b 15 28 60 10 00    	mov    0x106028,%edx
  1021f6:	a1 24 60 10 00       	mov    0x106024,%eax
  1021fb:	83 ec 08             	sub    $0x8,%esp
  1021fe:	57                   	push   %edi
  1021ff:	56                   	push   %esi
  102200:	53                   	push   %ebx
  102201:	51                   	push   %ecx
  102202:	52                   	push   %edx
  102203:	50                   	push   %eax
  102204:	68 18 69 10 00       	push   $0x106918
  102209:	6a 00                	push   $0x0
  10220b:	6a 2b                	push   $0x2b
  10220d:	68 04 69 10 00       	push   $0x106904
  102212:	e8 8b e2 ff ff       	call   1004a2 <dprintf_internal>
  102217:	83 c4 30             	add    $0x30,%esp
  10221a:	8b 0d 08 80 10 00    	mov    0x108008,%ecx
  102220:	8b 15 04 80 10 00    	mov    0x108004,%edx
  102226:	a1 1c 80 10 00       	mov    0x10801c,%eax
  10222b:	83 ec 04             	sub    $0x4,%esp
  10222e:	51                   	push   %ecx
  10222f:	52                   	push   %edx
  102230:	50                   	push   %eax
  102231:	68 43 69 10 00       	push   $0x106943
  102236:	6a 00                	push   $0x0
  102238:	6a 33                	push   $0x33
  10223a:	68 04 69 10 00       	push   $0x106904
  10223f:	e8 5e e2 ff ff       	call   1004a2 <dprintf_internal>
  102244:	83 c4 20             	add    $0x20,%esp
  102247:	90                   	nop
  102248:	8d 65 f4             	lea    -0xc(%ebp),%esp
  10224b:	5b                   	pop    %ebx
  10224c:	5e                   	pop    %esi
  10224d:	5f                   	pop    %edi
  10224e:	5d                   	pop    %ebp
  10224f:	c3                   	ret    

00102250 <arch_panic_prepare>:
  102250:	55                   	push   %ebp
  102251:	89 e5                	mov    %esp,%ebp
  102253:	90                   	nop
  102254:	5d                   	pop    %ebp
  102255:	c3                   	ret    

00102256 <arch_panic_finalize>:
  102256:	55                   	push   %ebp
  102257:	89 e5                	mov    %esp,%ebp
  102259:	fa                   	cli    
  10225a:	f4                   	hlt    
  10225b:	90                   	nop
  10225c:	eb fd                	jmp    10225b <arch_panic_finalize+0x5>

0010225e <arch_allocate_structure>:
  10225e:	55                   	push   %ebp
  10225f:	89 e5                	mov    %esp,%ebp
  102261:	83 ec 18             	sub    $0x18,%esp
  102264:	a1 44 80 10 00       	mov    0x108044,%eax
  102269:	89 45 f4             	mov    %eax,-0xc(%ebp)
  10226c:	8b 15 44 80 10 00    	mov    0x108044,%edx
  102272:	8b 45 08             	mov    0x8(%ebp),%eax
  102275:	01 d0                	add    %edx,%eax
  102277:	a3 44 80 10 00       	mov    %eax,0x108044
  10227c:	8b 45 f4             	mov    -0xc(%ebp),%eax
  10227f:	83 ec 04             	sub    $0x4,%esp
  102282:	ff 75 08             	push   0x8(%ebp)
  102285:	6a 00                	push   $0x0
  102287:	50                   	push   %eax
  102288:	e8 4c 24 00 00       	call   1046d9 <memset>
  10228d:	83 c4 10             	add    $0x10,%esp
  102290:	8b 45 f4             	mov    -0xc(%ebp),%eax
  102293:	c9                   	leave  
  102294:	c3                   	ret    

00102295 <arch_relocate_structure>:
  102295:	55                   	push   %ebp
  102296:	89 e5                	mov    %esp,%ebp
  102298:	83 ec 18             	sub    $0x18,%esp
  10229b:	83 ec 0c             	sub    $0xc,%esp
  10229e:	ff 75 0c             	push   0xc(%ebp)
  1022a1:	e8 b8 ff ff ff       	call   10225e <arch_allocate_structure>
  1022a6:	83 c4 10             	add    $0x10,%esp
  1022a9:	89 45 f4             	mov    %eax,-0xc(%ebp)
  1022ac:	8b 55 08             	mov    0x8(%ebp),%edx
  1022af:	8b 45 f4             	mov    -0xc(%ebp),%eax
  1022b2:	83 ec 04             	sub    $0x4,%esp
  1022b5:	ff 75 0c             	push   0xc(%ebp)
  1022b8:	52                   	push   %edx
  1022b9:	50                   	push   %eax
  1022ba:	e8 d9 23 00 00       	call   104698 <memcpy>
  1022bf:	83 c4 10             	add    $0x10,%esp
  1022c2:	8b 45 f4             	mov    -0xc(%ebp),%eax
  1022c5:	c9                   	leave  
  1022c6:	c3                   	ret    

001022c7 <arch_main>:
  1022c7:	55                   	push   %ebp
  1022c8:	89 e5                	mov    %esp,%ebp
  1022ca:	83 ec 18             	sub    $0x18,%esp
  1022cd:	e8 fc fd ff ff       	call   1020ce <hal_init>
  1022d2:	a1 44 80 10 00       	mov    0x108044,%eax
  1022d7:	05 00 10 00 00       	add    $0x1000,%eax
  1022dc:	a3 44 80 10 00       	mov    %eax,0x108044
  1022e1:	a1 44 80 10 00       	mov    0x108044,%eax
  1022e6:	25 00 f0 ff ff       	and    $0xfffff000,%eax
  1022eb:	a3 44 80 10 00       	mov    %eax,0x108044
  1022f0:	c7 45 f4 00 00 00 00 	movl   $0x0,-0xc(%ebp)
  1022f7:	81 7d 0c 02 b0 ad 2b 	cmpl   $0x2badb002,0xc(%ebp)
  1022fe:	75 29                	jne    102329 <arch_main+0x62>
  102300:	68 5e 69 10 00       	push   $0x10695e
  102305:	6a 01                	push   $0x1
  102307:	6a 7a                	push   $0x7a
  102309:	68 04 69 10 00       	push   $0x106904
  10230e:	e8 8f e1 ff ff       	call   1004a2 <dprintf_internal>
  102313:	83 c4 10             	add    $0x10,%esp
  102316:	83 ec 0c             	sub    $0xc,%esp
  102319:	ff 75 08             	push   0x8(%ebp)
  10231c:	e8 2a eb ff ff       	call   100e4b <arch_parse_multiboot1>
  102321:	83 c4 10             	add    $0x10,%esp
  102324:	89 45 f4             	mov    %eax,-0xc(%ebp)
  102327:	eb 4a                	jmp    102373 <arch_main+0xac>
  102329:	81 7d 0c 89 62 d7 36 	cmpl   $0x36d76289,0xc(%ebp)
  102330:	75 2a                	jne    10235c <arch_main+0x95>
  102332:	68 7c 69 10 00       	push   $0x10697c
  102337:	6a 01                	push   $0x1
  102339:	6a 7d                	push   $0x7d
  10233b:	68 04 69 10 00       	push   $0x106904
  102340:	e8 5d e1 ff ff       	call   1004a2 <dprintf_internal>
  102345:	83 c4 10             	add    $0x10,%esp
  102348:	83 ec 08             	sub    $0x8,%esp
  10234b:	68 9a 69 10 00       	push   $0x10699a
  102350:	6a 00                	push   $0x0
  102352:	e8 13 e4 ff ff       	call   10076a <kernel_panic>
  102357:	83 c4 10             	add    $0x10,%esp
  10235a:	eb 17                	jmp    102373 <arch_main+0xac>
  10235c:	83 ec 04             	sub    $0x4,%esp
  10235f:	68 a0 69 10 00       	push   $0x1069a0
  102364:	68 9a 69 10 00       	push   $0x10699a
  102369:	6a 02                	push   $0x2
  10236b:	e8 f1 e2 ff ff       	call   100661 <kernel_panic_extended>
  102370:	83 c4 10             	add    $0x10,%esp
  102373:	8b 45 f4             	mov    -0xc(%ebp),%eax
  102376:	8b 10                	mov    (%eax),%edx
  102378:	8b 45 f4             	mov    -0xc(%ebp),%eax
  10237b:	8b 40 04             	mov    0x4(%eax),%eax
  10237e:	83 ec 08             	sub    $0x8,%esp
  102381:	52                   	push   %edx
  102382:	50                   	push   %eax
  102383:	68 d8 69 10 00       	push   $0x1069d8
  102388:	6a 01                	push   $0x1
  10238a:	68 83 00 00 00       	push   $0x83
  10238f:	68 04 69 10 00       	push   $0x106904
  102394:	e8 09 e1 ff ff       	call   1004a2 <dprintf_internal>
  102399:	83 c4 20             	add    $0x20,%esp
  10239c:	8b 45 f4             	mov    -0xc(%ebp),%eax
  10239f:	8b 40 14             	mov    0x14(%eax),%eax
  1023a2:	83 ec 0c             	sub    $0xc,%esp
  1023a5:	50                   	push   %eax
  1023a6:	68 00 6a 10 00       	push   $0x106a00
  1023ab:	6a 01                	push   $0x1
  1023ad:	68 84 00 00 00       	push   $0x84
  1023b2:	68 04 69 10 00       	push   $0x106904
  1023b7:	e8 e6 e0 ff ff       	call   1004a2 <dprintf_internal>
  1023bc:	83 c4 20             	add    $0x20,%esp
  1023bf:	8b 45 f4             	mov    -0xc(%ebp),%eax
  1023c2:	8b 40 14             	mov    0x14(%eax),%eax
  1023c5:	c1 e0 0a             	shl    $0xa,%eax
  1023c8:	c1 e8 0c             	shr    $0xc,%eax
  1023cb:	83 ec 0c             	sub    $0xc,%esp
  1023ce:	50                   	push   %eax
  1023cf:	e8 8a fe ff ff       	call   10225e <arch_allocate_structure>
  1023d4:	83 c4 10             	add    $0x10,%esp
  1023d7:	89 45 f0             	mov    %eax,-0x10(%ebp)
  1023da:	8b 45 f4             	mov    -0xc(%ebp),%eax
  1023dd:	8b 40 14             	mov    0x14(%eax),%eax
  1023e0:	c1 e0 0a             	shl    $0xa,%eax
  1023e3:	83 ec 08             	sub    $0x8,%esp
  1023e6:	ff 75 f0             	push   -0x10(%ebp)
  1023e9:	50                   	push   %eax
  1023ea:	e8 f2 e4 ff ff       	call   1008e1 <pmm_init>
  1023ef:	83 c4 10             	add    $0x10,%esp
  1023f2:	a1 44 80 10 00       	mov    0x108044,%eax
  1023f7:	83 ec 08             	sub    $0x8,%esp
  1023fa:	50                   	push   %eax
  1023fb:	ff 75 f4             	push   -0xc(%ebp)
  1023fe:	e8 6d ee ff ff       	call   101270 <arch_mark_memory>
  102403:	83 c4 10             	add    $0x10,%esp
  102406:	c7 45 ec e6 de 10 00 	movl   $0x10dee6,-0x14(%ebp)
  10240d:	c7 45 e8 b0 00 10 00 	movl   $0x1000b0,-0x18(%ebp)
  102414:	a1 44 80 10 00       	mov    0x108044,%eax
  102419:	2b 45 ec             	sub    -0x14(%ebp),%eax
  10241c:	c1 e8 0a             	shr    $0xa,%eax
  10241f:	89 c2                	mov    %eax,%edx
  102421:	8b 45 ec             	mov    -0x14(%ebp),%eax
  102424:	2b 45 e8             	sub    -0x18(%ebp),%eax
  102427:	c1 e8 0a             	shr    $0xa,%eax
  10242a:	83 ec 08             	sub    $0x8,%esp
  10242d:	52                   	push   %edx
  10242e:	50                   	push   %eax
  10242f:	68 30 6a 10 00       	push   $0x106a30
  102434:	6a 01                	push   $0x1
  102436:	68 90 00 00 00       	push   $0x90
  10243b:	68 04 69 10 00       	push   $0x106904
  102440:	e8 5d e0 ff ff       	call   1004a2 <dprintf_internal>
  102445:	83 c4 20             	add    $0x20,%esp
  102448:	a1 44 80 10 00       	mov    0x108044,%eax
  10244d:	83 ec 0c             	sub    $0xc,%esp
  102450:	50                   	push   %eax
  102451:	e8 ed f8 ff ff       	call   101d43 <mem_init>
  102456:	83 c4 10             	add    $0x10,%esp
  102459:	90                   	nop
  10245a:	eb fd                	jmp    102459 <arch_main+0x192>

0010245c <is_year_leap>:
  10245c:	55                   	push   %ebp
  10245d:	89 e5                	mov    %esp,%ebp
  10245f:	8b 45 08             	mov    0x8(%ebp),%eax
  102462:	83 e0 03             	and    $0x3,%eax
  102465:	85 c0                	test   %eax,%eax
  102467:	75 50                	jne    1024b9 <is_year_leap+0x5d>
  102469:	8b 4d 08             	mov    0x8(%ebp),%ecx
  10246c:	ba 1f 85 eb 51       	mov    $0x51eb851f,%edx
  102471:	89 c8                	mov    %ecx,%eax
  102473:	f7 ea                	imul   %edx
  102475:	89 d0                	mov    %edx,%eax
  102477:	c1 f8 05             	sar    $0x5,%eax
  10247a:	89 ca                	mov    %ecx,%edx
  10247c:	c1 fa 1f             	sar    $0x1f,%edx
  10247f:	29 d0                	sub    %edx,%eax
  102481:	6b d0 64             	imul   $0x64,%eax,%edx
  102484:	89 c8                	mov    %ecx,%eax
  102486:	29 d0                	sub    %edx,%eax
  102488:	85 c0                	test   %eax,%eax
  10248a:	75 26                	jne    1024b2 <is_year_leap+0x56>
  10248c:	8b 4d 08             	mov    0x8(%ebp),%ecx
  10248f:	ba 1f 85 eb 51       	mov    $0x51eb851f,%edx
  102494:	89 c8                	mov    %ecx,%eax
  102496:	f7 ea                	imul   %edx
  102498:	89 d0                	mov    %edx,%eax
  10249a:	c1 f8 07             	sar    $0x7,%eax
  10249d:	89 ca                	mov    %ecx,%edx
  10249f:	c1 fa 1f             	sar    $0x1f,%edx
  1024a2:	29 d0                	sub    %edx,%eax
  1024a4:	69 d0 90 01 00 00    	imul   $0x190,%eax,%edx
  1024aa:	89 c8                	mov    %ecx,%eax
  1024ac:	29 d0                	sub    %edx,%eax
  1024ae:	85 c0                	test   %eax,%eax
  1024b0:	75 07                	jne    1024b9 <is_year_leap+0x5d>
  1024b2:	b8 01 00 00 00       	mov    $0x1,%eax
  1024b7:	eb 05                	jmp    1024be <is_year_leap+0x62>
  1024b9:	b8 00 00 00 00       	mov    $0x0,%eax
  1024be:	83 e0 01             	and    $0x1,%eax
  1024c1:	5d                   	pop    %ebp
  1024c2:	c3                   	ret    

001024c3 <get_days_in_month>:
  1024c3:	55                   	push   %ebp
  1024c4:	89 e5                	mov    %esp,%ebp
  1024c6:	83 7d 08 0c          	cmpl   $0xc,0x8(%ebp)
  1024ca:	77 79                	ja     102545 <get_days_in_month+0x82>
  1024cc:	8b 45 08             	mov    0x8(%ebp),%eax
  1024cf:	c1 e0 02             	shl    $0x2,%eax
  1024d2:	05 78 6a 10 00       	add    $0x106a78,%eax
  1024d7:	8b 00                	mov    (%eax),%eax
  1024d9:	ff e0                	jmp    *%eax
  1024db:	b8 1f 00 00 00       	mov    $0x1f,%eax
  1024e0:	eb 68                	jmp    10254a <get_days_in_month+0x87>
  1024e2:	ff 75 0c             	push   0xc(%ebp)
  1024e5:	e8 72 ff ff ff       	call   10245c <is_year_leap>
  1024ea:	83 c4 04             	add    $0x4,%esp
  1024ed:	84 c0                	test   %al,%al
  1024ef:	74 07                	je     1024f8 <get_days_in_month+0x35>
  1024f1:	b8 1d 00 00 00       	mov    $0x1d,%eax
  1024f6:	eb 52                	jmp    10254a <get_days_in_month+0x87>
  1024f8:	b8 1c 00 00 00       	mov    $0x1c,%eax
  1024fd:	eb 4b                	jmp    10254a <get_days_in_month+0x87>
  1024ff:	b8 1f 00 00 00       	mov    $0x1f,%eax
  102504:	eb 44                	jmp    10254a <get_days_in_month+0x87>
  102506:	b8 1e 00 00 00       	mov    $0x1e,%eax
  10250b:	eb 3d                	jmp    10254a <get_days_in_month+0x87>
  10250d:	b8 1f 00 00 00       	mov    $0x1f,%eax
  102512:	eb 36                	jmp    10254a <get_days_in_month+0x87>
  102514:	b8 1e 00 00 00       	mov    $0x1e,%eax
  102519:	eb 2f                	jmp    10254a <get_days_in_month+0x87>
  10251b:	b8 1f 00 00 00       	mov    $0x1f,%eax
  102520:	eb 28                	jmp    10254a <get_days_in_month+0x87>
  102522:	b8 1f 00 00 00       	mov    $0x1f,%eax
  102527:	eb 21                	jmp    10254a <get_days_in_month+0x87>
  102529:	b8 1e 00 00 00       	mov    $0x1e,%eax
  10252e:	eb 1a                	jmp    10254a <get_days_in_month+0x87>
  102530:	b8 1f 00 00 00       	mov    $0x1f,%eax
  102535:	eb 13                	jmp    10254a <get_days_in_month+0x87>
  102537:	b8 1e 00 00 00       	mov    $0x1e,%eax
  10253c:	eb 0c                	jmp    10254a <get_days_in_month+0x87>
  10253e:	b8 1f 00 00 00       	mov    $0x1f,%eax
  102543:	eb 05                	jmp    10254a <get_days_in_month+0x87>
  102545:	b8 00 00 00 00       	mov    $0x0,%eax
  10254a:	c9                   	leave  
  10254b:	c3                   	ret    

0010254c <years_to_seconds>:
  10254c:	55                   	push   %ebp
  10254d:	89 e5                	mov    %esp,%ebp
  10254f:	83 ec 10             	sub    $0x10,%esp
  102552:	c7 45 f8 00 00 00 00 	movl   $0x0,-0x8(%ebp)
  102559:	c7 45 fc 00 00 00 00 	movl   $0x0,-0x4(%ebp)
  102560:	81 7d 08 cf 07 00 00 	cmpl   $0x7cf,0x8(%ebp)
  102567:	7f 2f                	jg     102598 <years_to_seconds+0x4c>
  102569:	81 45 08 d0 07 00 00 	addl   $0x7d0,0x8(%ebp)
  102570:	eb 26                	jmp    102598 <years_to_seconds+0x4c>
  102572:	81 45 f8 6d 01 00 00 	addl   $0x16d,-0x8(%ebp)
  102579:	83 55 fc 00          	adcl   $0x0,-0x4(%ebp)
  10257d:	ff 75 08             	push   0x8(%ebp)
  102580:	e8 d7 fe ff ff       	call   10245c <is_year_leap>
  102585:	83 c4 04             	add    $0x4,%esp
  102588:	84 c0                	test   %al,%al
  10258a:	74 08                	je     102594 <years_to_seconds+0x48>
  10258c:	83 45 f8 01          	addl   $0x1,-0x8(%ebp)
  102590:	83 55 fc 00          	adcl   $0x0,-0x4(%ebp)
  102594:	83 6d 08 01          	subl   $0x1,0x8(%ebp)
  102598:	81 7d 08 b1 07 00 00 	cmpl   $0x7b1,0x8(%ebp)
  10259f:	7f d1                	jg     102572 <years_to_seconds+0x26>
  1025a1:	8b 45 fc             	mov    -0x4(%ebp),%eax
  1025a4:	69 d0 80 51 01 00    	imul   $0x15180,%eax,%edx
  1025aa:	8b 45 f8             	mov    -0x8(%ebp),%eax
  1025ad:	6b c0 00             	imul   $0x0,%eax,%eax
  1025b0:	8d 0c 02             	lea    (%edx,%eax,1),%ecx
  1025b3:	8b 45 f8             	mov    -0x8(%ebp),%eax
  1025b6:	ba 80 51 01 00       	mov    $0x15180,%edx
  1025bb:	f7 e2                	mul    %edx
  1025bd:	01 d1                	add    %edx,%ecx
  1025bf:	89 ca                	mov    %ecx,%edx
  1025c1:	c9                   	leave  
  1025c2:	c3                   	ret    

001025c3 <months_to_seconds>:
  1025c3:	55                   	push   %ebp
  1025c4:	89 e5                	mov    %esp,%ebp
  1025c6:	83 ec 10             	sub    $0x10,%esp
  1025c9:	81 7d 0c cf 07 00 00 	cmpl   $0x7cf,0xc(%ebp)
  1025d0:	7f 07                	jg     1025d9 <months_to_seconds+0x16>
  1025d2:	81 45 0c d0 07 00 00 	addl   $0x7d0,0xc(%ebp)
  1025d9:	c7 45 fc 00 00 00 00 	movl   $0x0,-0x4(%ebp)
  1025e0:	c7 45 f8 01 00 00 00 	movl   $0x1,-0x8(%ebp)
  1025e7:	eb 15                	jmp    1025fe <months_to_seconds+0x3b>
  1025e9:	ff 75 0c             	push   0xc(%ebp)
  1025ec:	ff 75 f8             	push   -0x8(%ebp)
  1025ef:	e8 cf fe ff ff       	call   1024c3 <get_days_in_month>
  1025f4:	83 c4 08             	add    $0x8,%esp
  1025f7:	01 45 fc             	add    %eax,-0x4(%ebp)
  1025fa:	83 45 f8 01          	addl   $0x1,-0x8(%ebp)
  1025fe:	8b 45 f8             	mov    -0x8(%ebp),%eax
  102601:	3b 45 08             	cmp    0x8(%ebp),%eax
  102604:	7c e3                	jl     1025e9 <months_to_seconds+0x26>
  102606:	8b 45 fc             	mov    -0x4(%ebp),%eax
  102609:	69 c0 80 51 01 00    	imul   $0x15180,%eax,%eax
  10260f:	99                   	cltd   
  102610:	c9                   	leave  
  102611:	c3                   	ret    

00102612 <clock_isCMOSUpdateInProgress>:
  102612:	55                   	push   %ebp
  102613:	89 e5                	mov    %esp,%ebp
  102615:	83 ec 08             	sub    $0x8,%esp
  102618:	83 ec 08             	sub    $0x8,%esp
  10261b:	6a 0a                	push   $0xa
  10261d:	6a 70                	push   $0x70
  10261f:	e8 dc fa ff ff       	call   102100 <outportb>
  102624:	83 c4 10             	add    $0x10,%esp
  102627:	83 ec 0c             	sub    $0xc,%esp
  10262a:	6a 71                	push   $0x71
  10262c:	e8 27 fb ff ff       	call   102158 <inportb>
  102631:	83 c4 10             	add    $0x10,%esp
  102634:	0f b6 c0             	movzbl %al,%eax
  102637:	25 80 00 00 00       	and    $0x80,%eax
  10263c:	c9                   	leave  
  10263d:	c3                   	ret    

0010263e <clock_dumpCMOS>:
  10263e:	55                   	push   %ebp
  10263f:	89 e5                	mov    %esp,%ebp
  102641:	83 ec 18             	sub    $0x18,%esp
  102644:	66 c7 45 f6 00 00    	movw   $0x0,-0xa(%ebp)
  10264a:	eb 3f                	jmp    10268b <clock_dumpCMOS+0x4d>
  10264c:	0f b7 45 f6          	movzwl -0xa(%ebp),%eax
  102650:	0f b6 c0             	movzbl %al,%eax
  102653:	83 ec 08             	sub    $0x8,%esp
  102656:	50                   	push   %eax
  102657:	6a 70                	push   $0x70
  102659:	e8 a2 fa ff ff       	call   102100 <outportb>
  10265e:	83 c4 10             	add    $0x10,%esp
  102661:	83 ec 0c             	sub    $0xc,%esp
  102664:	6a 71                	push   $0x71
  102666:	e8 ed fa ff ff       	call   102158 <inportb>
  10266b:	83 c4 10             	add    $0x10,%esp
  10266e:	0f b7 55 f6          	movzwl -0xa(%ebp),%edx
  102672:	8d 0c 12             	lea    (%edx,%edx,1),%ecx
  102675:	8b 55 08             	mov    0x8(%ebp),%edx
  102678:	01 ca                	add    %ecx,%edx
  10267a:	0f b6 c0             	movzbl %al,%eax
  10267d:	66 89 02             	mov    %ax,(%edx)
  102680:	0f b7 45 f6          	movzwl -0xa(%ebp),%eax
  102684:	83 c0 01             	add    $0x1,%eax
  102687:	66 89 45 f6          	mov    %ax,-0xa(%ebp)
  10268b:	66 83 7d f6 7f       	cmpw   $0x7f,-0xa(%ebp)
  102690:	76 ba                	jbe    10264c <clock_dumpCMOS+0xe>
  102692:	90                   	nop
  102693:	90                   	nop
  102694:	c9                   	leave  
  102695:	c3                   	ret    

00102696 <clock_convertCMOSToUnix>:
  102696:	55                   	push   %ebp
  102697:	89 e5                	mov    %esp,%ebp
  102699:	57                   	push   %edi
  10269a:	56                   	push   %esi
  10269b:	53                   	push   %ebx
  10269c:	81 ec 1c 02 00 00    	sub    $0x21c,%esp
  1026a2:	90                   	nop
  1026a3:	e8 6a ff ff ff       	call   102612 <clock_isCMOSUpdateInProgress>
  1026a8:	85 c0                	test   %eax,%eax
  1026aa:	75 f7                	jne    1026a3 <clock_convertCMOSToUnix+0xd>
  1026ac:	83 ec 0c             	sub    $0xc,%esp
  1026af:	8d 85 e0 fe ff ff    	lea    -0x120(%ebp),%eax
  1026b5:	50                   	push   %eax
  1026b6:	e8 83 ff ff ff       	call   10263e <clock_dumpCMOS>
  1026bb:	83 c4 10             	add    $0x10,%esp
  1026be:	83 ec 04             	sub    $0x4,%esp
  1026c1:	68 80 00 00 00       	push   $0x80
  1026c6:	8d 85 e0 fe ff ff    	lea    -0x120(%ebp),%eax
  1026cc:	50                   	push   %eax
  1026cd:	8d 85 e0 fd ff ff    	lea    -0x220(%ebp),%eax
  1026d3:	50                   	push   %eax
  1026d4:	e8 bf 1f 00 00       	call   104698 <memcpy>
  1026d9:	83 c4 10             	add    $0x10,%esp
  1026dc:	90                   	nop
  1026dd:	e8 30 ff ff ff       	call   102612 <clock_isCMOSUpdateInProgress>
  1026e2:	85 c0                	test   %eax,%eax
  1026e4:	75 f7                	jne    1026dd <clock_convertCMOSToUnix+0x47>
  1026e6:	83 ec 0c             	sub    $0xc,%esp
  1026e9:	8d 85 e0 fe ff ff    	lea    -0x120(%ebp),%eax
  1026ef:	50                   	push   %eax
  1026f0:	e8 49 ff ff ff       	call   10263e <clock_dumpCMOS>
  1026f5:	83 c4 10             	add    $0x10,%esp
  1026f8:	0f b7 95 e0 fd ff ff 	movzwl -0x220(%ebp),%edx
  1026ff:	0f b7 85 e0 fe ff ff 	movzwl -0x120(%ebp),%eax
  102706:	66 39 c2             	cmp    %ax,%dx
  102709:	75 b3                	jne    1026be <clock_convertCMOSToUnix+0x28>
  10270b:	0f b7 95 e4 fd ff ff 	movzwl -0x21c(%ebp),%edx
  102712:	0f b7 85 e4 fe ff ff 	movzwl -0x11c(%ebp),%eax
  102719:	66 39 c2             	cmp    %ax,%dx
  10271c:	75 a0                	jne    1026be <clock_convertCMOSToUnix+0x28>
  10271e:	0f b7 95 e8 fd ff ff 	movzwl -0x218(%ebp),%edx
  102725:	0f b7 85 e8 fe ff ff 	movzwl -0x118(%ebp),%eax
  10272c:	66 39 c2             	cmp    %ax,%dx
  10272f:	75 8d                	jne    1026be <clock_convertCMOSToUnix+0x28>
  102731:	0f b7 95 ee fd ff ff 	movzwl -0x212(%ebp),%edx
  102738:	0f b7 85 ee fe ff ff 	movzwl -0x112(%ebp),%eax
  10273f:	66 39 c2             	cmp    %ax,%dx
  102742:	0f 85 76 ff ff ff    	jne    1026be <clock_convertCMOSToUnix+0x28>
  102748:	0f b7 95 f0 fd ff ff 	movzwl -0x210(%ebp),%edx
  10274f:	0f b7 85 f0 fe ff ff 	movzwl -0x110(%ebp),%eax
  102756:	66 39 c2             	cmp    %ax,%dx
  102759:	0f 85 5f ff ff ff    	jne    1026be <clock_convertCMOSToUnix+0x28>
  10275f:	0f b7 95 f2 fd ff ff 	movzwl -0x20e(%ebp),%edx
  102766:	0f b7 85 f2 fe ff ff 	movzwl -0x10e(%ebp),%eax
  10276d:	66 39 c2             	cmp    %ax,%dx
  102770:	0f 85 48 ff ff ff    	jne    1026be <clock_convertCMOSToUnix+0x28>
  102776:	0f b7 85 f2 fe ff ff 	movzwl -0x10e(%ebp),%eax
  10277d:	66 c1 e8 04          	shr    $0x4,%ax
  102781:	0f b7 d0             	movzwl %ax,%edx
  102784:	89 d0                	mov    %edx,%eax
  102786:	c1 e0 02             	shl    $0x2,%eax
  102789:	01 d0                	add    %edx,%eax
  10278b:	01 c0                	add    %eax,%eax
  10278d:	89 c2                	mov    %eax,%edx
  10278f:	0f b7 85 f2 fe ff ff 	movzwl -0x10e(%ebp),%eax
  102796:	0f b7 c0             	movzwl %ax,%eax
  102799:	83 e0 0f             	and    $0xf,%eax
  10279c:	01 d0                	add    %edx,%eax
  10279e:	83 e8 01             	sub    $0x1,%eax
  1027a1:	83 ec 0c             	sub    $0xc,%esp
  1027a4:	50                   	push   %eax
  1027a5:	e8 a2 fd ff ff       	call   10254c <years_to_seconds>
  1027aa:	83 c4 10             	add    $0x10,%esp
  1027ad:	89 c6                	mov    %eax,%esi
  1027af:	89 d7                	mov    %edx,%edi
  1027b1:	0f b7 85 f2 fe ff ff 	movzwl -0x10e(%ebp),%eax
  1027b8:	66 c1 e8 04          	shr    $0x4,%ax
  1027bc:	0f b7 d0             	movzwl %ax,%edx
  1027bf:	89 d0                	mov    %edx,%eax
  1027c1:	c1 e0 02             	shl    $0x2,%eax
  1027c4:	01 d0                	add    %edx,%eax
  1027c6:	01 c0                	add    %eax,%eax
  1027c8:	89 c2                	mov    %eax,%edx
  1027ca:	0f b7 85 f2 fe ff ff 	movzwl -0x10e(%ebp),%eax
  1027d1:	0f b7 c0             	movzwl %ax,%eax
  1027d4:	83 e0 0f             	and    $0xf,%eax
  1027d7:	8d 0c 02             	lea    (%edx,%eax,1),%ecx
  1027da:	0f b7 85 f0 fe ff ff 	movzwl -0x110(%ebp),%eax
  1027e1:	66 c1 e8 04          	shr    $0x4,%ax
  1027e5:	0f b7 d0             	movzwl %ax,%edx
  1027e8:	89 d0                	mov    %edx,%eax
  1027ea:	c1 e0 02             	shl    $0x2,%eax
  1027ed:	01 d0                	add    %edx,%eax
  1027ef:	01 c0                	add    %eax,%eax
  1027f1:	89 c2                	mov    %eax,%edx
  1027f3:	0f b7 85 f0 fe ff ff 	movzwl -0x110(%ebp),%eax
  1027fa:	0f b7 c0             	movzwl %ax,%eax
  1027fd:	83 e0 0f             	and    $0xf,%eax
  102800:	01 d0                	add    %edx,%eax
  102802:	83 ec 08             	sub    $0x8,%esp
  102805:	51                   	push   %ecx
  102806:	50                   	push   %eax
  102807:	e8 b7 fd ff ff       	call   1025c3 <months_to_seconds>
  10280c:	83 c4 10             	add    $0x10,%esp
  10280f:	01 c6                	add    %eax,%esi
  102811:	11 d7                	adc    %edx,%edi
  102813:	89 f1                	mov    %esi,%ecx
  102815:	89 fb                	mov    %edi,%ebx
  102817:	0f b7 85 ee fe ff ff 	movzwl -0x112(%ebp),%eax
  10281e:	66 c1 e8 04          	shr    $0x4,%ax
  102822:	0f b7 d0             	movzwl %ax,%edx
  102825:	89 d0                	mov    %edx,%eax
  102827:	c1 e0 02             	shl    $0x2,%eax
  10282a:	01 d0                	add    %edx,%eax
  10282c:	01 c0                	add    %eax,%eax
  10282e:	89 c2                	mov    %eax,%edx
  102830:	0f b7 85 ee fe ff ff 	movzwl -0x112(%ebp),%eax
  102837:	0f b7 c0             	movzwl %ax,%eax
  10283a:	83 e0 0f             	and    $0xf,%eax
  10283d:	01 d0                	add    %edx,%eax
  10283f:	83 e8 01             	sub    $0x1,%eax
  102842:	69 c0 80 51 01 00    	imul   $0x15180,%eax,%eax
  102848:	99                   	cltd   
  102849:	01 c1                	add    %eax,%ecx
  10284b:	11 d3                	adc    %edx,%ebx
  10284d:	0f b7 85 e8 fe ff ff 	movzwl -0x118(%ebp),%eax
  102854:	66 c1 e8 04          	shr    $0x4,%ax
  102858:	0f b7 d0             	movzwl %ax,%edx
  10285b:	89 d0                	mov    %edx,%eax
  10285d:	c1 e0 02             	shl    $0x2,%eax
  102860:	01 d0                	add    %edx,%eax
  102862:	01 c0                	add    %eax,%eax
  102864:	89 c2                	mov    %eax,%edx
  102866:	0f b7 85 e8 fe ff ff 	movzwl -0x118(%ebp),%eax
  10286d:	0f b7 c0             	movzwl %ax,%eax
  102870:	83 e0 0f             	and    $0xf,%eax
  102873:	01 d0                	add    %edx,%eax
  102875:	69 c0 10 0e 00 00    	imul   $0xe10,%eax,%eax
  10287b:	99                   	cltd   
  10287c:	01 c1                	add    %eax,%ecx
  10287e:	11 d3                	adc    %edx,%ebx
  102880:	0f b7 85 e4 fe ff ff 	movzwl -0x11c(%ebp),%eax
  102887:	66 c1 e8 04          	shr    $0x4,%ax
  10288b:	0f b7 d0             	movzwl %ax,%edx
  10288e:	89 d0                	mov    %edx,%eax
  102890:	c1 e0 02             	shl    $0x2,%eax
  102893:	01 d0                	add    %edx,%eax
  102895:	01 c0                	add    %eax,%eax
  102897:	89 c2                	mov    %eax,%edx
  102899:	0f b7 85 e4 fe ff ff 	movzwl -0x11c(%ebp),%eax
  1028a0:	0f b7 c0             	movzwl %ax,%eax
  1028a3:	83 e0 0f             	and    $0xf,%eax
  1028a6:	01 d0                	add    %edx,%eax
  1028a8:	6b c0 3c             	imul   $0x3c,%eax,%eax
  1028ab:	99                   	cltd   
  1028ac:	01 c1                	add    %eax,%ecx
  1028ae:	11 d3                	adc    %edx,%ebx
  1028b0:	0f b7 85 e0 fe ff ff 	movzwl -0x120(%ebp),%eax
  1028b7:	66 c1 e8 04          	shr    $0x4,%ax
  1028bb:	0f b7 d0             	movzwl %ax,%edx
  1028be:	89 d0                	mov    %edx,%eax
  1028c0:	c1 e0 02             	shl    $0x2,%eax
  1028c3:	01 d0                	add    %edx,%eax
  1028c5:	01 c0                	add    %eax,%eax
  1028c7:	89 c2                	mov    %eax,%edx
  1028c9:	0f b7 85 e0 fe ff ff 	movzwl -0x120(%ebp),%eax
  1028d0:	0f b7 c0             	movzwl %ax,%eax
  1028d3:	83 e0 0f             	and    $0xf,%eax
  1028d6:	01 d0                	add    %edx,%eax
  1028d8:	99                   	cltd   
  1028d9:	01 c8                	add    %ecx,%eax
  1028db:	11 da                	adc    %ebx,%edx
  1028dd:	89 45 e0             	mov    %eax,-0x20(%ebp)
  1028e0:	89 55 e4             	mov    %edx,-0x1c(%ebp)
  1028e3:	8b 45 e0             	mov    -0x20(%ebp),%eax
  1028e6:	8b 55 e4             	mov    -0x1c(%ebp),%edx
  1028e9:	8d 65 f4             	lea    -0xc(%ebp),%esp
  1028ec:	5b                   	pop    %ebx
  1028ed:	5e                   	pop    %esi
  1028ee:	5f                   	pop    %edi
  1028ef:	5d                   	pop    %ebp
  1028f0:	c3                   	ret    

001028f1 <clock_readTSC>:
  1028f1:	55                   	push   %ebp
  1028f2:	89 e5                	mov    %esp,%ebp
  1028f4:	53                   	push   %ebx
  1028f5:	83 ec 14             	sub    $0x14,%esp
  1028f8:	0f 31                	rdtsc  
  1028fa:	89 45 f4             	mov    %eax,-0xc(%ebp)
  1028fd:	89 55 f0             	mov    %edx,-0x10(%ebp)
  102900:	8b 45 f0             	mov    -0x10(%ebp),%eax
  102903:	ba 00 00 00 00       	mov    $0x0,%edx
  102908:	89 c2                	mov    %eax,%edx
  10290a:	31 c0                	xor    %eax,%eax
  10290c:	8b 4d f4             	mov    -0xc(%ebp),%ecx
  10290f:	bb 00 00 00 00       	mov    $0x0,%ebx
  102914:	09 c8                	or     %ecx,%eax
  102916:	09 da                	or     %ebx,%edx
  102918:	8b 5d fc             	mov    -0x4(%ebp),%ebx
  10291b:	c9                   	leave  
  10291c:	c3                   	ret    

0010291d <clock_getTSCSpeed>:
  10291d:	55                   	push   %ebp
  10291e:	89 e5                	mov    %esp,%ebp
  102920:	a1 78 9e 10 00       	mov    0x109e78,%eax
  102925:	8b 15 7c 9e 10 00    	mov    0x109e7c,%edx
  10292b:	5d                   	pop    %ebp
  10292c:	c3                   	ret    

0010292d <clock_readTicks>:
  10292d:	55                   	push   %ebp
  10292e:	89 e5                	mov    %esp,%ebp
  102930:	57                   	push   %edi
  102931:	56                   	push   %esi
  102932:	e8 ba ff ff ff       	call   1028f1 <clock_readTSC>
  102937:	89 c6                	mov    %eax,%esi
  102939:	89 d7                	mov    %edx,%edi
  10293b:	e8 dd ff ff ff       	call   10291d <clock_getTSCSpeed>
  102940:	ba 00 00 00 00       	mov    $0x0,%edx
  102945:	52                   	push   %edx
  102946:	50                   	push   %eax
  102947:	57                   	push   %edi
  102948:	56                   	push   %esi
  102949:	e8 c2 2c 00 00       	call   105610 <__udivdi3>
  10294e:	83 c4 10             	add    $0x10,%esp
  102951:	8d 65 f8             	lea    -0x8(%ebp),%esp
  102954:	5e                   	pop    %esi
  102955:	5f                   	pop    %edi
  102956:	5d                   	pop    %ebp
  102957:	c3                   	ret    

00102958 <clock_getTickCounts>:
  102958:	55                   	push   %ebp
  102959:	89 e5                	mov    %esp,%ebp
  10295b:	53                   	push   %ebx
  10295c:	83 ec 14             	sub    $0x14,%esp
  10295f:	8b 45 08             	mov    0x8(%ebp),%eax
  102962:	89 45 f0             	mov    %eax,-0x10(%ebp)
  102965:	8b 45 0c             	mov    0xc(%ebp),%eax
  102968:	89 45 f4             	mov    %eax,-0xc(%ebp)
  10296b:	8b 0d 70 9e 10 00    	mov    0x109e70,%ecx
  102971:	8b 1d 74 9e 10 00    	mov    0x109e74,%ebx
  102977:	8b 45 f0             	mov    -0x10(%ebp),%eax
  10297a:	8b 55 f4             	mov    -0xc(%ebp),%edx
  10297d:	29 c8                	sub    %ecx,%eax
  10297f:	19 da                	sbb    %ebx,%edx
  102981:	8b 4d 14             	mov    0x14(%ebp),%ecx
  102984:	89 01                	mov    %eax,(%ecx)
  102986:	89 51 04             	mov    %edx,0x4(%ecx)
  102989:	8b 45 14             	mov    0x14(%ebp),%eax
  10298c:	8b 50 04             	mov    0x4(%eax),%edx
  10298f:	8b 00                	mov    (%eax),%eax
  102991:	6a 00                	push   $0x0
  102993:	68 40 42 0f 00       	push   $0xf4240
  102998:	52                   	push   %edx
  102999:	50                   	push   %eax
  10299a:	e8 71 2c 00 00       	call   105610 <__udivdi3>
  10299f:	83 c4 10             	add    $0x10,%esp
  1029a2:	8b 4d 10             	mov    0x10(%ebp),%ecx
  1029a5:	89 01                	mov    %eax,(%ecx)
  1029a7:	89 51 04             	mov    %edx,0x4(%ecx)
  1029aa:	8b 45 14             	mov    0x14(%ebp),%eax
  1029ad:	8b 50 04             	mov    0x4(%eax),%edx
  1029b0:	8b 00                	mov    (%eax),%eax
  1029b2:	6a 00                	push   $0x0
  1029b4:	68 40 42 0f 00       	push   $0xf4240
  1029b9:	52                   	push   %edx
  1029ba:	50                   	push   %eax
  1029bb:	e8 70 2d 00 00       	call   105730 <__umoddi3>
  1029c0:	83 c4 10             	add    $0x10,%esp
  1029c3:	8b 4d 14             	mov    0x14(%ebp),%ecx
  1029c6:	89 01                	mov    %eax,(%ecx)
  1029c8:	89 51 04             	mov    %edx,0x4(%ecx)
  1029cb:	90                   	nop
  1029cc:	8b 5d fc             	mov    -0x4(%ebp),%ebx
  1029cf:	c9                   	leave  
  1029d0:	c3                   	ret    

001029d1 <clock_setBoottime>:
  1029d1:	55                   	push   %ebp
  1029d2:	89 e5                	mov    %esp,%ebp
  1029d4:	83 ec 08             	sub    $0x8,%esp
  1029d7:	8b 45 08             	mov    0x8(%ebp),%eax
  1029da:	89 45 f8             	mov    %eax,-0x8(%ebp)
  1029dd:	8b 45 0c             	mov    0xc(%ebp),%eax
  1029e0:	89 45 fc             	mov    %eax,-0x4(%ebp)
  1029e3:	8b 45 f8             	mov    -0x8(%ebp),%eax
  1029e6:	8b 55 fc             	mov    -0x4(%ebp),%edx
  1029e9:	a3 68 9e 10 00       	mov    %eax,0x109e68
  1029ee:	89 15 6c 9e 10 00    	mov    %edx,0x109e6c
  1029f4:	90                   	nop
  1029f5:	c9                   	leave  
  1029f6:	c3                   	ret    

001029f7 <clock_initialize>:
  1029f7:	55                   	push   %ebp
  1029f8:	89 e5                	mov    %esp,%ebp
  1029fa:	53                   	push   %ebx
  1029fb:	83 ec 44             	sub    $0x44,%esp
  1029fe:	e8 93 fc ff ff       	call   102696 <clock_convertCMOSToUnix>
  102a03:	a3 68 9e 10 00       	mov    %eax,0x109e68
  102a08:	89 15 6c 9e 10 00    	mov    %edx,0x109e6c
  102a0e:	e4 61                	in     $0x61,%al
  102a10:	24 dd                	and    $0xdd,%al
  102a12:	0c 01                	or     $0x1,%al
  102a14:	e6 61                	out    %al,$0x61
  102a16:	b0 b2                	mov    $0xb2,%al
  102a18:	e6 43                	out    %al,$0x43
  102a1a:	b0 9b                	mov    $0x9b,%al
  102a1c:	e6 42                	out    %al,$0x42
  102a1e:	e4 60                	in     $0x60,%al
  102a20:	b0 2e                	mov    $0x2e,%al
  102a22:	e6 42                	out    %al,$0x42
  102a24:	e4 61                	in     $0x61,%al
  102a26:	24 de                	and    $0xde,%al
  102a28:	e6 61                	out    %al,$0x61
  102a2a:	0c 01                	or     $0x1,%al
  102a2c:	e6 61                	out    %al,$0x61
  102a2e:	0f 31                	rdtsc  
  102a30:	89 c3                	mov    %eax,%ebx
  102a32:	89 d1                	mov    %edx,%ecx
  102a34:	e4 61                	in     $0x61,%al
  102a36:	24 20                	and    $0x20,%al
  102a38:	74 0a                	je     102a44 <clock_initialize+0x4d>
  102a3a:	e4 61                	in     $0x61,%al
  102a3c:	24 20                	and    $0x20,%al
  102a3e:	75 fa                	jne    102a3a <clock_initialize+0x43>
  102a40:	0f 31                	rdtsc  
  102a42:	eb 08                	jmp    102a4c <clock_initialize+0x55>
  102a44:	e4 61                	in     $0x61,%al
  102a46:	24 20                	and    $0x20,%al
  102a48:	74 fa                	je     102a44 <clock_initialize+0x4d>
  102a4a:	0f 31                	rdtsc  
  102a4c:	89 45 f4             	mov    %eax,-0xc(%ebp)
  102a4f:	89 55 f0             	mov    %edx,-0x10(%ebp)
  102a52:	89 5d ec             	mov    %ebx,-0x14(%ebp)
  102a55:	89 4d e8             	mov    %ecx,-0x18(%ebp)
  102a58:	8b 45 f0             	mov    -0x10(%ebp),%eax
  102a5b:	ba 00 00 00 00       	mov    $0x0,%edx
  102a60:	89 c2                	mov    %eax,%edx
  102a62:	31 c0                	xor    %eax,%eax
  102a64:	8b 4d f4             	mov    -0xc(%ebp),%ecx
  102a67:	bb 00 00 00 00       	mov    $0x0,%ebx
  102a6c:	09 c8                	or     %ecx,%eax
  102a6e:	09 da                	or     %ebx,%edx
  102a70:	89 45 e0             	mov    %eax,-0x20(%ebp)
  102a73:	89 55 e4             	mov    %edx,-0x1c(%ebp)
  102a76:	8b 45 e8             	mov    -0x18(%ebp),%eax
  102a79:	ba 00 00 00 00       	mov    $0x0,%edx
  102a7e:	89 c2                	mov    %eax,%edx
  102a80:	31 c0                	xor    %eax,%eax
  102a82:	8b 4d ec             	mov    -0x14(%ebp),%ecx
  102a85:	bb 00 00 00 00       	mov    $0x0,%ebx
  102a8a:	09 c8                	or     %ecx,%eax
  102a8c:	09 da                	or     %ebx,%edx
  102a8e:	89 45 d8             	mov    %eax,-0x28(%ebp)
  102a91:	89 55 dc             	mov    %edx,-0x24(%ebp)
  102a94:	8b 45 e0             	mov    -0x20(%ebp),%eax
  102a97:	8b 55 e4             	mov    -0x1c(%ebp),%edx
  102a9a:	2b 45 d8             	sub    -0x28(%ebp),%eax
  102a9d:	1b 55 dc             	sbb    -0x24(%ebp),%edx
  102aa0:	6a 00                	push   $0x0
  102aa2:	68 10 27 00 00       	push   $0x2710
  102aa7:	52                   	push   %edx
  102aa8:	50                   	push   %eax
  102aa9:	e8 62 2b 00 00       	call   105610 <__udivdi3>
  102aae:	83 c4 10             	add    $0x10,%esp
  102ab1:	a3 78 9e 10 00       	mov    %eax,0x109e78
  102ab6:	89 15 7c 9e 10 00    	mov    %edx,0x109e7c
  102abc:	a1 78 9e 10 00       	mov    0x109e78,%eax
  102ac1:	8b 15 7c 9e 10 00    	mov    0x109e7c,%edx
  102ac7:	89 c1                	mov    %eax,%ecx
  102ac9:	09 d1                	or     %edx,%ecx
  102acb:	75 2d                	jne    102afa <clock_initialize+0x103>
  102acd:	68 ac 6a 10 00       	push   $0x106aac
  102ad2:	6a 02                	push   $0x2
  102ad4:	68 09 01 00 00       	push   $0x109
  102ad9:	68 e9 6a 10 00       	push   $0x106ae9
  102ade:	e8 bf d9 ff ff       	call   1004a2 <dprintf_internal>
  102ae3:	83 c4 10             	add    $0x10,%esp
  102ae6:	c7 05 78 9e 10 00 d0 	movl   $0x7d0,0x109e78
  102aed:	07 00 00 
  102af0:	c7 05 7c 9e 10 00 00 	movl   $0x0,0x109e7c
  102af7:	00 00 00 
  102afa:	a1 78 9e 10 00       	mov    0x109e78,%eax
  102aff:	8b 15 7c 9e 10 00    	mov    0x109e7c,%edx
  102b05:	52                   	push   %edx
  102b06:	50                   	push   %eax
  102b07:	ff 75 dc             	push   -0x24(%ebp)
  102b0a:	ff 75 d8             	push   -0x28(%ebp)
  102b0d:	e8 fe 2a 00 00       	call   105610 <__udivdi3>
  102b12:	83 c4 10             	add    $0x10,%esp
  102b15:	a3 70 9e 10 00       	mov    %eax,0x109e70
  102b1a:	89 15 74 9e 10 00    	mov    %edx,0x109e74
  102b20:	a1 78 9e 10 00       	mov    0x109e78,%eax
  102b25:	8b 15 7c 9e 10 00    	mov    0x109e7c,%edx
  102b2b:	83 ec 08             	sub    $0x8,%esp
  102b2e:	52                   	push   %edx
  102b2f:	50                   	push   %eax
  102b30:	68 00 6b 10 00       	push   $0x106b00
  102b35:	6a 01                	push   $0x1
  102b37:	68 0f 01 00 00       	push   $0x10f
  102b3c:	68 e9 6a 10 00       	push   $0x106ae9
  102b41:	e8 5c d9 ff ff       	call   1004a2 <dprintf_internal>
  102b46:	83 c4 20             	add    $0x20,%esp
  102b49:	a1 68 9e 10 00       	mov    0x109e68,%eax
  102b4e:	8b 15 6c 9e 10 00    	mov    0x109e6c,%edx
  102b54:	83 ec 08             	sub    $0x8,%esp
  102b57:	52                   	push   %edx
  102b58:	50                   	push   %eax
  102b59:	68 28 6b 10 00       	push   $0x106b28
  102b5e:	6a 01                	push   $0x1
  102b60:	68 10 01 00 00       	push   $0x110
  102b65:	68 e9 6a 10 00       	push   $0x106ae9
  102b6a:	e8 33 d9 ff ff       	call   1004a2 <dprintf_internal>
  102b6f:	83 c4 20             	add    $0x20,%esp
  102b72:	a1 70 9e 10 00       	mov    0x109e70,%eax
  102b77:	8b 15 74 9e 10 00    	mov    0x109e74,%edx
  102b7d:	83 ec 08             	sub    $0x8,%esp
  102b80:	52                   	push   %edx
  102b81:	50                   	push   %eax
  102b82:	68 5a 6b 10 00       	push   $0x106b5a
  102b87:	6a 01                	push   $0x1
  102b89:	68 11 01 00 00       	push   $0x111
  102b8e:	68 e9 6a 10 00       	push   $0x106ae9
  102b93:	e8 0a d9 ff ff       	call   1004a2 <dprintf_internal>
  102b98:	83 c4 20             	add    $0x20,%esp
  102b9b:	a1 68 9e 10 00       	mov    0x109e68,%eax
  102ba0:	8b 15 6c 9e 10 00    	mov    0x109e6c,%edx
  102ba6:	89 45 d0             	mov    %eax,-0x30(%ebp)
  102ba9:	89 55 d4             	mov    %edx,-0x2c(%ebp)
  102bac:	c7 45 c0 2d 29 10 00 	movl   $0x10292d,-0x40(%ebp)
  102bb3:	c7 45 c4 f1 28 10 00 	movl   $0x1028f1,-0x3c(%ebp)
  102bba:	c7 45 c8 58 29 10 00 	movl   $0x102958,-0x38(%ebp)
  102bc1:	c7 45 cc d1 29 10 00 	movl   $0x1029d1,-0x34(%ebp)
  102bc8:	83 ec 08             	sub    $0x8,%esp
  102bcb:	ff 75 d4             	push   -0x2c(%ebp)
  102bce:	ff 75 d0             	push   -0x30(%ebp)
  102bd1:	ff 75 cc             	push   -0x34(%ebp)
  102bd4:	ff 75 c8             	push   -0x38(%ebp)
  102bd7:	ff 75 c4             	push   -0x3c(%ebp)
  102bda:	ff 75 c0             	push   -0x40(%ebp)
  102bdd:	e8 70 d7 ff ff       	call   100352 <clock_setDevice>
  102be2:	83 c4 20             	add    $0x20,%esp
  102be5:	90                   	nop
  102be6:	8b 5d fc             	mov    -0x4(%ebp),%ebx
  102be9:	c9                   	leave  
  102bea:	c3                   	ret    

00102beb <serial_getDefaultCOMPort>:
  102beb:	55                   	push   %ebp
  102bec:	89 e5                	mov    %esp,%ebp
  102bee:	a1 d0 60 10 00       	mov    0x1060d0,%eax
  102bf3:	83 f8 04             	cmp    $0x4,%eax
  102bf6:	74 30                	je     102c28 <serial_getDefaultCOMPort+0x3d>
  102bf8:	83 f8 04             	cmp    $0x4,%eax
  102bfb:	7f 32                	jg     102c2f <serial_getDefaultCOMPort+0x44>
  102bfd:	83 f8 03             	cmp    $0x3,%eax
  102c00:	74 1f                	je     102c21 <serial_getDefaultCOMPort+0x36>
  102c02:	83 f8 03             	cmp    $0x3,%eax
  102c05:	7f 28                	jg     102c2f <serial_getDefaultCOMPort+0x44>
  102c07:	83 f8 01             	cmp    $0x1,%eax
  102c0a:	74 07                	je     102c13 <serial_getDefaultCOMPort+0x28>
  102c0c:	83 f8 02             	cmp    $0x2,%eax
  102c0f:	74 09                	je     102c1a <serial_getDefaultCOMPort+0x2f>
  102c11:	eb 1c                	jmp    102c2f <serial_getDefaultCOMPort+0x44>
  102c13:	b8 f8 03 00 00       	mov    $0x3f8,%eax
  102c18:	eb 1a                	jmp    102c34 <serial_getDefaultCOMPort+0x49>
  102c1a:	b8 f8 02 00 00       	mov    $0x2f8,%eax
  102c1f:	eb 13                	jmp    102c34 <serial_getDefaultCOMPort+0x49>
  102c21:	b8 e8 03 00 00       	mov    $0x3e8,%eax
  102c26:	eb 0c                	jmp    102c34 <serial_getDefaultCOMPort+0x49>
  102c28:	b8 e8 02 00 00       	mov    $0x2e8,%eax
  102c2d:	eb 05                	jmp    102c34 <serial_getDefaultCOMPort+0x49>
  102c2f:	b8 f8 03 00 00       	mov    $0x3f8,%eax
  102c34:	5d                   	pop    %ebp
  102c35:	c3                   	ret    

00102c36 <serial_setBaudRate>:
  102c36:	55                   	push   %ebp
  102c37:	89 e5                	mov    %esp,%ebp
  102c39:	83 ec 28             	sub    $0x28,%esp
  102c3c:	8b 45 08             	mov    0x8(%ebp),%eax
  102c3f:	66 89 45 e4          	mov    %ax,-0x1c(%ebp)
  102c43:	0f b7 4d e4          	movzwl -0x1c(%ebp),%ecx
  102c47:	b8 00 c2 01 00       	mov    $0x1c200,%eax
  102c4c:	99                   	cltd   
  102c4d:	f7 f9                	idiv   %ecx
  102c4f:	89 d0                	mov    %edx,%eax
  102c51:	85 c0                	test   %eax,%eax
  102c53:	74 0a                	je     102c5f <serial_setBaudRate+0x29>
  102c55:	b8 ea ff ff ff       	mov    $0xffffffea,%eax
  102c5a:	e9 bc 00 00 00       	jmp    102d1b <serial_setBaudRate+0xe5>
  102c5f:	0f b7 05 48 80 10 00 	movzwl 0x108048,%eax
  102c66:	83 c0 04             	add    $0x4,%eax
  102c69:	0f b7 c0             	movzwl %ax,%eax
  102c6c:	83 ec 0c             	sub    $0xc,%esp
  102c6f:	50                   	push   %eax
  102c70:	e8 e3 f4 ff ff       	call   102158 <inportb>
  102c75:	83 c4 10             	add    $0x10,%esp
  102c78:	88 45 f7             	mov    %al,-0x9(%ebp)
  102c7b:	0f b6 45 f7          	movzbl -0x9(%ebp),%eax
  102c7f:	83 c8 80             	or     $0xffffff80,%eax
  102c82:	0f b6 d0             	movzbl %al,%edx
  102c85:	0f b7 05 48 80 10 00 	movzwl 0x108048,%eax
  102c8c:	83 c0 04             	add    $0x4,%eax
  102c8f:	0f b7 c0             	movzwl %ax,%eax
  102c92:	83 ec 08             	sub    $0x8,%esp
  102c95:	52                   	push   %edx
  102c96:	50                   	push   %eax
  102c97:	e8 64 f4 ff ff       	call   102100 <outportb>
  102c9c:	83 c4 10             	add    $0x10,%esp
  102c9f:	0f b7 4d e4          	movzwl -0x1c(%ebp),%ecx
  102ca3:	b8 00 c2 01 00       	mov    $0x1c200,%eax
  102ca8:	99                   	cltd   
  102ca9:	f7 f9                	idiv   %ecx
  102cab:	89 45 f0             	mov    %eax,-0x10(%ebp)
  102cae:	8b 45 f0             	mov    -0x10(%ebp),%eax
  102cb1:	0f b6 d0             	movzbl %al,%edx
  102cb4:	0f b7 05 48 80 10 00 	movzwl 0x108048,%eax
  102cbb:	0f b7 c0             	movzwl %ax,%eax
  102cbe:	83 ec 08             	sub    $0x8,%esp
  102cc1:	52                   	push   %edx
  102cc2:	50                   	push   %eax
  102cc3:	e8 38 f4 ff ff       	call   102100 <outportb>
  102cc8:	83 c4 10             	add    $0x10,%esp
  102ccb:	8b 45 f0             	mov    -0x10(%ebp),%eax
  102cce:	c1 e8 08             	shr    $0x8,%eax
  102cd1:	0f b6 d0             	movzbl %al,%edx
  102cd4:	0f b7 05 48 80 10 00 	movzwl 0x108048,%eax
  102cdb:	83 c0 01             	add    $0x1,%eax
  102cde:	0f b7 c0             	movzwl %ax,%eax
  102ce1:	83 ec 08             	sub    $0x8,%esp
  102ce4:	52                   	push   %edx
  102ce5:	50                   	push   %eax
  102ce6:	e8 15 f4 ff ff       	call   102100 <outportb>
  102ceb:	83 c4 10             	add    $0x10,%esp
  102cee:	0f b6 55 f7          	movzbl -0x9(%ebp),%edx
  102cf2:	0f b7 05 48 80 10 00 	movzwl 0x108048,%eax
  102cf9:	83 c0 04             	add    $0x4,%eax
  102cfc:	0f b7 c0             	movzwl %ax,%eax
  102cff:	83 ec 08             	sub    $0x8,%esp
  102d02:	52                   	push   %edx
  102d03:	50                   	push   %eax
  102d04:	e8 f7 f3 ff ff       	call   102100 <outportb>
  102d09:	83 c4 10             	add    $0x10,%esp
  102d0c:	0f b7 45 e4          	movzwl -0x1c(%ebp),%eax
  102d10:	66 a3 4a 80 10 00    	mov    %ax,0x10804a
  102d16:	b8 00 00 00 00       	mov    $0x0,%eax
  102d1b:	c9                   	leave  
  102d1c:	c3                   	ret    

00102d1d <serial_initialize>:
  102d1d:	55                   	push   %ebp
  102d1e:	89 e5                	mov    %esp,%ebp
  102d20:	83 ec 08             	sub    $0x8,%esp
  102d23:	e8 c3 fe ff ff       	call   102beb <serial_getDefaultCOMPort>
  102d28:	66 a3 48 80 10 00    	mov    %ax,0x108048
  102d2e:	0f b7 05 48 80 10 00 	movzwl 0x108048,%eax
  102d35:	83 c0 04             	add    $0x4,%eax
  102d38:	0f b7 c0             	movzwl %ax,%eax
  102d3b:	83 ec 08             	sub    $0x8,%esp
  102d3e:	6a 00                	push   $0x0
  102d40:	50                   	push   %eax
  102d41:	e8 ba f3 ff ff       	call   102100 <outportb>
  102d46:	83 c4 10             	add    $0x10,%esp
  102d49:	0f b7 05 48 80 10 00 	movzwl 0x108048,%eax
  102d50:	83 c0 01             	add    $0x1,%eax
  102d53:	0f b7 c0             	movzwl %ax,%eax
  102d56:	83 ec 08             	sub    $0x8,%esp
  102d59:	6a 00                	push   $0x0
  102d5b:	50                   	push   %eax
  102d5c:	e8 9f f3 ff ff       	call   102100 <outportb>
  102d61:	83 c4 10             	add    $0x10,%esp
  102d64:	0f b7 05 48 80 10 00 	movzwl 0x108048,%eax
  102d6b:	83 c0 05             	add    $0x5,%eax
  102d6e:	0f b7 c0             	movzwl %ax,%eax
  102d71:	83 ec 08             	sub    $0x8,%esp
  102d74:	6a 0b                	push   $0xb
  102d76:	50                   	push   %eax
  102d77:	e8 84 f3 ff ff       	call   102100 <outportb>
  102d7c:	83 c4 10             	add    $0x10,%esp
  102d7f:	a1 d4 60 10 00       	mov    0x1060d4,%eax
  102d84:	0f b7 c0             	movzwl %ax,%eax
  102d87:	83 ec 0c             	sub    $0xc,%esp
  102d8a:	50                   	push   %eax
  102d8b:	e8 a6 fe ff ff       	call   102c36 <serial_setBaudRate>
  102d90:	83 c4 10             	add    $0x10,%esp
  102d93:	0f b7 05 48 80 10 00 	movzwl 0x108048,%eax
  102d9a:	83 c0 04             	add    $0x4,%eax
  102d9d:	0f b7 c0             	movzwl %ax,%eax
  102da0:	83 ec 08             	sub    $0x8,%esp
  102da3:	6a 03                	push   $0x3
  102da5:	50                   	push   %eax
  102da6:	e8 55 f3 ff ff       	call   102100 <outportb>
  102dab:	83 c4 10             	add    $0x10,%esp
  102dae:	0f b7 05 48 80 10 00 	movzwl 0x108048,%eax
  102db5:	83 c0 03             	add    $0x3,%eax
  102db8:	0f b7 c0             	movzwl %ax,%eax
  102dbb:	83 ec 08             	sub    $0x8,%esp
  102dbe:	6a 07                	push   $0x7
  102dc0:	50                   	push   %eax
  102dc1:	e8 3a f3 ff ff       	call   102100 <outportb>
  102dc6:	83 c4 10             	add    $0x10,%esp
  102dc9:	0f b7 05 48 80 10 00 	movzwl 0x108048,%eax
  102dd0:	0f b7 c0             	movzwl %ax,%eax
  102dd3:	83 ec 0c             	sub    $0xc,%esp
  102dd6:	50                   	push   %eax
  102dd7:	e8 7c f3 ff ff       	call   102158 <inportb>
  102ddc:	83 c4 10             	add    $0x10,%esp
  102ddf:	83 ec 0c             	sub    $0xc,%esp
  102de2:	68 f6 2d 10 00       	push   $0x102df6
  102de7:	e8 f5 d5 ff ff       	call   1003e1 <serial_setWriteMethod>
  102dec:	83 c4 10             	add    $0x10,%esp
  102def:	b8 00 00 00 00       	mov    $0x0,%eax
  102df4:	c9                   	leave  
  102df5:	c3                   	ret    

00102df6 <serial_writeCharacter>:
  102df6:	55                   	push   %ebp
  102df7:	89 e5                	mov    %esp,%ebp
  102df9:	83 ec 18             	sub    $0x18,%esp
  102dfc:	8b 45 08             	mov    0x8(%ebp),%eax
  102dff:	88 45 f4             	mov    %al,-0xc(%ebp)
  102e02:	90                   	nop
  102e03:	0f b7 05 48 80 10 00 	movzwl 0x108048,%eax
  102e0a:	83 c0 06             	add    $0x6,%eax
  102e0d:	0f b7 c0             	movzwl %ax,%eax
  102e10:	83 ec 0c             	sub    $0xc,%esp
  102e13:	50                   	push   %eax
  102e14:	e8 3f f3 ff ff       	call   102158 <inportb>
  102e19:	83 c4 10             	add    $0x10,%esp
  102e1c:	0f b6 c0             	movzbl %al,%eax
  102e1f:	83 e0 20             	and    $0x20,%eax
  102e22:	85 c0                	test   %eax,%eax
  102e24:	74 dd                	je     102e03 <serial_writeCharacter+0xd>
  102e26:	0f b6 45 f4          	movzbl -0xc(%ebp),%eax
  102e2a:	0f b6 d0             	movzbl %al,%edx
  102e2d:	0f b7 05 48 80 10 00 	movzwl 0x108048,%eax
  102e34:	0f b7 c0             	movzwl %ax,%eax
  102e37:	83 ec 08             	sub    $0x8,%esp
  102e3a:	52                   	push   %edx
  102e3b:	50                   	push   %eax
  102e3c:	e8 bf f2 ff ff       	call   102100 <outportb>
  102e41:	83 c4 10             	add    $0x10,%esp
  102e44:	b8 00 00 00 00       	mov    $0x0,%eax
  102e49:	c9                   	leave  
  102e4a:	c3                   	ret    

00102e4b <serial_receiveCharacter>:
  102e4b:	55                   	push   %ebp
  102e4c:	89 e5                	mov    %esp,%ebp
  102e4e:	83 ec 08             	sub    $0x8,%esp
  102e51:	90                   	nop
  102e52:	0f b7 05 48 80 10 00 	movzwl 0x108048,%eax
  102e59:	83 c0 06             	add    $0x6,%eax
  102e5c:	0f b7 c0             	movzwl %ax,%eax
  102e5f:	83 ec 0c             	sub    $0xc,%esp
  102e62:	50                   	push   %eax
  102e63:	e8 f0 f2 ff ff       	call   102158 <inportb>
  102e68:	83 c4 10             	add    $0x10,%esp
  102e6b:	0f b6 c0             	movzbl %al,%eax
  102e6e:	83 e0 01             	and    $0x1,%eax
  102e71:	85 c0                	test   %eax,%eax
  102e73:	74 dd                	je     102e52 <serial_receiveCharacter+0x7>
  102e75:	0f b7 05 48 80 10 00 	movzwl 0x108048,%eax
  102e7c:	0f b7 c0             	movzwl %ax,%eax
  102e7f:	83 ec 0c             	sub    $0xc,%esp
  102e82:	50                   	push   %eax
  102e83:	e8 d0 f2 ff ff       	call   102158 <inportb>
  102e88:	83 c4 10             	add    $0x10,%esp
  102e8b:	c9                   	leave  
  102e8c:	c3                   	ret    

00102e8d <pit_setTimerPhase>:
  102e8d:	55                   	push   %ebp
  102e8e:	89 e5                	mov    %esp,%ebp
  102e90:	83 ec 18             	sub    $0x18,%esp
  102e93:	b8 dc 34 12 00       	mov    $0x1234dc,%eax
  102e98:	99                   	cltd   
  102e99:	f7 7d 08             	idivl  0x8(%ebp)
  102e9c:	89 45 f4             	mov    %eax,-0xc(%ebp)
  102e9f:	83 ec 08             	sub    $0x8,%esp
  102ea2:	6a 34                	push   $0x34
  102ea4:	6a 43                	push   $0x43
  102ea6:	e8 55 f2 ff ff       	call   102100 <outportb>
  102eab:	83 c4 10             	add    $0x10,%esp
  102eae:	8b 45 f4             	mov    -0xc(%ebp),%eax
  102eb1:	0f b6 c0             	movzbl %al,%eax
  102eb4:	83 ec 08             	sub    $0x8,%esp
  102eb7:	50                   	push   %eax
  102eb8:	6a 40                	push   $0x40
  102eba:	e8 41 f2 ff ff       	call   102100 <outportb>
  102ebf:	83 c4 10             	add    $0x10,%esp
  102ec2:	8b 45 f4             	mov    -0xc(%ebp),%eax
  102ec5:	c1 f8 08             	sar    $0x8,%eax
  102ec8:	0f b6 c0             	movzbl %al,%eax
  102ecb:	83 ec 08             	sub    $0x8,%esp
  102ece:	50                   	push   %eax
  102ecf:	6a 40                	push   $0x40
  102ed1:	e8 2a f2 ff ff       	call   102100 <outportb>
  102ed6:	83 c4 10             	add    $0x10,%esp
  102ed9:	90                   	nop
  102eda:	c9                   	leave  
  102edb:	c3                   	ret    

00102edc <pit_irqHandler>:
  102edc:	55                   	push   %ebp
  102edd:	89 e5                	mov    %esp,%ebp
  102edf:	83 ec 08             	sub    $0x8,%esp
  102ee2:	a1 80 9e 10 00       	mov    0x109e80,%eax
  102ee7:	8b 15 84 9e 10 00    	mov    0x109e84,%edx
  102eed:	83 c0 01             	add    $0x1,%eax
  102ef0:	83 d2 00             	adc    $0x0,%edx
  102ef3:	a3 80 9e 10 00       	mov    %eax,0x109e80
  102ef8:	89 15 84 9e 10 00    	mov    %edx,0x109e84
  102efe:	a1 80 9e 10 00       	mov    0x109e80,%eax
  102f03:	8b 15 84 9e 10 00    	mov    0x109e84,%edx
  102f09:	83 ec 08             	sub    $0x8,%esp
  102f0c:	52                   	push   %edx
  102f0d:	50                   	push   %eax
  102f0e:	e8 9d d1 ff ff       	call   1000b0 <clock_update>
  102f13:	83 c4 10             	add    $0x10,%esp
  102f16:	b8 00 00 00 00       	mov    $0x0,%eax
  102f1b:	c9                   	leave  
  102f1c:	c3                   	ret    

00102f1d <pit_initialize>:
  102f1d:	55                   	push   %ebp
  102f1e:	89 e5                	mov    %esp,%ebp
  102f20:	83 ec 08             	sub    $0x8,%esp
  102f23:	83 ec 0c             	sub    $0xc,%esp
  102f26:	6a 64                	push   $0x64
  102f28:	e8 60 ff ff ff       	call   102e8d <pit_setTimerPhase>
  102f2d:	83 c4 10             	add    $0x10,%esp
  102f30:	83 ec 08             	sub    $0x8,%esp
  102f33:	68 dc 2e 10 00       	push   $0x102edc
  102f38:	6a 00                	push   $0x0
  102f3a:	e8 60 e6 ff ff       	call   10159f <hal_registerInterruptHandler>
  102f3f:	83 c4 10             	add    $0x10,%esp
  102f42:	68 78 6b 10 00       	push   $0x106b78
  102f47:	6a 01                	push   $0x1
  102f49:	6a 39                	push   $0x39
  102f4b:	68 a1 6b 10 00       	push   $0x106ba1
  102f50:	e8 4d d5 ff ff       	call   1004a2 <dprintf_internal>
  102f55:	83 c4 10             	add    $0x10,%esp
  102f58:	90                   	nop
  102f59:	c9                   	leave  
  102f5a:	c3                   	ret    
  102f5b:	66 90                	xchg   %ax,%ax
  102f5d:	66 90                	xchg   %ax,%ax
  102f5f:	90                   	nop

00102f60 <halCommonExceptionHandler>:
  102f60:	60                   	pusha  
  102f61:	0f a8                	push   %gs
  102f63:	06                   	push   %es
  102f64:	1e                   	push   %ds
  102f65:	0f 20 c0             	mov    %cr0,%eax
  102f68:	50                   	push   %eax
  102f69:	0f 20 d0             	mov    %cr2,%eax
  102f6c:	50                   	push   %eax
  102f6d:	0f 20 d8             	mov    %cr3,%eax
  102f70:	50                   	push   %eax
  102f71:	0f 20 e0             	mov    %cr4,%eax
  102f74:	50                   	push   %eax
  102f75:	83 ec 0c             	sub    $0xc,%esp
  102f78:	0f 01 0c 24          	sidtl  (%esp)
  102f7c:	0f 01 44 24 06       	sgdtl  0x6(%esp)
  102f81:	8d 44 24 1c          	lea    0x1c(%esp),%eax
  102f85:	54                   	push   %esp
  102f86:	50                   	push   %eax
  102f87:	ff 35 22 33 10 00    	push   0x103322
  102f8d:	e8 79 e4 ff ff       	call   10140b <hal_exceptionHandler>
  102f92:	83 c4 0c             	add    $0xc,%esp
  102f95:	83 c4 1c             	add    $0x1c,%esp
  102f98:	59                   	pop    %ecx
  102f99:	8e d9                	mov    %ecx,%ds
  102f9b:	59                   	pop    %ecx
  102f9c:	8e c1                	mov    %ecx,%es
  102f9e:	59                   	pop    %ecx
  102f9f:	8e e9                	mov    %ecx,%gs
  102fa1:	61                   	popa   
  102fa2:	cf                   	iret   

00102fa3 <halCommonIRQHandler>:
  102fa3:	60                   	pusha  
  102fa4:	0f a8                	push   %gs
  102fa6:	06                   	push   %es
  102fa7:	1e                   	push   %ds
  102fa8:	0f 20 c0             	mov    %cr0,%eax
  102fab:	50                   	push   %eax
  102fac:	0f 20 d0             	mov    %cr2,%eax
  102faf:	50                   	push   %eax
  102fb0:	0f 20 d8             	mov    %cr3,%eax
  102fb3:	50                   	push   %eax
  102fb4:	0f 20 e0             	mov    %cr4,%eax
  102fb7:	50                   	push   %eax
  102fb8:	83 ec 0c             	sub    $0xc,%esp
  102fbb:	0f 01 0c 24          	sidtl  (%esp)
  102fbf:	0f 01 44 24 06       	sgdtl  0x6(%esp)
  102fc4:	8d 44 24 1c          	lea    0x1c(%esp),%eax
  102fc8:	54                   	push   %esp
  102fc9:	50                   	push   %eax
  102fca:	ff 35 26 33 10 00    	push   0x103326
  102fd0:	ff 35 22 33 10 00    	push   0x103322
  102fd6:	e8 62 e5 ff ff       	call   10153d <hal_interruptHandler>
  102fdb:	83 c4 10             	add    $0x10,%esp
  102fde:	83 c4 1c             	add    $0x1c,%esp
  102fe1:	59                   	pop    %ecx
  102fe2:	8e d9                	mov    %ecx,%ds
  102fe4:	59                   	pop    %ecx
  102fe5:	8e c1                	mov    %ecx,%es
  102fe7:	59                   	pop    %ecx
  102fe8:	8e e9                	mov    %ecx,%gs
  102fea:	61                   	popa   
  102feb:	cf                   	iret   

00102fec <halDivisionException>:
  102fec:	6a 00                	push   $0x0
  102fee:	c7 05 22 33 10 00 00 	movl   $0x0,0x103322
  102ff5:	00 00 00 
  102ff8:	e9 63 ff ff ff       	jmp    102f60 <halCommonExceptionHandler>

00102ffd <halDebugException>:
  102ffd:	6a 00                	push   $0x0
  102fff:	c7 05 22 33 10 00 01 	movl   $0x1,0x103322
  103006:	00 00 00 
  103009:	e9 52 ff ff ff       	jmp    102f60 <halCommonExceptionHandler>

0010300e <halNMIException>:
  10300e:	6a 00                	push   $0x0
  103010:	c7 05 22 33 10 00 02 	movl   $0x2,0x103322
  103017:	00 00 00 
  10301a:	e9 41 ff ff ff       	jmp    102f60 <halCommonExceptionHandler>

0010301f <halBreakpointException>:
  10301f:	6a 00                	push   $0x0
  103021:	c7 05 22 33 10 00 03 	movl   $0x3,0x103322
  103028:	00 00 00 
  10302b:	e9 30 ff ff ff       	jmp    102f60 <halCommonExceptionHandler>

00103030 <halOverflowException>:
  103030:	6a 00                	push   $0x0
  103032:	c7 05 22 33 10 00 04 	movl   $0x4,0x103322
  103039:	00 00 00 
  10303c:	e9 1f ff ff ff       	jmp    102f60 <halCommonExceptionHandler>

00103041 <halBoundException>:
  103041:	6a 00                	push   $0x0
  103043:	c7 05 22 33 10 00 05 	movl   $0x5,0x103322
  10304a:	00 00 00 
  10304d:	e9 0e ff ff ff       	jmp    102f60 <halCommonExceptionHandler>

00103052 <halInvalidOpcodeException>:
  103052:	6a 00                	push   $0x0
  103054:	c7 05 22 33 10 00 06 	movl   $0x6,0x103322
  10305b:	00 00 00 
  10305e:	e9 fd fe ff ff       	jmp    102f60 <halCommonExceptionHandler>

00103063 <halNoFPUException>:
  103063:	6a 00                	push   $0x0
  103065:	c7 05 22 33 10 00 07 	movl   $0x7,0x103322
  10306c:	00 00 00 
  10306f:	e9 ec fe ff ff       	jmp    102f60 <halCommonExceptionHandler>

00103074 <halDoubleFaultException>:
  103074:	c7 05 22 33 10 00 08 	movl   $0x8,0x103322
  10307b:	00 00 00 
  10307e:	e9 dd fe ff ff       	jmp    102f60 <halCommonExceptionHandler>

00103083 <halCoprocessorSegmentException>:
  103083:	6a 00                	push   $0x0
  103085:	c7 05 22 33 10 00 09 	movl   $0x9,0x103322
  10308c:	00 00 00 
  10308f:	e9 cc fe ff ff       	jmp    102f60 <halCommonExceptionHandler>

00103094 <halInvalidTSSException>:
  103094:	c7 05 22 33 10 00 0a 	movl   $0xa,0x103322
  10309b:	00 00 00 
  10309e:	e9 bd fe ff ff       	jmp    102f60 <halCommonExceptionHandler>

001030a3 <halSegmentNotPresentException>:
  1030a3:	c7 05 22 33 10 00 0b 	movl   $0xb,0x103322
  1030aa:	00 00 00 
  1030ad:	e9 ae fe ff ff       	jmp    102f60 <halCommonExceptionHandler>

001030b2 <halStackSegmentException>:
  1030b2:	c7 05 22 33 10 00 0c 	movl   $0xc,0x103322
  1030b9:	00 00 00 
  1030bc:	e9 9f fe ff ff       	jmp    102f60 <halCommonExceptionHandler>

001030c1 <halGeneralProtectionException>:
  1030c1:	c7 05 22 33 10 00 0d 	movl   $0xd,0x103322
  1030c8:	00 00 00 
  1030cb:	e9 90 fe ff ff       	jmp    102f60 <halCommonExceptionHandler>

001030d0 <halPageFaultException>:
  1030d0:	c7 05 22 33 10 00 0e 	movl   $0xe,0x103322
  1030d7:	00 00 00 
  1030da:	e9 81 fe ff ff       	jmp    102f60 <halCommonExceptionHandler>

001030df <halReservedException>:
  1030df:	6a 00                	push   $0x0
  1030e1:	c7 05 22 33 10 00 0f 	movl   $0xf,0x103322
  1030e8:	00 00 00 
  1030eb:	e9 70 fe ff ff       	jmp    102f60 <halCommonExceptionHandler>

001030f0 <halFloatingPointException>:
  1030f0:	6a 00                	push   $0x0
  1030f2:	c7 05 22 33 10 00 10 	movl   $0x10,0x103322
  1030f9:	00 00 00 
  1030fc:	e9 5f fe ff ff       	jmp    102f60 <halCommonExceptionHandler>

00103101 <halAlignmentCheck>:
  103101:	c7 05 22 33 10 00 11 	movl   $0x11,0x103322
  103108:	00 00 00 
  10310b:	e9 50 fe ff ff       	jmp    102f60 <halCommonExceptionHandler>

00103110 <halMachineCheck>:
  103110:	6a 00                	push   $0x0
  103112:	c7 05 22 33 10 00 12 	movl   $0x12,0x103322
  103119:	00 00 00 
  10311c:	e9 3f fe ff ff       	jmp    102f60 <halCommonExceptionHandler>

00103121 <halSIMDFloatingPointException>:
  103121:	6a 00                	push   $0x0
  103123:	c7 05 22 33 10 00 13 	movl   $0x13,0x103322
  10312a:	00 00 00 
  10312d:	e9 2e fe ff ff       	jmp    102f60 <halCommonExceptionHandler>

00103132 <halVirtualizationException>:
  103132:	6a 00                	push   $0x0
  103134:	c7 05 22 33 10 00 14 	movl   $0x14,0x103322
  10313b:	00 00 00 
  10313e:	e9 1d fe ff ff       	jmp    102f60 <halCommonExceptionHandler>

00103143 <halControlProtectionException>:
  103143:	c7 05 22 33 10 00 15 	movl   $0x15,0x103322
  10314a:	00 00 00 
  10314d:	e9 0e fe ff ff       	jmp    102f60 <halCommonExceptionHandler>

00103152 <halHypervisorInjectionException>:
  103152:	6a 00                	push   $0x0
  103154:	c7 05 22 33 10 00 1c 	movl   $0x1c,0x103322
  10315b:	00 00 00 
  10315e:	e9 fd fd ff ff       	jmp    102f60 <halCommonExceptionHandler>

00103163 <halVMMCommunicationException>:
  103163:	c7 05 22 33 10 00 1d 	movl   $0x1d,0x103322
  10316a:	00 00 00 
  10316d:	e9 ee fd ff ff       	jmp    102f60 <halCommonExceptionHandler>

00103172 <halSecurityException>:
  103172:	c7 05 22 33 10 00 1e 	movl   $0x1e,0x103322
  103179:	00 00 00 
  10317c:	e9 df fd ff ff       	jmp    102f60 <halCommonExceptionHandler>

00103181 <halReserved2Exception>:
  103181:	6a 00                	push   $0x0
  103183:	c7 05 22 33 10 00 1f 	movl   $0x1f,0x103322
  10318a:	00 00 00 
  10318d:	e9 ce fd ff ff       	jmp    102f60 <halCommonExceptionHandler>

00103192 <halIRQ0>:
  103192:	c7 05 22 33 10 00 20 	movl   $0x20,0x103322
  103199:	00 00 00 
  10319c:	c7 05 26 33 10 00 00 	movl   $0x0,0x103326
  1031a3:	00 00 00 
  1031a6:	e9 f8 fd ff ff       	jmp    102fa3 <halCommonIRQHandler>

001031ab <halIRQ1>:
  1031ab:	c7 05 22 33 10 00 21 	movl   $0x21,0x103322
  1031b2:	00 00 00 
  1031b5:	c7 05 26 33 10 00 01 	movl   $0x1,0x103326
  1031bc:	00 00 00 
  1031bf:	e9 df fd ff ff       	jmp    102fa3 <halCommonIRQHandler>

001031c4 <halIRQ2>:
  1031c4:	c7 05 22 33 10 00 22 	movl   $0x22,0x103322
  1031cb:	00 00 00 
  1031ce:	c7 05 26 33 10 00 02 	movl   $0x2,0x103326
  1031d5:	00 00 00 
  1031d8:	e9 c6 fd ff ff       	jmp    102fa3 <halCommonIRQHandler>

001031dd <halIRQ3>:
  1031dd:	c7 05 22 33 10 00 23 	movl   $0x23,0x103322
  1031e4:	00 00 00 
  1031e7:	c7 05 26 33 10 00 03 	movl   $0x3,0x103326
  1031ee:	00 00 00 
  1031f1:	e9 ad fd ff ff       	jmp    102fa3 <halCommonIRQHandler>

001031f6 <halIRQ4>:
  1031f6:	c7 05 22 33 10 00 24 	movl   $0x24,0x103322
  1031fd:	00 00 00 
  103200:	c7 05 26 33 10 00 04 	movl   $0x4,0x103326
  103207:	00 00 00 
  10320a:	e9 94 fd ff ff       	jmp    102fa3 <halCommonIRQHandler>

0010320f <halIRQ5>:
  10320f:	c7 05 22 33 10 00 25 	movl   $0x25,0x103322
  103216:	00 00 00 
  103219:	c7 05 26 33 10 00 05 	movl   $0x5,0x103326
  103220:	00 00 00 
  103223:	e9 7b fd ff ff       	jmp    102fa3 <halCommonIRQHandler>

00103228 <halIRQ6>:
  103228:	c7 05 22 33 10 00 26 	movl   $0x26,0x103322
  10322f:	00 00 00 
  103232:	c7 05 26 33 10 00 06 	movl   $0x6,0x103326
  103239:	00 00 00 
  10323c:	e9 62 fd ff ff       	jmp    102fa3 <halCommonIRQHandler>

00103241 <halIRQ7>:
  103241:	c7 05 22 33 10 00 27 	movl   $0x27,0x103322
  103248:	00 00 00 
  10324b:	c7 05 26 33 10 00 07 	movl   $0x7,0x103326
  103252:	00 00 00 
  103255:	e9 49 fd ff ff       	jmp    102fa3 <halCommonIRQHandler>

0010325a <halIRQ8>:
  10325a:	c7 05 22 33 10 00 28 	movl   $0x28,0x103322
  103261:	00 00 00 
  103264:	c7 05 26 33 10 00 08 	movl   $0x8,0x103326
  10326b:	00 00 00 
  10326e:	e9 30 fd ff ff       	jmp    102fa3 <halCommonIRQHandler>

00103273 <halIRQ9>:
  103273:	c7 05 22 33 10 00 29 	movl   $0x29,0x103322
  10327a:	00 00 00 
  10327d:	c7 05 26 33 10 00 09 	movl   $0x9,0x103326
  103284:	00 00 00 
  103287:	e9 17 fd ff ff       	jmp    102fa3 <halCommonIRQHandler>

0010328c <halIRQ10>:
  10328c:	c7 05 22 33 10 00 2a 	movl   $0x2a,0x103322
  103293:	00 00 00 
  103296:	c7 05 26 33 10 00 0a 	movl   $0xa,0x103326
  10329d:	00 00 00 
  1032a0:	e9 fe fc ff ff       	jmp    102fa3 <halCommonIRQHandler>

001032a5 <halIRQ11>:
  1032a5:	c7 05 22 33 10 00 2b 	movl   $0x2b,0x103322
  1032ac:	00 00 00 
  1032af:	c7 05 26 33 10 00 0b 	movl   $0xb,0x103326
  1032b6:	00 00 00 
  1032b9:	e9 e5 fc ff ff       	jmp    102fa3 <halCommonIRQHandler>

001032be <halIRQ12>:
  1032be:	c7 05 22 33 10 00 2c 	movl   $0x2c,0x103322
  1032c5:	00 00 00 
  1032c8:	c7 05 26 33 10 00 0c 	movl   $0xc,0x103326
  1032cf:	00 00 00 
  1032d2:	e9 cc fc ff ff       	jmp    102fa3 <halCommonIRQHandler>

001032d7 <halIRQ13>:
  1032d7:	c7 05 22 33 10 00 2d 	movl   $0x2d,0x103322
  1032de:	00 00 00 
  1032e1:	c7 05 26 33 10 00 0d 	movl   $0xd,0x103326
  1032e8:	00 00 00 
  1032eb:	e9 b3 fc ff ff       	jmp    102fa3 <halCommonIRQHandler>

001032f0 <halIRQ14>:
  1032f0:	c7 05 22 33 10 00 2e 	movl   $0x2e,0x103322
  1032f7:	00 00 00 
  1032fa:	c7 05 26 33 10 00 0e 	movl   $0xe,0x103326
  103301:	00 00 00 
  103304:	e9 9a fc ff ff       	jmp    102fa3 <halCommonIRQHandler>

00103309 <halIRQ15>:
  103309:	c7 05 22 33 10 00 2f 	movl   $0x2f,0x103322
  103310:	00 00 00 
  103313:	c7 05 26 33 10 00 0f 	movl   $0xf,0x103326
  10331a:	00 00 00 
  10331d:	e9 81 fc ff ff       	jmp    102fa3 <halCommonIRQHandler>

00103322 <halExceptionIndex>:
  103322:	00 00                	add    %al,(%eax)
	...

00103326 <halIRQIndex>:
  103326:	00 00                	add    %al,(%eax)
	...

0010332a <hal_installGDT>:
  10332a:	0f 01 15 48 33 10 00 	lgdtl  0x103348
  103331:	66 b8 10 00          	mov    $0x10,%ax
  103335:	8e d8                	mov    %eax,%ds
  103337:	8e c0                	mov    %eax,%es
  103339:	8e e0                	mov    %eax,%fs
  10333b:	8e e8                	mov    %eax,%gs
  10333d:	8e d0                	mov    %eax,%ss
  10333f:	ea 46 33 10 00 08 00 	ljmp   $0x8,$0x103346

00103346 <hal_finishedFlushingGDT>:
  103346:	c3                   	ret    
  103347:	90                   	nop

00103348 <gdtr>:
  103348:	27                   	daa    
  103349:	00 4e 33             	add    %cl,0x33(%esi)
  10334c:	10 00                	adc    %al,(%eax)

0010334e <gdt_base>:
	...
  103356:	ff                   	(bad)  
  103357:	ff 00                	incl   (%eax)
  103359:	00 00                	add    %al,(%eax)
  10335b:	9a cf 00 ff ff 00 00 	lcall  $0x0,$0xffff00cf
  103362:	00 92 cf 00 ff ff    	add    %dl,-0xff31(%edx)
  103368:	00 00                	add    %al,(%eax)
  10336a:	00 fa                	add    %bh,%dl
  10336c:	cf                   	iret   
  10336d:	00 ff                	add    %bh,%bh
  10336f:	ff 00                	incl   (%eax)
  103371:	00 00                	add    %al,(%eax)
  103373:	f2 cf                	repnz iret 
	...

00103376 <_start>:
  103376:	bc 90 de 10 00       	mov    $0x10de90,%esp
  10337b:	31 ed                	xor    %ebp,%ebp
  10337d:	54                   	push   %esp
  10337e:	50                   	push   %eax
  10337f:	53                   	push   %ebx
  103380:	e8 42 ef ff ff       	call   1022c7 <arch_main>
  103385:	fa                   	cli    
  103386:	f4                   	hlt    
  103387:	eb fe                	jmp    103387 <_start+0x11>

00103389 <print_dec>:
  103389:	55                   	push   %ebp
  10338a:	89 e5                	mov    %esp,%ebp
  10338c:	53                   	push   %ebx
  10338d:	81 ec c4 00 00 00    	sub    $0xc4,%esp
  103393:	8b 45 08             	mov    0x8(%ebp),%eax
  103396:	89 85 40 ff ff ff    	mov    %eax,-0xc0(%ebp)
  10339c:	8b 45 0c             	mov    0xc(%ebp),%eax
  10339f:	89 85 44 ff ff ff    	mov    %eax,-0xbc(%ebp)
  1033a5:	c7 45 f4 00 00 00 00 	movl   $0x0,-0xc(%ebp)
  1033ac:	c7 45 e8 01 00 00 00 	movl   $0x1,-0x18(%ebp)
  1033b3:	c7 45 ec 00 00 00 00 	movl   $0x0,-0x14(%ebp)
  1033ba:	c7 45 e0 09 00 00 00 	movl   $0x9,-0x20(%ebp)
  1033c1:	c7 45 e4 00 00 00 00 	movl   $0x0,-0x1c(%ebp)
  1033c8:	83 7d 24 ff          	cmpl   $0xffffffff,0x24(%ebp)
  1033cc:	75 07                	jne    1033d5 <print_dec+0x4c>
  1033ce:	c7 45 24 01 00 00 00 	movl   $0x1,0x24(%ebp)
  1033d5:	8b 85 40 ff ff ff    	mov    -0xc0(%ebp),%eax
  1033db:	0b 85 44 ff ff ff    	or     -0xbc(%ebp),%eax
  1033e1:	75 10                	jne    1033f3 <print_dec+0x6a>
  1033e3:	c7 45 e8 00 00 00 00 	movl   $0x0,-0x18(%ebp)
  1033ea:	c7 45 ec 00 00 00 00 	movl   $0x0,-0x14(%ebp)
  1033f1:	eb 48                	jmp    10343b <print_dec+0xb2>
  1033f3:	8b 85 40 ff ff ff    	mov    -0xc0(%ebp),%eax
  1033f9:	8b 95 44 ff ff ff    	mov    -0xbc(%ebp),%edx
  1033ff:	89 45 d8             	mov    %eax,-0x28(%ebp)
  103402:	89 55 dc             	mov    %edx,-0x24(%ebp)
  103405:	eb 22                	jmp    103429 <print_dec+0xa0>
  103407:	8b 45 d8             	mov    -0x28(%ebp),%eax
  10340a:	8b 55 dc             	mov    -0x24(%ebp),%edx
  10340d:	6a 00                	push   $0x0
  10340f:	6a 0a                	push   $0xa
  103411:	52                   	push   %edx
  103412:	50                   	push   %eax
  103413:	e8 f8 21 00 00       	call   105610 <__udivdi3>
  103418:	83 c4 10             	add    $0x10,%esp
  10341b:	89 45 d8             	mov    %eax,-0x28(%ebp)
  10341e:	89 55 dc             	mov    %edx,-0x24(%ebp)
  103421:	83 45 e8 01          	addl   $0x1,-0x18(%ebp)
  103425:	83 55 ec 00          	adcl   $0x0,-0x14(%ebp)
  103429:	ba 09 00 00 00       	mov    $0x9,%edx
  10342e:	b8 00 00 00 00       	mov    $0x0,%eax
  103433:	3b 55 d8             	cmp    -0x28(%ebp),%edx
  103436:	1b 45 dc             	sbb    -0x24(%ebp),%eax
  103439:	72 cc                	jb     103407 <print_dec+0x7e>
  10343b:	8b 45 24             	mov    0x24(%ebp),%eax
  10343e:	99                   	cltd   
  10343f:	8b 4d ec             	mov    -0x14(%ebp),%ecx
  103442:	39 45 e8             	cmp    %eax,-0x18(%ebp)
  103445:	19 d1                	sbb    %edx,%ecx
  103447:	73 0a                	jae    103453 <print_dec+0xca>
  103449:	8b 45 24             	mov    0x24(%ebp),%eax
  10344c:	99                   	cltd   
  10344d:	89 45 e8             	mov    %eax,-0x18(%ebp)
  103450:	89 55 ec             	mov    %edx,-0x14(%ebp)
  103453:	c7 45 d4 00 00 00 00 	movl   $0x0,-0x2c(%ebp)
  10345a:	83 7d 20 00          	cmpl   $0x0,0x20(%ebp)
  10345e:	0f 84 20 01 00 00    	je     103584 <print_dec+0x1fb>
  103464:	eb 29                	jmp    10348f <print_dec+0x106>
  103466:	83 7d 1c 00          	cmpl   $0x0,0x1c(%ebp)
  10346a:	74 07                	je     103473 <print_dec+0xea>
  10346c:	b8 30 00 00 00       	mov    $0x30,%eax
  103471:	eb 05                	jmp    103478 <print_dec+0xef>
  103473:	b8 20 00 00 00       	mov    $0x20,%eax
  103478:	83 ec 08             	sub    $0x8,%esp
  10347b:	50                   	push   %eax
  10347c:	ff 75 18             	push   0x18(%ebp)
  10347f:	8b 45 14             	mov    0x14(%ebp),%eax
  103482:	ff d0                	call   *%eax
  103484:	83 c4 10             	add    $0x10,%esp
  103487:	83 45 f4 01          	addl   $0x1,-0xc(%ebp)
  10348b:	83 45 d4 01          	addl   $0x1,-0x2c(%ebp)
  10348f:	8b 45 d4             	mov    -0x2c(%ebp),%eax
  103492:	89 c1                	mov    %eax,%ecx
  103494:	89 c3                	mov    %eax,%ebx
  103496:	c1 fb 1f             	sar    $0x1f,%ebx
  103499:	8b 45 e8             	mov    -0x18(%ebp),%eax
  10349c:	8b 55 ec             	mov    -0x14(%ebp),%edx
  10349f:	01 c8                	add    %ecx,%eax
  1034a1:	11 da                	adc    %ebx,%edx
  1034a3:	8b 4d 10             	mov    0x10(%ebp),%ecx
  1034a6:	bb 00 00 00 00       	mov    $0x0,%ebx
  1034ab:	39 c8                	cmp    %ecx,%eax
  1034ad:	89 d0                	mov    %edx,%eax
  1034af:	19 d8                	sbb    %ebx,%eax
  1034b1:	72 b3                	jb     103466 <print_dec+0xdd>
  1034b3:	8b 45 e8             	mov    -0x18(%ebp),%eax
  1034b6:	8b 55 ec             	mov    -0x14(%ebp),%edx
  1034b9:	89 45 e0             	mov    %eax,-0x20(%ebp)
  1034bc:	89 55 e4             	mov    %edx,-0x1c(%ebp)
  1034bf:	eb 78                	jmp    103539 <print_dec+0x1b0>
  1034c1:	8b 85 40 ff ff ff    	mov    -0xc0(%ebp),%eax
  1034c7:	8b 95 44 ff ff ff    	mov    -0xbc(%ebp),%edx
  1034cd:	6a 00                	push   $0x0
  1034cf:	6a 0a                	push   $0xa
  1034d1:	52                   	push   %edx
  1034d2:	50                   	push   %eax
  1034d3:	e8 38 21 00 00       	call   105610 <__udivdi3>
  1034d8:	83 c4 10             	add    $0x10,%esp
  1034db:	89 45 b8             	mov    %eax,-0x48(%ebp)
  1034de:	89 55 bc             	mov    %edx,-0x44(%ebp)
  1034e1:	8b 85 40 ff ff ff    	mov    -0xc0(%ebp),%eax
  1034e7:	8b 95 44 ff ff ff    	mov    -0xbc(%ebp),%edx
  1034ed:	6a 00                	push   $0x0
  1034ef:	6a 0a                	push   $0xa
  1034f1:	52                   	push   %edx
  1034f2:	50                   	push   %eax
  1034f3:	e8 38 22 00 00       	call   105730 <__umoddi3>
  1034f8:	83 c4 10             	add    $0x10,%esp
  1034fb:	89 45 b0             	mov    %eax,-0x50(%ebp)
  1034fe:	89 55 b4             	mov    %edx,-0x4c(%ebp)
  103501:	8b 45 b0             	mov    -0x50(%ebp),%eax
  103504:	8d 48 30             	lea    0x30(%eax),%ecx
  103507:	8b 45 e0             	mov    -0x20(%ebp),%eax
  10350a:	8b 55 e4             	mov    -0x1c(%ebp),%edx
  10350d:	83 c0 ff             	add    $0xffffffff,%eax
  103510:	83 d2 ff             	adc    $0xffffffff,%edx
  103513:	89 cb                	mov    %ecx,%ebx
  103515:	8d 8d 4c ff ff ff    	lea    -0xb4(%ebp),%ecx
  10351b:	01 c8                	add    %ecx,%eax
  10351d:	88 18                	mov    %bl,(%eax)
  10351f:	83 45 e0 ff          	addl   $0xffffffff,-0x20(%ebp)
  103523:	83 55 e4 ff          	adcl   $0xffffffff,-0x1c(%ebp)
  103527:	8b 45 b8             	mov    -0x48(%ebp),%eax
  10352a:	8b 55 bc             	mov    -0x44(%ebp),%edx
  10352d:	89 85 40 ff ff ff    	mov    %eax,-0xc0(%ebp)
  103533:	89 95 44 ff ff ff    	mov    %edx,-0xbc(%ebp)
  103539:	8b 45 e0             	mov    -0x20(%ebp),%eax
  10353c:	0b 45 e4             	or     -0x1c(%ebp),%eax
  10353f:	75 80                	jne    1034c1 <print_dec+0x138>
  103541:	eb 2c                	jmp    10356f <print_dec+0x1e6>
  103543:	8d 95 4c ff ff ff    	lea    -0xb4(%ebp),%edx
  103549:	8b 45 e0             	mov    -0x20(%ebp),%eax
  10354c:	01 d0                	add    %edx,%eax
  10354e:	0f b6 00             	movzbl (%eax),%eax
  103551:	0f be c0             	movsbl %al,%eax
  103554:	83 ec 08             	sub    $0x8,%esp
  103557:	50                   	push   %eax
  103558:	ff 75 18             	push   0x18(%ebp)
  10355b:	8b 45 14             	mov    0x14(%ebp),%eax
  10355e:	ff d0                	call   *%eax
  103560:	83 c4 10             	add    $0x10,%esp
  103563:	83 45 f4 01          	addl   $0x1,-0xc(%ebp)
  103567:	83 45 e0 01          	addl   $0x1,-0x20(%ebp)
  10356b:	83 55 e4 00          	adcl   $0x0,-0x1c(%ebp)
  10356f:	8b 45 e0             	mov    -0x20(%ebp),%eax
  103572:	8b 55 e4             	mov    -0x1c(%ebp),%edx
  103575:	3b 45 e8             	cmp    -0x18(%ebp),%eax
  103578:	89 d0                	mov    %edx,%eax
  10357a:	1b 45 ec             	sbb    -0x14(%ebp),%eax
  10357d:	72 c4                	jb     103543 <print_dec+0x1ba>
  10357f:	e9 13 01 00 00       	jmp    103697 <print_dec+0x30e>
  103584:	8b 45 e8             	mov    -0x18(%ebp),%eax
  103587:	8b 55 ec             	mov    -0x14(%ebp),%edx
  10358a:	89 45 e0             	mov    %eax,-0x20(%ebp)
  10358d:	89 55 e4             	mov    %edx,-0x1c(%ebp)
  103590:	eb 7c                	jmp    10360e <print_dec+0x285>
  103592:	8b 85 40 ff ff ff    	mov    -0xc0(%ebp),%eax
  103598:	8b 95 44 ff ff ff    	mov    -0xbc(%ebp),%edx
  10359e:	6a 00                	push   $0x0
  1035a0:	6a 0a                	push   $0xa
  1035a2:	52                   	push   %edx
  1035a3:	50                   	push   %eax
  1035a4:	e8 67 20 00 00       	call   105610 <__udivdi3>
  1035a9:	83 c4 10             	add    $0x10,%esp
  1035ac:	89 45 c8             	mov    %eax,-0x38(%ebp)
  1035af:	89 55 cc             	mov    %edx,-0x34(%ebp)
  1035b2:	8b 85 40 ff ff ff    	mov    -0xc0(%ebp),%eax
  1035b8:	8b 95 44 ff ff ff    	mov    -0xbc(%ebp),%edx
  1035be:	6a 00                	push   $0x0
  1035c0:	6a 0a                	push   $0xa
  1035c2:	52                   	push   %edx
  1035c3:	50                   	push   %eax
  1035c4:	e8 67 21 00 00       	call   105730 <__umoddi3>
  1035c9:	83 c4 10             	add    $0x10,%esp
  1035cc:	89 45 c0             	mov    %eax,-0x40(%ebp)
  1035cf:	89 55 c4             	mov    %edx,-0x3c(%ebp)
  1035d2:	8b 45 c0             	mov    -0x40(%ebp),%eax
  1035d5:	8d 48 30             	lea    0x30(%eax),%ecx
  1035d8:	8b 45 e0             	mov    -0x20(%ebp),%eax
  1035db:	8b 55 e4             	mov    -0x1c(%ebp),%edx
  1035de:	83 c0 ff             	add    $0xffffffff,%eax
  1035e1:	83 d2 ff             	adc    $0xffffffff,%edx
  1035e4:	89 cb                	mov    %ecx,%ebx
  1035e6:	8d 8d 4c ff ff ff    	lea    -0xb4(%ebp),%ecx
  1035ec:	01 c8                	add    %ecx,%eax
  1035ee:	88 18                	mov    %bl,(%eax)
  1035f0:	83 45 e0 ff          	addl   $0xffffffff,-0x20(%ebp)
  1035f4:	83 55 e4 ff          	adcl   $0xffffffff,-0x1c(%ebp)
  1035f8:	8b 45 c8             	mov    -0x38(%ebp),%eax
  1035fb:	8b 55 cc             	mov    -0x34(%ebp),%edx
  1035fe:	89 85 40 ff ff ff    	mov    %eax,-0xc0(%ebp)
  103604:	89 95 44 ff ff ff    	mov    %edx,-0xbc(%ebp)
  10360a:	83 45 d4 01          	addl   $0x1,-0x2c(%ebp)
  10360e:	8b 45 e0             	mov    -0x20(%ebp),%eax
  103611:	0b 45 e4             	or     -0x1c(%ebp),%eax
  103614:	0f 85 78 ff ff ff    	jne    103592 <print_dec+0x209>
  10361a:	eb 2c                	jmp    103648 <print_dec+0x2bf>
  10361c:	8d 95 4c ff ff ff    	lea    -0xb4(%ebp),%edx
  103622:	8b 45 e0             	mov    -0x20(%ebp),%eax
  103625:	01 d0                	add    %edx,%eax
  103627:	0f b6 00             	movzbl (%eax),%eax
  10362a:	0f be c0             	movsbl %al,%eax
  10362d:	83 ec 08             	sub    $0x8,%esp
  103630:	50                   	push   %eax
  103631:	ff 75 18             	push   0x18(%ebp)
  103634:	8b 45 14             	mov    0x14(%ebp),%eax
  103637:	ff d0                	call   *%eax
  103639:	83 c4 10             	add    $0x10,%esp
  10363c:	83 45 f4 01          	addl   $0x1,-0xc(%ebp)
  103640:	83 45 e0 01          	addl   $0x1,-0x20(%ebp)
  103644:	83 55 e4 00          	adcl   $0x0,-0x1c(%ebp)
  103648:	8b 45 e0             	mov    -0x20(%ebp),%eax
  10364b:	8b 55 e4             	mov    -0x1c(%ebp),%edx
  10364e:	3b 45 e8             	cmp    -0x18(%ebp),%eax
  103651:	89 d0                	mov    %edx,%eax
  103653:	1b 45 ec             	sbb    -0x14(%ebp),%eax
  103656:	72 c4                	jb     10361c <print_dec+0x293>
  103658:	eb 29                	jmp    103683 <print_dec+0x2fa>
  10365a:	83 7d 1c 00          	cmpl   $0x0,0x1c(%ebp)
  10365e:	74 07                	je     103667 <print_dec+0x2de>
  103660:	b8 30 00 00 00       	mov    $0x30,%eax
  103665:	eb 05                	jmp    10366c <print_dec+0x2e3>
  103667:	b8 20 00 00 00       	mov    $0x20,%eax
  10366c:	83 ec 08             	sub    $0x8,%esp
  10366f:	50                   	push   %eax
  103670:	ff 75 18             	push   0x18(%ebp)
  103673:	8b 45 14             	mov    0x14(%ebp),%eax
  103676:	ff d0                	call   *%eax
  103678:	83 c4 10             	add    $0x10,%esp
  10367b:	83 45 f4 01          	addl   $0x1,-0xc(%ebp)
  10367f:	83 45 d4 01          	addl   $0x1,-0x2c(%ebp)
  103683:	8b 45 d4             	mov    -0x2c(%ebp),%eax
  103686:	99                   	cltd   
  103687:	8b 4d 10             	mov    0x10(%ebp),%ecx
  10368a:	bb 00 00 00 00       	mov    $0x0,%ebx
  10368f:	39 c8                	cmp    %ecx,%eax
  103691:	89 d0                	mov    %edx,%eax
  103693:	19 d8                	sbb    %ebx,%eax
  103695:	7c c3                	jl     10365a <print_dec+0x2d1>
  103697:	8b 45 f4             	mov    -0xc(%ebp),%eax
  10369a:	8b 5d fc             	mov    -0x4(%ebp),%ebx
  10369d:	c9                   	leave  
  10369e:	c3                   	ret    

0010369f <print_hex>:
  10369f:	55                   	push   %ebp
  1036a0:	89 e5                	mov    %esp,%ebp
  1036a2:	57                   	push   %edi
  1036a3:	56                   	push   %esi
  1036a4:	53                   	push   %ebx
  1036a5:	83 ec 3c             	sub    $0x3c,%esp
  1036a8:	8b 45 08             	mov    0x8(%ebp),%eax
  1036ab:	89 45 c0             	mov    %eax,-0x40(%ebp)
  1036ae:	8b 45 0c             	mov    0xc(%ebp),%eax
  1036b1:	89 45 c4             	mov    %eax,-0x3c(%ebp)
  1036b4:	c7 45 e4 00 00 00 00 	movl   $0x0,-0x1c(%ebp)
  1036bb:	8b 45 10             	mov    0x10(%ebp),%eax
  1036be:	89 45 e0             	mov    %eax,-0x20(%ebp)
  1036c1:	c7 45 d8 01 00 00 00 	movl   $0x1,-0x28(%ebp)
  1036c8:	c7 45 dc 00 00 00 00 	movl   $0x0,-0x24(%ebp)
  1036cf:	c7 45 d0 0f 00 00 00 	movl   $0xf,-0x30(%ebp)
  1036d6:	c7 45 d4 00 00 00 00 	movl   $0x0,-0x2c(%ebp)
  1036dd:	eb 23                	jmp    103702 <print_hex+0x63>
  1036df:	83 45 d8 01          	addl   $0x1,-0x28(%ebp)
  1036e3:	83 55 dc 00          	adcl   $0x0,-0x24(%ebp)
  1036e7:	8b 45 d0             	mov    -0x30(%ebp),%eax
  1036ea:	8b 55 d4             	mov    -0x2c(%ebp),%edx
  1036ed:	0f a4 c2 04          	shld   $0x4,%eax,%edx
  1036f1:	c1 e0 04             	shl    $0x4,%eax
  1036f4:	89 45 d0             	mov    %eax,-0x30(%ebp)
  1036f7:	89 55 d4             	mov    %edx,-0x2c(%ebp)
  1036fa:	83 45 d0 0f          	addl   $0xf,-0x30(%ebp)
  1036fe:	83 55 d4 00          	adcl   $0x0,-0x2c(%ebp)
  103702:	8b 45 c0             	mov    -0x40(%ebp),%eax
  103705:	8b 55 c4             	mov    -0x3c(%ebp),%edx
  103708:	8b 4d d4             	mov    -0x2c(%ebp),%ecx
  10370b:	39 45 d0             	cmp    %eax,-0x30(%ebp)
  10370e:	19 d1                	sbb    %edx,%ecx
  103710:	73 0b                	jae    10371d <print_hex+0x7e>
  103712:	8b 45 d0             	mov    -0x30(%ebp),%eax
  103715:	23 45 d4             	and    -0x2c(%ebp),%eax
  103718:	83 f8 ff             	cmp    $0xffffffff,%eax
  10371b:	75 c2                	jne    1036df <print_hex+0x40>
  10371d:	83 7d 1c 00          	cmpl   $0x0,0x1c(%ebp)
  103721:	75 52                	jne    103775 <print_hex+0xd6>
  103723:	83 7d 28 01          	cmpl   $0x1,0x28(%ebp)
  103727:	75 4c                	jne    103775 <print_hex+0xd6>
  103729:	eb 18                	jmp    103743 <print_hex+0xa4>
  10372b:	83 ec 08             	sub    $0x8,%esp
  10372e:	6a 20                	push   $0x20
  103730:	ff 75 18             	push   0x18(%ebp)
  103733:	8b 45 14             	mov    0x14(%ebp),%eax
  103736:	ff d0                	call   *%eax
  103738:	83 c4 10             	add    $0x10,%esp
  10373b:	83 45 e4 01          	addl   $0x1,-0x1c(%ebp)
  10373f:	83 6d e0 01          	subl   $0x1,-0x20(%ebp)
  103743:	8b 45 e0             	mov    -0x20(%ebp),%eax
  103746:	99                   	cltd   
  103747:	83 7d 20 00          	cmpl   $0x0,0x20(%ebp)
  10374b:	74 0c                	je     103759 <print_hex+0xba>
  10374d:	be 02 00 00 00       	mov    $0x2,%esi
  103752:	bf 00 00 00 00       	mov    $0x0,%edi
  103757:	eb 0a                	jmp    103763 <print_hex+0xc4>
  103759:	be 00 00 00 00       	mov    $0x0,%esi
  10375e:	bf 00 00 00 00       	mov    $0x0,%edi
  103763:	8b 4d d8             	mov    -0x28(%ebp),%ecx
  103766:	8b 5d dc             	mov    -0x24(%ebp),%ebx
  103769:	01 f1                	add    %esi,%ecx
  10376b:	11 fb                	adc    %edi,%ebx
  10376d:	39 c1                	cmp    %eax,%ecx
  10376f:	89 df                	mov    %ebx,%edi
  103771:	19 d7                	sbb    %edx,%edi
  103773:	7c b6                	jl     10372b <print_hex+0x8c>
  103775:	83 7d 20 00          	cmpl   $0x0,0x20(%ebp)
  103779:	74 39                	je     1037b4 <print_hex+0x115>
  10377b:	83 ec 08             	sub    $0x8,%esp
  10377e:	6a 30                	push   $0x30
  103780:	ff 75 18             	push   0x18(%ebp)
  103783:	8b 45 14             	mov    0x14(%ebp),%eax
  103786:	ff d0                	call   *%eax
  103788:	83 c4 10             	add    $0x10,%esp
  10378b:	83 45 e4 01          	addl   $0x1,-0x1c(%ebp)
  10378f:	83 7d 24 00          	cmpl   $0x0,0x24(%ebp)
  103793:	74 07                	je     10379c <print_hex+0xfd>
  103795:	b8 58 00 00 00       	mov    $0x58,%eax
  10379a:	eb 05                	jmp    1037a1 <print_hex+0x102>
  10379c:	b8 78 00 00 00       	mov    $0x78,%eax
  1037a1:	83 ec 08             	sub    $0x8,%esp
  1037a4:	50                   	push   %eax
  1037a5:	ff 75 18             	push   0x18(%ebp)
  1037a8:	8b 45 14             	mov    0x14(%ebp),%eax
  1037ab:	ff d0                	call   *%eax
  1037ad:	83 c4 10             	add    $0x10,%esp
  1037b0:	83 45 e4 01          	addl   $0x1,-0x1c(%ebp)
  1037b4:	83 7d 1c 00          	cmpl   $0x0,0x1c(%ebp)
  1037b8:	74 52                	je     10380c <print_hex+0x16d>
  1037ba:	83 7d 28 01          	cmpl   $0x1,0x28(%ebp)
  1037be:	75 4c                	jne    10380c <print_hex+0x16d>
  1037c0:	eb 18                	jmp    1037da <print_hex+0x13b>
  1037c2:	83 ec 08             	sub    $0x8,%esp
  1037c5:	6a 30                	push   $0x30
  1037c7:	ff 75 18             	push   0x18(%ebp)
  1037ca:	8b 45 14             	mov    0x14(%ebp),%eax
  1037cd:	ff d0                	call   *%eax
  1037cf:	83 c4 10             	add    $0x10,%esp
  1037d2:	83 45 e4 01          	addl   $0x1,-0x1c(%ebp)
  1037d6:	83 6d e0 01          	subl   $0x1,-0x20(%ebp)
  1037da:	8b 45 e0             	mov    -0x20(%ebp),%eax
  1037dd:	99                   	cltd   
  1037de:	83 7d 20 00          	cmpl   $0x0,0x20(%ebp)
  1037e2:	74 0c                	je     1037f0 <print_hex+0x151>
  1037e4:	be 02 00 00 00       	mov    $0x2,%esi
  1037e9:	bf 00 00 00 00       	mov    $0x0,%edi
  1037ee:	eb 0a                	jmp    1037fa <print_hex+0x15b>
  1037f0:	be 00 00 00 00       	mov    $0x0,%esi
  1037f5:	bf 00 00 00 00       	mov    $0x0,%edi
  1037fa:	8b 4d d8             	mov    -0x28(%ebp),%ecx
  1037fd:	8b 5d dc             	mov    -0x24(%ebp),%ebx
  103800:	01 f1                	add    %esi,%ecx
  103802:	11 fb                	adc    %edi,%ebx
  103804:	39 c1                	cmp    %eax,%ecx
  103806:	89 df                	mov    %ebx,%edi
  103808:	19 d7                	sbb    %edx,%edi
  10380a:	7c b6                	jl     1037c2 <print_hex+0x123>
  10380c:	8b 45 d8             	mov    -0x28(%ebp),%eax
  10380f:	89 45 e0             	mov    %eax,-0x20(%ebp)
  103812:	eb 52                	jmp    103866 <print_hex+0x1c7>
  103814:	83 7d 24 00          	cmpl   $0x0,0x24(%ebp)
  103818:	74 07                	je     103821 <print_hex+0x182>
  10381a:	bb c0 6b 10 00       	mov    $0x106bc0,%ebx
  10381f:	eb 05                	jmp    103826 <print_hex+0x187>
  103821:	bb d1 6b 10 00       	mov    $0x106bd1,%ebx
  103826:	8b 45 e0             	mov    -0x20(%ebp),%eax
  103829:	8d 0c 85 00 00 00 00 	lea    0x0(,%eax,4),%ecx
  103830:	8b 45 c0             	mov    -0x40(%ebp),%eax
  103833:	8b 55 c4             	mov    -0x3c(%ebp),%edx
  103836:	0f ad d0             	shrd   %cl,%edx,%eax
  103839:	d3 ea                	shr    %cl,%edx
  10383b:	f6 c1 20             	test   $0x20,%cl
  10383e:	74 04                	je     103844 <print_hex+0x1a5>
  103840:	89 d0                	mov    %edx,%eax
  103842:	31 d2                	xor    %edx,%edx
  103844:	83 e0 0f             	and    $0xf,%eax
  103847:	01 d8                	add    %ebx,%eax
  103849:	0f b6 00             	movzbl (%eax),%eax
  10384c:	88 45 cf             	mov    %al,-0x31(%ebp)
  10384f:	0f be 45 cf          	movsbl -0x31(%ebp),%eax
  103853:	83 ec 08             	sub    $0x8,%esp
  103856:	50                   	push   %eax
  103857:	ff 75 18             	push   0x18(%ebp)
  10385a:	8b 45 14             	mov    0x14(%ebp),%eax
  10385d:	ff d0                	call   *%eax
  10385f:	83 c4 10             	add    $0x10,%esp
  103862:	83 45 e4 01          	addl   $0x1,-0x1c(%ebp)
  103866:	8b 45 e0             	mov    -0x20(%ebp),%eax
  103869:	8d 50 ff             	lea    -0x1(%eax),%edx
  10386c:	89 55 e0             	mov    %edx,-0x20(%ebp)
  10386f:	85 c0                	test   %eax,%eax
  103871:	7f a1                	jg     103814 <print_hex+0x175>
  103873:	83 7d 28 00          	cmpl   $0x0,0x28(%ebp)
  103877:	75 50                	jne    1038c9 <print_hex+0x22a>
  103879:	8b 45 10             	mov    0x10(%ebp),%eax
  10387c:	89 45 e0             	mov    %eax,-0x20(%ebp)
  10387f:	eb 18                	jmp    103899 <print_hex+0x1fa>
  103881:	83 ec 08             	sub    $0x8,%esp
  103884:	6a 20                	push   $0x20
  103886:	ff 75 18             	push   0x18(%ebp)
  103889:	8b 45 14             	mov    0x14(%ebp),%eax
  10388c:	ff d0                	call   *%eax
  10388e:	83 c4 10             	add    $0x10,%esp
  103891:	83 45 e4 01          	addl   $0x1,-0x1c(%ebp)
  103895:	83 6d e0 01          	subl   $0x1,-0x20(%ebp)
  103899:	8b 45 e0             	mov    -0x20(%ebp),%eax
  10389c:	99                   	cltd   
  10389d:	83 7d 20 00          	cmpl   $0x0,0x20(%ebp)
  1038a1:	74 0c                	je     1038af <print_hex+0x210>
  1038a3:	be 02 00 00 00       	mov    $0x2,%esi
  1038a8:	bf 00 00 00 00       	mov    $0x0,%edi
  1038ad:	eb 0a                	jmp    1038b9 <print_hex+0x21a>
  1038af:	be 00 00 00 00       	mov    $0x0,%esi
  1038b4:	bf 00 00 00 00       	mov    $0x0,%edi
  1038b9:	8b 4d d8             	mov    -0x28(%ebp),%ecx
  1038bc:	8b 5d dc             	mov    -0x24(%ebp),%ebx
  1038bf:	01 f1                	add    %esi,%ecx
  1038c1:	11 fb                	adc    %edi,%ebx
  1038c3:	39 c1                	cmp    %eax,%ecx
  1038c5:	19 d3                	sbb    %edx,%ebx
  1038c7:	7c b8                	jl     103881 <print_hex+0x1e2>
  1038c9:	8b 45 e4             	mov    -0x1c(%ebp),%eax
  1038cc:	8d 65 f4             	lea    -0xc(%ebp),%esp
  1038cf:	5b                   	pop    %ebx
  1038d0:	5e                   	pop    %esi
  1038d1:	5f                   	pop    %edi
  1038d2:	5d                   	pop    %ebp
  1038d3:	c3                   	ret    

001038d4 <xvasprintf>:
  1038d4:	55                   	push   %ebp
  1038d5:	89 e5                	mov    %esp,%ebp
  1038d7:	81 ec 98 00 00 00    	sub    $0x98,%esp
  1038dd:	c7 45 f0 00 00 00 00 	movl   $0x0,-0x10(%ebp)
  1038e4:	8b 45 10             	mov    0x10(%ebp),%eax
  1038e7:	89 45 ec             	mov    %eax,-0x14(%ebp)
  1038ea:	e9 c6 0b 00 00       	jmp    1044b5 <xvasprintf+0xbe1>
  1038ef:	8b 45 ec             	mov    -0x14(%ebp),%eax
  1038f2:	0f b6 00             	movzbl (%eax),%eax
  1038f5:	3c 25                	cmp    $0x25,%al
  1038f7:	74 21                	je     10391a <xvasprintf+0x46>
  1038f9:	8b 45 ec             	mov    -0x14(%ebp),%eax
  1038fc:	0f b6 00             	movzbl (%eax),%eax
  1038ff:	0f be c0             	movsbl %al,%eax
  103902:	83 ec 08             	sub    $0x8,%esp
  103905:	50                   	push   %eax
  103906:	ff 75 0c             	push   0xc(%ebp)
  103909:	8b 45 08             	mov    0x8(%ebp),%eax
  10390c:	ff d0                	call   *%eax
  10390e:	83 c4 10             	add    $0x10,%esp
  103911:	83 45 f0 01          	addl   $0x1,-0x10(%ebp)
  103915:	e9 97 0b 00 00       	jmp    1044b1 <xvasprintf+0xbdd>
  10391a:	83 45 ec 01          	addl   $0x1,-0x14(%ebp)
  10391e:	c7 45 e8 00 00 00 00 	movl   $0x0,-0x18(%ebp)
  103925:	c7 45 e4 01 00 00 00 	movl   $0x1,-0x1c(%ebp)
  10392c:	c7 45 e0 00 00 00 00 	movl   $0x0,-0x20(%ebp)
  103933:	c7 45 dc 00 00 00 00 	movl   $0x0,-0x24(%ebp)
  10393a:	c7 45 d8 00 00 00 00 	movl   $0x0,-0x28(%ebp)
  103941:	c7 45 d4 00 00 00 00 	movl   $0x0,-0x2c(%ebp)
  103948:	c7 45 d0 ff ff ff ff 	movl   $0xffffffff,-0x30(%ebp)
  10394f:	8b 45 ec             	mov    -0x14(%ebp),%eax
  103952:	0f b6 00             	movzbl (%eax),%eax
  103955:	3c 2d                	cmp    $0x2d,%al
  103957:	75 0d                	jne    103966 <xvasprintf+0x92>
  103959:	c7 45 e4 00 00 00 00 	movl   $0x0,-0x1c(%ebp)
  103960:	83 45 ec 01          	addl   $0x1,-0x14(%ebp)
  103964:	eb e9                	jmp    10394f <xvasprintf+0x7b>
  103966:	8b 45 ec             	mov    -0x14(%ebp),%eax
  103969:	0f b6 00             	movzbl (%eax),%eax
  10396c:	3c 23                	cmp    $0x23,%al
  10396e:	75 0d                	jne    10397d <xvasprintf+0xa9>
  103970:	c7 45 d8 01 00 00 00 	movl   $0x1,-0x28(%ebp)
  103977:	83 45 ec 01          	addl   $0x1,-0x14(%ebp)
  10397b:	eb d2                	jmp    10394f <xvasprintf+0x7b>
  10397d:	8b 45 ec             	mov    -0x14(%ebp),%eax
  103980:	0f b6 00             	movzbl (%eax),%eax
  103983:	3c 2a                	cmp    $0x2a,%al
  103985:	75 14                	jne    10399b <xvasprintf+0xc7>
  103987:	8b 45 14             	mov    0x14(%ebp),%eax
  10398a:	8d 50 04             	lea    0x4(%eax),%edx
  10398d:	89 55 14             	mov    %edx,0x14(%ebp)
  103990:	8b 00                	mov    (%eax),%eax
  103992:	89 45 e8             	mov    %eax,-0x18(%ebp)
  103995:	83 45 ec 01          	addl   $0x1,-0x14(%ebp)
  103999:	eb b4                	jmp    10394f <xvasprintf+0x7b>
  10399b:	8b 45 ec             	mov    -0x14(%ebp),%eax
  10399e:	0f b6 00             	movzbl (%eax),%eax
  1039a1:	3c 30                	cmp    $0x30,%al
  1039a3:	75 0d                	jne    1039b2 <xvasprintf+0xde>
  1039a5:	c7 45 e0 01 00 00 00 	movl   $0x1,-0x20(%ebp)
  1039ac:	83 45 ec 01          	addl   $0x1,-0x14(%ebp)
  1039b0:	eb 9d                	jmp    10394f <xvasprintf+0x7b>
  1039b2:	8b 45 ec             	mov    -0x14(%ebp),%eax
  1039b5:	0f b6 00             	movzbl (%eax),%eax
  1039b8:	3c 2b                	cmp    $0x2b,%al
  1039ba:	75 0d                	jne    1039c9 <xvasprintf+0xf5>
  1039bc:	c7 45 d4 01 00 00 00 	movl   $0x1,-0x2c(%ebp)
  1039c3:	83 45 ec 01          	addl   $0x1,-0x14(%ebp)
  1039c7:	eb 86                	jmp    10394f <xvasprintf+0x7b>
  1039c9:	8b 45 ec             	mov    -0x14(%ebp),%eax
  1039cc:	0f b6 00             	movzbl (%eax),%eax
  1039cf:	3c 20                	cmp    $0x20,%al
  1039d1:	75 10                	jne    1039e3 <xvasprintf+0x10f>
  1039d3:	c7 45 d4 02 00 00 00 	movl   $0x2,-0x2c(%ebp)
  1039da:	83 45 ec 01          	addl   $0x1,-0x14(%ebp)
  1039de:	e9 6c ff ff ff       	jmp    10394f <xvasprintf+0x7b>
  1039e3:	90                   	nop
  1039e4:	eb 27                	jmp    103a0d <xvasprintf+0x139>
  1039e6:	8b 55 e8             	mov    -0x18(%ebp),%edx
  1039e9:	89 d0                	mov    %edx,%eax
  1039eb:	c1 e0 02             	shl    $0x2,%eax
  1039ee:	01 d0                	add    %edx,%eax
  1039f0:	01 c0                	add    %eax,%eax
  1039f2:	89 45 e8             	mov    %eax,-0x18(%ebp)
  1039f5:	8b 45 ec             	mov    -0x14(%ebp),%eax
  1039f8:	0f b6 00             	movzbl (%eax),%eax
  1039fb:	0f be d0             	movsbl %al,%edx
  1039fe:	8b 45 e8             	mov    -0x18(%ebp),%eax
  103a01:	01 d0                	add    %edx,%eax
  103a03:	83 e8 30             	sub    $0x30,%eax
  103a06:	89 45 e8             	mov    %eax,-0x18(%ebp)
  103a09:	83 45 ec 01          	addl   $0x1,-0x14(%ebp)
  103a0d:	8b 45 ec             	mov    -0x14(%ebp),%eax
  103a10:	0f b6 00             	movzbl (%eax),%eax
  103a13:	3c 2f                	cmp    $0x2f,%al
  103a15:	7e 0a                	jle    103a21 <xvasprintf+0x14d>
  103a17:	8b 45 ec             	mov    -0x14(%ebp),%eax
  103a1a:	0f b6 00             	movzbl (%eax),%eax
  103a1d:	3c 39                	cmp    $0x39,%al
  103a1f:	7e c5                	jle    1039e6 <xvasprintf+0x112>
  103a21:	8b 45 ec             	mov    -0x14(%ebp),%eax
  103a24:	0f b6 00             	movzbl (%eax),%eax
  103a27:	3c 2e                	cmp    $0x2e,%al
  103a29:	75 5f                	jne    103a8a <xvasprintf+0x1b6>
  103a2b:	83 45 ec 01          	addl   $0x1,-0x14(%ebp)
  103a2f:	c7 45 d0 00 00 00 00 	movl   $0x0,-0x30(%ebp)
  103a36:	8b 45 ec             	mov    -0x14(%ebp),%eax
  103a39:	0f b6 00             	movzbl (%eax),%eax
  103a3c:	3c 2a                	cmp    $0x2a,%al
  103a3e:	75 36                	jne    103a76 <xvasprintf+0x1a2>
  103a40:	8b 45 14             	mov    0x14(%ebp),%eax
  103a43:	8d 50 04             	lea    0x4(%eax),%edx
  103a46:	89 55 14             	mov    %edx,0x14(%ebp)
  103a49:	8b 00                	mov    (%eax),%eax
  103a4b:	89 45 d0             	mov    %eax,-0x30(%ebp)
  103a4e:	83 45 ec 01          	addl   $0x1,-0x14(%ebp)
  103a52:	eb 36                	jmp    103a8a <xvasprintf+0x1b6>
  103a54:	8b 55 d0             	mov    -0x30(%ebp),%edx
  103a57:	89 d0                	mov    %edx,%eax
  103a59:	c1 e0 02             	shl    $0x2,%eax
  103a5c:	01 d0                	add    %edx,%eax
  103a5e:	01 c0                	add    %eax,%eax
  103a60:	89 45 d0             	mov    %eax,-0x30(%ebp)
  103a63:	8b 45 ec             	mov    -0x14(%ebp),%eax
  103a66:	0f b6 00             	movzbl (%eax),%eax
  103a69:	0f be c0             	movsbl %al,%eax
  103a6c:	83 e8 30             	sub    $0x30,%eax
  103a6f:	01 45 d0             	add    %eax,-0x30(%ebp)
  103a72:	83 45 ec 01          	addl   $0x1,-0x14(%ebp)
  103a76:	8b 45 ec             	mov    -0x14(%ebp),%eax
  103a79:	0f b6 00             	movzbl (%eax),%eax
  103a7c:	3c 2f                	cmp    $0x2f,%al
  103a7e:	7e 0a                	jle    103a8a <xvasprintf+0x1b6>
  103a80:	8b 45 ec             	mov    -0x14(%ebp),%eax
  103a83:	0f b6 00             	movzbl (%eax),%eax
  103a86:	3c 39                	cmp    $0x39,%al
  103a88:	7e ca                	jle    103a54 <xvasprintf+0x180>
  103a8a:	8b 45 ec             	mov    -0x14(%ebp),%eax
  103a8d:	0f b6 00             	movzbl (%eax),%eax
  103a90:	3c 6c                	cmp    $0x6c,%al
  103a92:	75 20                	jne    103ab4 <xvasprintf+0x1e0>
  103a94:	c7 45 dc 01 00 00 00 	movl   $0x1,-0x24(%ebp)
  103a9b:	83 45 ec 01          	addl   $0x1,-0x14(%ebp)
  103a9f:	8b 45 ec             	mov    -0x14(%ebp),%eax
  103aa2:	0f b6 00             	movzbl (%eax),%eax
  103aa5:	3c 6c                	cmp    $0x6c,%al
  103aa7:	75 0b                	jne    103ab4 <xvasprintf+0x1e0>
  103aa9:	c7 45 dc 02 00 00 00 	movl   $0x2,-0x24(%ebp)
  103ab0:	83 45 ec 01          	addl   $0x1,-0x14(%ebp)
  103ab4:	8b 45 ec             	mov    -0x14(%ebp),%eax
  103ab7:	0f b6 00             	movzbl (%eax),%eax
  103aba:	3c 6a                	cmp    $0x6a,%al
  103abc:	75 0b                	jne    103ac9 <xvasprintf+0x1f5>
  103abe:	c7 45 dc 02 00 00 00 	movl   $0x2,-0x24(%ebp)
  103ac5:	83 45 ec 01          	addl   $0x1,-0x14(%ebp)
  103ac9:	8b 45 ec             	mov    -0x14(%ebp),%eax
  103acc:	0f b6 00             	movzbl (%eax),%eax
  103acf:	3c 7a                	cmp    $0x7a,%al
  103ad1:	75 0b                	jne    103ade <xvasprintf+0x20a>
  103ad3:	c7 45 dc 01 00 00 00 	movl   $0x1,-0x24(%ebp)
  103ada:	83 45 ec 01          	addl   $0x1,-0x14(%ebp)
  103ade:	8b 45 ec             	mov    -0x14(%ebp),%eax
  103ae1:	0f b6 00             	movzbl (%eax),%eax
  103ae4:	3c 74                	cmp    $0x74,%al
  103ae6:	75 0b                	jne    103af3 <xvasprintf+0x21f>
  103ae8:	c7 45 dc 01 00 00 00 	movl   $0x1,-0x24(%ebp)
  103aef:	83 45 ec 01          	addl   $0x1,-0x14(%ebp)
  103af3:	8b 45 ec             	mov    -0x14(%ebp),%eax
  103af6:	0f b6 00             	movzbl (%eax),%eax
  103af9:	0f be c0             	movsbl %al,%eax
  103afc:	83 e8 25             	sub    $0x25,%eax
  103aff:	83 f8 53             	cmp    $0x53,%eax
  103b02:	0f 87 8c 09 00 00    	ja     104494 <xvasprintf+0xbc0>
  103b08:	8b 04 85 ec 6b 10 00 	mov    0x106bec(,%eax,4),%eax
  103b0f:	ff e0                	jmp    *%eax
  103b11:	c7 45 cc 00 00 00 00 	movl   $0x0,-0x34(%ebp)
  103b18:	83 7d dc 00          	cmpl   $0x0,-0x24(%ebp)
  103b1c:	74 08                	je     103b26 <xvasprintf+0x252>
  103b1e:	8b 45 f0             	mov    -0x10(%ebp),%eax
  103b21:	e9 a0 09 00 00       	jmp    1044c6 <xvasprintf+0xbf2>
  103b26:	8b 45 14             	mov    0x14(%ebp),%eax
  103b29:	8d 50 04             	lea    0x4(%eax),%edx
  103b2c:	89 55 14             	mov    %edx,0x14(%ebp)
  103b2f:	8b 00                	mov    (%eax),%eax
  103b31:	89 45 f4             	mov    %eax,-0xc(%ebp)
  103b34:	83 7d f4 00          	cmpl   $0x0,-0xc(%ebp)
  103b38:	75 07                	jne    103b41 <xvasprintf+0x26d>
  103b3a:	c7 45 f4 e2 6b 10 00 	movl   $0x106be2,-0xc(%ebp)
  103b41:	83 7d d0 00          	cmpl   $0x0,-0x30(%ebp)
  103b45:	0f 88 80 00 00 00    	js     103bcb <xvasprintf+0x2f7>
  103b4b:	eb 38                	jmp    103b85 <xvasprintf+0x2b1>
  103b4d:	8b 45 f4             	mov    -0xc(%ebp),%eax
  103b50:	8d 50 01             	lea    0x1(%eax),%edx
  103b53:	89 55 f4             	mov    %edx,-0xc(%ebp)
  103b56:	0f b6 00             	movzbl (%eax),%eax
  103b59:	0f be c0             	movsbl %al,%eax
  103b5c:	83 ec 08             	sub    $0x8,%esp
  103b5f:	50                   	push   %eax
  103b60:	ff 75 0c             	push   0xc(%ebp)
  103b63:	8b 45 08             	mov    0x8(%ebp),%eax
  103b66:	ff d0                	call   *%eax
  103b68:	83 c4 10             	add    $0x10,%esp
  103b6b:	83 45 f0 01          	addl   $0x1,-0x10(%ebp)
  103b6f:	83 45 cc 01          	addl   $0x1,-0x34(%ebp)
  103b73:	83 6d d0 01          	subl   $0x1,-0x30(%ebp)
  103b77:	83 7d e8 00          	cmpl   $0x0,-0x18(%ebp)
  103b7b:	74 08                	je     103b85 <xvasprintf+0x2b1>
  103b7d:	8b 45 cc             	mov    -0x34(%ebp),%eax
  103b80:	3b 45 e8             	cmp    -0x18(%ebp),%eax
  103b83:	74 52                	je     103bd7 <xvasprintf+0x303>
  103b85:	8b 45 f4             	mov    -0xc(%ebp),%eax
  103b88:	0f b6 00             	movzbl (%eax),%eax
  103b8b:	84 c0                	test   %al,%al
  103b8d:	74 66                	je     103bf5 <xvasprintf+0x321>
  103b8f:	83 7d d0 00          	cmpl   $0x0,-0x30(%ebp)
  103b93:	7f b8                	jg     103b4d <xvasprintf+0x279>
  103b95:	eb 5e                	jmp    103bf5 <xvasprintf+0x321>
  103b97:	8b 45 f4             	mov    -0xc(%ebp),%eax
  103b9a:	8d 50 01             	lea    0x1(%eax),%edx
  103b9d:	89 55 f4             	mov    %edx,-0xc(%ebp)
  103ba0:	0f b6 00             	movzbl (%eax),%eax
  103ba3:	0f be c0             	movsbl %al,%eax
  103ba6:	83 ec 08             	sub    $0x8,%esp
  103ba9:	50                   	push   %eax
  103baa:	ff 75 0c             	push   0xc(%ebp)
  103bad:	8b 45 08             	mov    0x8(%ebp),%eax
  103bb0:	ff d0                	call   *%eax
  103bb2:	83 c4 10             	add    $0x10,%esp
  103bb5:	83 45 f0 01          	addl   $0x1,-0x10(%ebp)
  103bb9:	83 45 cc 01          	addl   $0x1,-0x34(%ebp)
  103bbd:	83 7d e8 00          	cmpl   $0x0,-0x18(%ebp)
  103bc1:	74 08                	je     103bcb <xvasprintf+0x2f7>
  103bc3:	8b 45 cc             	mov    -0x34(%ebp),%eax
  103bc6:	3b 45 e8             	cmp    -0x18(%ebp),%eax
  103bc9:	74 0f                	je     103bda <xvasprintf+0x306>
  103bcb:	8b 45 f4             	mov    -0xc(%ebp),%eax
  103bce:	0f b6 00             	movzbl (%eax),%eax
  103bd1:	84 c0                	test   %al,%al
  103bd3:	75 c2                	jne    103b97 <xvasprintf+0x2c3>
  103bd5:	eb 1e                	jmp    103bf5 <xvasprintf+0x321>
  103bd7:	90                   	nop
  103bd8:	eb 1b                	jmp    103bf5 <xvasprintf+0x321>
  103bda:	90                   	nop
  103bdb:	eb 18                	jmp    103bf5 <xvasprintf+0x321>
  103bdd:	83 ec 08             	sub    $0x8,%esp
  103be0:	6a 20                	push   $0x20
  103be2:	ff 75 0c             	push   0xc(%ebp)
  103be5:	8b 45 08             	mov    0x8(%ebp),%eax
  103be8:	ff d0                	call   *%eax
  103bea:	83 c4 10             	add    $0x10,%esp
  103bed:	83 45 f0 01          	addl   $0x1,-0x10(%ebp)
  103bf1:	83 45 cc 01          	addl   $0x1,-0x34(%ebp)
  103bf5:	8b 45 cc             	mov    -0x34(%ebp),%eax
  103bf8:	3b 45 e8             	cmp    -0x18(%ebp),%eax
  103bfb:	72 e0                	jb     103bdd <xvasprintf+0x309>
  103bfd:	e9 af 08 00 00       	jmp    1044b1 <xvasprintf+0xbdd>
  103c02:	8b 45 14             	mov    0x14(%ebp),%eax
  103c05:	8d 50 04             	lea    0x4(%eax),%edx
  103c08:	89 55 14             	mov    %edx,0x14(%ebp)
  103c0b:	8b 00                	mov    (%eax),%eax
  103c0d:	0f be c0             	movsbl %al,%eax
  103c10:	83 ec 08             	sub    $0x8,%esp
  103c13:	50                   	push   %eax
  103c14:	ff 75 0c             	push   0xc(%ebp)
  103c17:	8b 45 08             	mov    0x8(%ebp),%eax
  103c1a:	ff d0                	call   *%eax
  103c1c:	83 c4 10             	add    $0x10,%esp
  103c1f:	83 45 f0 01          	addl   $0x1,-0x10(%ebp)
  103c23:	e9 89 08 00 00       	jmp    1044b1 <xvasprintf+0xbdd>
  103c28:	c7 45 d8 01 00 00 00 	movl   $0x1,-0x28(%ebp)
  103c2f:	83 7d dc 02          	cmpl   $0x2,-0x24(%ebp)
  103c33:	75 16                	jne    103c4b <xvasprintf+0x377>
  103c35:	8b 45 14             	mov    0x14(%ebp),%eax
  103c38:	8d 50 08             	lea    0x8(%eax),%edx
  103c3b:	89 55 14             	mov    %edx,0x14(%ebp)
  103c3e:	8b 50 04             	mov    0x4(%eax),%edx
  103c41:	8b 00                	mov    (%eax),%eax
  103c43:	89 45 c0             	mov    %eax,-0x40(%ebp)
  103c46:	89 55 c4             	mov    %edx,-0x3c(%ebp)
  103c49:	eb 32                	jmp    103c7d <xvasprintf+0x3a9>
  103c4b:	83 7d dc 01          	cmpl   $0x1,-0x24(%ebp)
  103c4f:	75 17                	jne    103c68 <xvasprintf+0x394>
  103c51:	8b 45 14             	mov    0x14(%ebp),%eax
  103c54:	8d 50 04             	lea    0x4(%eax),%edx
  103c57:	89 55 14             	mov    %edx,0x14(%ebp)
  103c5a:	8b 00                	mov    (%eax),%eax
  103c5c:	89 45 c0             	mov    %eax,-0x40(%ebp)
  103c5f:	c7 45 c4 00 00 00 00 	movl   $0x0,-0x3c(%ebp)
  103c66:	eb 15                	jmp    103c7d <xvasprintf+0x3a9>
  103c68:	8b 45 14             	mov    0x14(%ebp),%eax
  103c6b:	8d 50 04             	lea    0x4(%eax),%edx
  103c6e:	89 55 14             	mov    %edx,0x14(%ebp)
  103c71:	8b 00                	mov    (%eax),%eax
  103c73:	89 45 c0             	mov    %eax,-0x40(%ebp)
  103c76:	c7 45 c4 00 00 00 00 	movl   $0x0,-0x3c(%ebp)
  103c7d:	8b 45 ec             	mov    -0x14(%ebp),%eax
  103c80:	0f b6 00             	movzbl (%eax),%eax
  103c83:	0f be c0             	movsbl %al,%eax
  103c86:	83 e0 20             	and    $0x20,%eax
  103c89:	85 c0                	test   %eax,%eax
  103c8b:	0f 94 c0             	sete   %al
  103c8e:	0f b6 c0             	movzbl %al,%eax
  103c91:	83 ec 0c             	sub    $0xc,%esp
  103c94:	ff 75 e4             	push   -0x1c(%ebp)
  103c97:	50                   	push   %eax
  103c98:	ff 75 d8             	push   -0x28(%ebp)
  103c9b:	ff 75 e0             	push   -0x20(%ebp)
  103c9e:	ff 75 0c             	push   0xc(%ebp)
  103ca1:	ff 75 08             	push   0x8(%ebp)
  103ca4:	ff 75 e8             	push   -0x18(%ebp)
  103ca7:	ff 75 c4             	push   -0x3c(%ebp)
  103caa:	ff 75 c0             	push   -0x40(%ebp)
  103cad:	e8 ed f9 ff ff       	call   10369f <print_hex>
  103cb2:	83 c4 30             	add    $0x30,%esp
  103cb5:	01 45 f0             	add    %eax,-0x10(%ebp)
  103cb8:	e9 f4 07 00 00       	jmp    1044b1 <xvasprintf+0xbdd>
  103cbd:	83 7d dc 02          	cmpl   $0x2,-0x24(%ebp)
  103cc1:	75 16                	jne    103cd9 <xvasprintf+0x405>
  103cc3:	8b 45 14             	mov    0x14(%ebp),%eax
  103cc6:	8d 50 08             	lea    0x8(%eax),%edx
  103cc9:	89 55 14             	mov    %edx,0x14(%ebp)
  103ccc:	8b 50 04             	mov    0x4(%eax),%edx
  103ccf:	8b 00                	mov    (%eax),%eax
  103cd1:	89 45 b8             	mov    %eax,-0x48(%ebp)
  103cd4:	89 55 bc             	mov    %edx,-0x44(%ebp)
  103cd7:	eb 2c                	jmp    103d05 <xvasprintf+0x431>
  103cd9:	83 7d dc 01          	cmpl   $0x1,-0x24(%ebp)
  103cdd:	75 14                	jne    103cf3 <xvasprintf+0x41f>
  103cdf:	8b 45 14             	mov    0x14(%ebp),%eax
  103ce2:	8d 50 04             	lea    0x4(%eax),%edx
  103ce5:	89 55 14             	mov    %edx,0x14(%ebp)
  103ce8:	8b 00                	mov    (%eax),%eax
  103cea:	99                   	cltd   
  103ceb:	89 45 b8             	mov    %eax,-0x48(%ebp)
  103cee:	89 55 bc             	mov    %edx,-0x44(%ebp)
  103cf1:	eb 12                	jmp    103d05 <xvasprintf+0x431>
  103cf3:	8b 45 14             	mov    0x14(%ebp),%eax
  103cf6:	8d 50 04             	lea    0x4(%eax),%edx
  103cf9:	89 55 14             	mov    %edx,0x14(%ebp)
  103cfc:	8b 00                	mov    (%eax),%eax
  103cfe:	99                   	cltd   
  103cff:	89 45 b8             	mov    %eax,-0x48(%ebp)
  103d02:	89 55 bc             	mov    %edx,-0x44(%ebp)
  103d05:	83 7d bc 00          	cmpl   $0x0,-0x44(%ebp)
  103d09:	79 20                	jns    103d2b <xvasprintf+0x457>
  103d0b:	83 ec 08             	sub    $0x8,%esp
  103d0e:	6a 2d                	push   $0x2d
  103d10:	ff 75 0c             	push   0xc(%ebp)
  103d13:	8b 45 08             	mov    0x8(%ebp),%eax
  103d16:	ff d0                	call   *%eax
  103d18:	83 c4 10             	add    $0x10,%esp
  103d1b:	83 45 f0 01          	addl   $0x1,-0x10(%ebp)
  103d1f:	f7 5d b8             	negl   -0x48(%ebp)
  103d22:	83 55 bc 00          	adcl   $0x0,-0x44(%ebp)
  103d26:	f7 5d bc             	negl   -0x44(%ebp)
  103d29:	eb 2b                	jmp    103d56 <xvasprintf+0x482>
  103d2b:	83 7d d4 00          	cmpl   $0x0,-0x2c(%ebp)
  103d2f:	74 25                	je     103d56 <xvasprintf+0x482>
  103d31:	83 7d d4 02          	cmpl   $0x2,-0x2c(%ebp)
  103d35:	75 07                	jne    103d3e <xvasprintf+0x46a>
  103d37:	b8 20 00 00 00       	mov    $0x20,%eax
  103d3c:	eb 05                	jmp    103d43 <xvasprintf+0x46f>
  103d3e:	b8 2b 00 00 00       	mov    $0x2b,%eax
  103d43:	83 ec 08             	sub    $0x8,%esp
  103d46:	50                   	push   %eax
  103d47:	ff 75 0c             	push   0xc(%ebp)
  103d4a:	8b 45 08             	mov    0x8(%ebp),%eax
  103d4d:	ff d0                	call   *%eax
  103d4f:	83 c4 10             	add    $0x10,%esp
  103d52:	83 45 f0 01          	addl   $0x1,-0x10(%ebp)
  103d56:	8b 45 b8             	mov    -0x48(%ebp),%eax
  103d59:	8b 55 bc             	mov    -0x44(%ebp),%edx
  103d5c:	ff 75 d0             	push   -0x30(%ebp)
  103d5f:	ff 75 e4             	push   -0x1c(%ebp)
  103d62:	ff 75 e0             	push   -0x20(%ebp)
  103d65:	ff 75 0c             	push   0xc(%ebp)
  103d68:	ff 75 08             	push   0x8(%ebp)
  103d6b:	ff 75 e8             	push   -0x18(%ebp)
  103d6e:	52                   	push   %edx
  103d6f:	50                   	push   %eax
  103d70:	e8 14 f6 ff ff       	call   103389 <print_dec>
  103d75:	83 c4 20             	add    $0x20,%esp
  103d78:	01 45 f0             	add    %eax,-0x10(%ebp)
  103d7b:	e9 31 07 00 00       	jmp    1044b1 <xvasprintf+0xbdd>
  103d80:	83 7d dc 02          	cmpl   $0x2,-0x24(%ebp)
  103d84:	75 16                	jne    103d9c <xvasprintf+0x4c8>
  103d86:	8b 45 14             	mov    0x14(%ebp),%eax
  103d89:	8d 50 08             	lea    0x8(%eax),%edx
  103d8c:	89 55 14             	mov    %edx,0x14(%ebp)
  103d8f:	8b 50 04             	mov    0x4(%eax),%edx
  103d92:	8b 00                	mov    (%eax),%eax
  103d94:	89 45 b0             	mov    %eax,-0x50(%ebp)
  103d97:	89 55 b4             	mov    %edx,-0x4c(%ebp)
  103d9a:	eb 32                	jmp    103dce <xvasprintf+0x4fa>
  103d9c:	83 7d dc 01          	cmpl   $0x1,-0x24(%ebp)
  103da0:	75 17                	jne    103db9 <xvasprintf+0x4e5>
  103da2:	8b 45 14             	mov    0x14(%ebp),%eax
  103da5:	8d 50 04             	lea    0x4(%eax),%edx
  103da8:	89 55 14             	mov    %edx,0x14(%ebp)
  103dab:	8b 00                	mov    (%eax),%eax
  103dad:	89 45 b0             	mov    %eax,-0x50(%ebp)
  103db0:	c7 45 b4 00 00 00 00 	movl   $0x0,-0x4c(%ebp)
  103db7:	eb 15                	jmp    103dce <xvasprintf+0x4fa>
  103db9:	8b 45 14             	mov    0x14(%ebp),%eax
  103dbc:	8d 50 04             	lea    0x4(%eax),%edx
  103dbf:	89 55 14             	mov    %edx,0x14(%ebp)
  103dc2:	8b 00                	mov    (%eax),%eax
  103dc4:	89 45 b0             	mov    %eax,-0x50(%ebp)
  103dc7:	c7 45 b4 00 00 00 00 	movl   $0x0,-0x4c(%ebp)
  103dce:	ff 75 d0             	push   -0x30(%ebp)
  103dd1:	ff 75 e4             	push   -0x1c(%ebp)
  103dd4:	ff 75 e0             	push   -0x20(%ebp)
  103dd7:	ff 75 0c             	push   0xc(%ebp)
  103dda:	ff 75 08             	push   0x8(%ebp)
  103ddd:	ff 75 e8             	push   -0x18(%ebp)
  103de0:	ff 75 b4             	push   -0x4c(%ebp)
  103de3:	ff 75 b0             	push   -0x50(%ebp)
  103de6:	e8 9e f5 ff ff       	call   103389 <print_dec>
  103deb:	83 c4 20             	add    $0x20,%esp
  103dee:	01 45 f0             	add    %eax,-0x10(%ebp)
  103df1:	e9 bb 06 00 00       	jmp    1044b1 <xvasprintf+0xbdd>
  103df6:	83 7d d0 ff          	cmpl   $0xffffffff,-0x30(%ebp)
  103dfa:	75 07                	jne    103e03 <xvasprintf+0x52f>
  103dfc:	c7 45 d0 08 00 00 00 	movl   $0x8,-0x30(%ebp)
  103e03:	8b 45 14             	mov    0x14(%ebp),%eax
  103e06:	8d 50 08             	lea    0x8(%eax),%edx
  103e09:	89 55 14             	mov    %edx,0x14(%ebp)
  103e0c:	dd 00                	fldl   (%eax)
  103e0e:	dd 5d 80             	fstpl  -0x80(%ebp)
  103e11:	83 ec 04             	sub    $0x4,%esp
  103e14:	6a 08                	push   $0x8
  103e16:	8d 45 80             	lea    -0x80(%ebp),%eax
  103e19:	50                   	push   %eax
  103e1a:	8d 85 78 ff ff ff    	lea    -0x88(%ebp),%eax
  103e20:	50                   	push   %eax
  103e21:	e8 72 08 00 00       	call   104698 <memcpy>
  103e26:	83 c4 10             	add    $0x10,%esp
  103e29:	8b 85 78 ff ff ff    	mov    -0x88(%ebp),%eax
  103e2f:	8b 95 7c ff ff ff    	mov    -0x84(%ebp),%edx
  103e35:	89 d0                	mov    %edx,%eax
  103e37:	31 d2                	xor    %edx,%edx
  103e39:	c1 e8 14             	shr    $0x14,%eax
  103e3c:	25 ff 07 00 00       	and    $0x7ff,%eax
  103e41:	ba 00 00 00 00       	mov    $0x0,%edx
  103e46:	89 45 a0             	mov    %eax,-0x60(%ebp)
  103e49:	89 55 a4             	mov    %edx,-0x5c(%ebp)
  103e4c:	8b 85 78 ff ff ff    	mov    -0x88(%ebp),%eax
  103e52:	8b 95 7c ff ff ff    	mov    -0x84(%ebp),%edx
  103e58:	81 e2 ff ff 0f 00    	and    $0xfffff,%edx
  103e5e:	89 45 98             	mov    %eax,-0x68(%ebp)
  103e61:	89 55 9c             	mov    %edx,-0x64(%ebp)
  103e64:	8b 45 a0             	mov    -0x60(%ebp),%eax
  103e67:	35 ff 07 00 00       	xor    $0x7ff,%eax
  103e6c:	0b 45 a4             	or     -0x5c(%ebp),%eax
  103e6f:	0f 85 ae 00 00 00    	jne    103f23 <xvasprintf+0x64f>
  103e75:	8b 45 98             	mov    -0x68(%ebp),%eax
  103e78:	0b 45 9c             	or     -0x64(%ebp),%eax
  103e7b:	75 65                	jne    103ee2 <xvasprintf+0x60e>
  103e7d:	8b 85 78 ff ff ff    	mov    -0x88(%ebp),%eax
  103e83:	8b 95 7c ff ff ff    	mov    -0x84(%ebp),%edx
  103e89:	85 d2                	test   %edx,%edx
  103e8b:	79 14                	jns    103ea1 <xvasprintf+0x5cd>
  103e8d:	83 ec 08             	sub    $0x8,%esp
  103e90:	6a 2d                	push   $0x2d
  103e92:	ff 75 0c             	push   0xc(%ebp)
  103e95:	8b 45 08             	mov    0x8(%ebp),%eax
  103e98:	ff d0                	call   *%eax
  103e9a:	83 c4 10             	add    $0x10,%esp
  103e9d:	83 45 f0 01          	addl   $0x1,-0x10(%ebp)
  103ea1:	83 ec 08             	sub    $0x8,%esp
  103ea4:	6a 69                	push   $0x69
  103ea6:	ff 75 0c             	push   0xc(%ebp)
  103ea9:	8b 45 08             	mov    0x8(%ebp),%eax
  103eac:	ff d0                	call   *%eax
  103eae:	83 c4 10             	add    $0x10,%esp
  103eb1:	83 45 f0 01          	addl   $0x1,-0x10(%ebp)
  103eb5:	83 ec 08             	sub    $0x8,%esp
  103eb8:	6a 6e                	push   $0x6e
  103eba:	ff 75 0c             	push   0xc(%ebp)
  103ebd:	8b 45 08             	mov    0x8(%ebp),%eax
  103ec0:	ff d0                	call   *%eax
  103ec2:	83 c4 10             	add    $0x10,%esp
  103ec5:	83 45 f0 01          	addl   $0x1,-0x10(%ebp)
  103ec9:	83 ec 08             	sub    $0x8,%esp
  103ecc:	6a 66                	push   $0x66
  103ece:	ff 75 0c             	push   0xc(%ebp)
  103ed1:	8b 45 08             	mov    0x8(%ebp),%eax
  103ed4:	ff d0                	call   *%eax
  103ed6:	83 c4 10             	add    $0x10,%esp
  103ed9:	83 45 f0 01          	addl   $0x1,-0x10(%ebp)
  103edd:	e9 cf 05 00 00       	jmp    1044b1 <xvasprintf+0xbdd>
  103ee2:	83 ec 08             	sub    $0x8,%esp
  103ee5:	6a 6e                	push   $0x6e
  103ee7:	ff 75 0c             	push   0xc(%ebp)
  103eea:	8b 45 08             	mov    0x8(%ebp),%eax
  103eed:	ff d0                	call   *%eax
  103eef:	83 c4 10             	add    $0x10,%esp
  103ef2:	83 45 f0 01          	addl   $0x1,-0x10(%ebp)
  103ef6:	83 ec 08             	sub    $0x8,%esp
  103ef9:	6a 61                	push   $0x61
  103efb:	ff 75 0c             	push   0xc(%ebp)
  103efe:	8b 45 08             	mov    0x8(%ebp),%eax
  103f01:	ff d0                	call   *%eax
  103f03:	83 c4 10             	add    $0x10,%esp
  103f06:	83 45 f0 01          	addl   $0x1,-0x10(%ebp)
  103f0a:	83 ec 08             	sub    $0x8,%esp
  103f0d:	6a 6e                	push   $0x6e
  103f0f:	ff 75 0c             	push   0xc(%ebp)
  103f12:	8b 45 08             	mov    0x8(%ebp),%eax
  103f15:	ff d0                	call   *%eax
  103f17:	83 c4 10             	add    $0x10,%esp
  103f1a:	83 45 f0 01          	addl   $0x1,-0x10(%ebp)
  103f1e:	e9 8e 05 00 00       	jmp    1044b1 <xvasprintf+0xbdd>
  103f23:	8b 45 ec             	mov    -0x14(%ebp),%eax
  103f26:	0f b6 00             	movzbl (%eax),%eax
  103f29:	3c 67                	cmp    $0x67,%al
  103f2b:	74 0a                	je     103f37 <xvasprintf+0x663>
  103f2d:	8b 45 ec             	mov    -0x14(%ebp),%eax
  103f30:	0f b6 00             	movzbl (%eax),%eax
  103f33:	3c 47                	cmp    $0x47,%al
  103f35:	75 4d                	jne    103f84 <xvasprintf+0x6b0>
  103f37:	8b 45 a0             	mov    -0x60(%ebp),%eax
  103f3a:	0b 45 a4             	or     -0x5c(%ebp),%eax
  103f3d:	75 45                	jne    103f84 <xvasprintf+0x6b0>
  103f3f:	8b 45 98             	mov    -0x68(%ebp),%eax
  103f42:	0b 45 9c             	or     -0x64(%ebp),%eax
  103f45:	75 3d                	jne    103f84 <xvasprintf+0x6b0>
  103f47:	8b 85 78 ff ff ff    	mov    -0x88(%ebp),%eax
  103f4d:	8b 95 7c ff ff ff    	mov    -0x84(%ebp),%edx
  103f53:	85 d2                	test   %edx,%edx
  103f55:	79 14                	jns    103f6b <xvasprintf+0x697>
  103f57:	83 ec 08             	sub    $0x8,%esp
  103f5a:	6a 2d                	push   $0x2d
  103f5c:	ff 75 0c             	push   0xc(%ebp)
  103f5f:	8b 45 08             	mov    0x8(%ebp),%eax
  103f62:	ff d0                	call   *%eax
  103f64:	83 c4 10             	add    $0x10,%esp
  103f67:	83 45 f0 01          	addl   $0x1,-0x10(%ebp)
  103f6b:	83 ec 08             	sub    $0x8,%esp
  103f6e:	6a 30                	push   $0x30
  103f70:	ff 75 0c             	push   0xc(%ebp)
  103f73:	8b 45 08             	mov    0x8(%ebp),%eax
  103f76:	ff d0                	call   *%eax
  103f78:	83 c4 10             	add    $0x10,%esp
  103f7b:	83 45 f0 01          	addl   $0x1,-0x10(%ebp)
  103f7f:	e9 2d 05 00 00       	jmp    1044b1 <xvasprintf+0xbdd>
  103f84:	8b 85 78 ff ff ff    	mov    -0x88(%ebp),%eax
  103f8a:	8b 95 7c ff ff ff    	mov    -0x84(%ebp),%edx
  103f90:	89 d0                	mov    %edx,%eax
  103f92:	31 d2                	xor    %edx,%edx
  103f94:	c1 e8 1f             	shr    $0x1f,%eax
  103f97:	0f b6 c0             	movzbl %al,%eax
  103f9a:	89 45 94             	mov    %eax,-0x6c(%ebp)
  103f9d:	83 7d 94 00          	cmpl   $0x0,-0x6c(%ebp)
  103fa1:	74 1c                	je     103fbf <xvasprintf+0x6eb>
  103fa3:	83 ec 08             	sub    $0x8,%esp
  103fa6:	6a 2d                	push   $0x2d
  103fa8:	ff 75 0c             	push   0xc(%ebp)
  103fab:	8b 45 08             	mov    0x8(%ebp),%eax
  103fae:	ff d0                	call   *%eax
  103fb0:	83 c4 10             	add    $0x10,%esp
  103fb3:	83 45 f0 01          	addl   $0x1,-0x10(%ebp)
  103fb7:	dd 45 80             	fldl   -0x80(%ebp)
  103fba:	d9 e0                	fchs   
  103fbc:	dd 5d 80             	fstpl  -0x80(%ebp)
  103fbf:	dd 05 40 6d 10 00    	fldl   0x106d40
  103fc5:	dd 45 80             	fldl   -0x80(%ebp)
  103fc8:	db f1                	fcomi  %st(1),%st
  103fca:	dd d9                	fstp   %st(1)
  103fcc:	73 37                	jae    104005 <xvasprintf+0x731>
  103fce:	d9 bd 76 ff ff ff    	fnstcw -0x8a(%ebp)
  103fd4:	0f b7 85 76 ff ff ff 	movzwl -0x8a(%ebp),%eax
  103fdb:	80 cc 0c             	or     $0xc,%ah
  103fde:	66 89 85 74 ff ff ff 	mov    %ax,-0x8c(%ebp)
  103fe5:	d9 ad 74 ff ff ff    	fldcw  -0x8c(%ebp)
  103feb:	df bd 68 ff ff ff    	fistpll -0x98(%ebp)
  103ff1:	d9 ad 76 ff ff ff    	fldcw  -0x8a(%ebp)
  103ff7:	8b 85 68 ff ff ff    	mov    -0x98(%ebp),%eax
  103ffd:	8b 95 6c ff ff ff    	mov    -0x94(%ebp),%edx
  104003:	eb 43                	jmp    104048 <xvasprintf+0x774>
  104005:	dd 05 40 6d 10 00    	fldl   0x106d40
  10400b:	de e9                	fsubrp %st,%st(1)
  10400d:	d9 bd 76 ff ff ff    	fnstcw -0x8a(%ebp)
  104013:	0f b7 85 76 ff ff ff 	movzwl -0x8a(%ebp),%eax
  10401a:	80 cc 0c             	or     $0xc,%ah
  10401d:	66 89 85 74 ff ff ff 	mov    %ax,-0x8c(%ebp)
  104024:	d9 ad 74 ff ff ff    	fldcw  -0x8c(%ebp)
  10402a:	df bd 68 ff ff ff    	fistpll -0x98(%ebp)
  104030:	d9 ad 76 ff ff ff    	fldcw  -0x8a(%ebp)
  104036:	8b 85 68 ff ff ff    	mov    -0x98(%ebp),%eax
  10403c:	8b 95 6c ff ff ff    	mov    -0x94(%ebp),%edx
  104042:	81 f2 00 00 00 80    	xor    $0x80000000,%edx
  104048:	6a 01                	push   $0x1
  10404a:	ff 75 e4             	push   -0x1c(%ebp)
  10404d:	ff 75 e0             	push   -0x20(%ebp)
  104050:	ff 75 0c             	push   0xc(%ebp)
  104053:	ff 75 08             	push   0x8(%ebp)
  104056:	ff 75 e8             	push   -0x18(%ebp)
  104059:	52                   	push   %edx
  10405a:	50                   	push   %eax
  10405b:	e8 29 f3 ff ff       	call   103389 <print_dec>
  104060:	83 c4 20             	add    $0x20,%esp
  104063:	01 45 f0             	add    %eax,-0x10(%ebp)
  104066:	83 ec 08             	sub    $0x8,%esp
  104069:	6a 2e                	push   $0x2e
  10406b:	ff 75 0c             	push   0xc(%ebp)
  10406e:	8b 45 08             	mov    0x8(%ebp),%eax
  104071:	ff d0                	call   *%eax
  104073:	83 c4 10             	add    $0x10,%esp
  104076:	83 45 f0 01          	addl   $0x1,-0x10(%ebp)
  10407a:	c7 45 ac 00 00 00 00 	movl   $0x0,-0x54(%ebp)
  104081:	e9 d4 03 00 00       	jmp    10445a <xvasprintf+0xb86>
  104086:	dd 45 80             	fldl   -0x80(%ebp)
  104089:	dd 05 48 6d 10 00    	fldl   0x106d48
  10408f:	de c9                	fmulp  %st,%st(1)
  104091:	dd 05 40 6d 10 00    	fldl   0x106d40
  104097:	d9 c9                	fxch   %st(1)
  104099:	db f1                	fcomi  %st(1),%st
  10409b:	dd d9                	fstp   %st(1)
  10409d:	73 37                	jae    1040d6 <xvasprintf+0x802>
  10409f:	d9 bd 76 ff ff ff    	fnstcw -0x8a(%ebp)
  1040a5:	0f b7 85 76 ff ff ff 	movzwl -0x8a(%ebp),%eax
  1040ac:	80 cc 0c             	or     $0xc,%ah
  1040af:	66 89 85 74 ff ff ff 	mov    %ax,-0x8c(%ebp)
  1040b6:	d9 ad 74 ff ff ff    	fldcw  -0x8c(%ebp)
  1040bc:	df bd 68 ff ff ff    	fistpll -0x98(%ebp)
  1040c2:	d9 ad 76 ff ff ff    	fldcw  -0x8a(%ebp)
  1040c8:	8b 85 68 ff ff ff    	mov    -0x98(%ebp),%eax
  1040ce:	8b 95 6c ff ff ff    	mov    -0x94(%ebp),%edx
  1040d4:	eb 43                	jmp    104119 <xvasprintf+0x845>
  1040d6:	dd 05 40 6d 10 00    	fldl   0x106d40
  1040dc:	de e9                	fsubrp %st,%st(1)
  1040de:	d9 bd 76 ff ff ff    	fnstcw -0x8a(%ebp)
  1040e4:	0f b7 85 76 ff ff ff 	movzwl -0x8a(%ebp),%eax
  1040eb:	80 cc 0c             	or     $0xc,%ah
  1040ee:	66 89 85 74 ff ff ff 	mov    %ax,-0x8c(%ebp)
  1040f5:	d9 ad 74 ff ff ff    	fldcw  -0x8c(%ebp)
  1040fb:	df bd 68 ff ff ff    	fistpll -0x98(%ebp)
  104101:	d9 ad 76 ff ff ff    	fldcw  -0x8a(%ebp)
  104107:	8b 85 68 ff ff ff    	mov    -0x98(%ebp),%eax
  10410d:	8b 95 6c ff ff ff    	mov    -0x94(%ebp),%edx
  104113:	81 f2 00 00 00 80    	xor    $0x80000000,%edx
  104119:	6a 00                	push   $0x0
  10411b:	68 a0 86 01 00       	push   $0x186a0
  104120:	52                   	push   %edx
  104121:	50                   	push   %eax
  104122:	e8 09 16 00 00       	call   105730 <__umoddi3>
  104127:	83 c4 10             	add    $0x10,%esp
  10412a:	89 c1                	mov    %eax,%ecx
  10412c:	09 d1                	or     %edx,%ecx
  10412e:	75 0a                	jne    10413a <xvasprintf+0x866>
  104130:	83 7d ac 00          	cmpl   $0x0,-0x54(%ebp)
  104134:	0f 85 41 03 00 00    	jne    10447b <xvasprintf+0xba7>
  10413a:	dd 45 80             	fldl   -0x80(%ebp)
  10413d:	dd 05 40 6d 10 00    	fldl   0x106d40
  104143:	dd 45 80             	fldl   -0x80(%ebp)
  104146:	db f1                	fcomi  %st(1),%st
  104148:	dd d9                	fstp   %st(1)
  10414a:	73 2b                	jae    104177 <xvasprintf+0x8a3>
  10414c:	d9 bd 76 ff ff ff    	fnstcw -0x8a(%ebp)
  104152:	0f b7 85 76 ff ff ff 	movzwl -0x8a(%ebp),%eax
  104159:	80 cc 0c             	or     $0xc,%ah
  10415c:	66 89 85 74 ff ff ff 	mov    %ax,-0x8c(%ebp)
  104163:	d9 ad 74 ff ff ff    	fldcw  -0x8c(%ebp)
  104169:	df bd 68 ff ff ff    	fistpll -0x98(%ebp)
  10416f:	d9 ad 76 ff ff ff    	fldcw  -0x8a(%ebp)
  104175:	eb 3b                	jmp    1041b2 <xvasprintf+0x8de>
  104177:	dd 05 40 6d 10 00    	fldl   0x106d40
  10417d:	de e9                	fsubrp %st,%st(1)
  10417f:	d9 bd 76 ff ff ff    	fnstcw -0x8a(%ebp)
  104185:	0f b7 85 76 ff ff ff 	movzwl -0x8a(%ebp),%eax
  10418c:	80 cc 0c             	or     $0xc,%ah
  10418f:	66 89 85 74 ff ff ff 	mov    %ax,-0x8c(%ebp)
  104196:	d9 ad 74 ff ff ff    	fldcw  -0x8c(%ebp)
  10419c:	df bd 68 ff ff ff    	fistpll -0x98(%ebp)
  1041a2:	d9 ad 76 ff ff ff    	fldcw  -0x8a(%ebp)
  1041a8:	81 b5 6c ff ff ff 00 	xorl   $0x80000000,-0x94(%ebp)
  1041af:	00 00 80 
  1041b2:	df ad 68 ff ff ff    	fildll -0x98(%ebp)
  1041b8:	83 bd 6c ff ff ff 00 	cmpl   $0x0,-0x94(%ebp)
  1041bf:	79 08                	jns    1041c9 <xvasprintf+0x8f5>
  1041c1:	db 2d 50 6d 10 00    	fldt   0x106d50
  1041c7:	de c1                	faddp  %st,%st(1)
  1041c9:	dd 9d 68 ff ff ff    	fstpl  -0x98(%ebp)
  1041cf:	dd 85 68 ff ff ff    	fldl   -0x98(%ebp)
  1041d5:	de e9                	fsubrp %st,%st(1)
  1041d7:	dd 5d 80             	fstpl  -0x80(%ebp)
  1041da:	dd 45 80             	fldl   -0x80(%ebp)
  1041dd:	dd 05 60 6d 10 00    	fldl   0x106d60
  1041e3:	de c9                	fmulp  %st,%st(1)
  1041e5:	dd 5d 80             	fstpl  -0x80(%ebp)
  1041e8:	dd 45 80             	fldl   -0x80(%ebp)
  1041eb:	dd 05 40 6d 10 00    	fldl   0x106d40
  1041f1:	dd 45 80             	fldl   -0x80(%ebp)
  1041f4:	db f1                	fcomi  %st(1),%st
  1041f6:	dd d9                	fstp   %st(1)
  1041f8:	73 14                	jae    10420e <xvasprintf+0x93a>
  1041fa:	d9 ad 74 ff ff ff    	fldcw  -0x8c(%ebp)
  104200:	df bd 68 ff ff ff    	fistpll -0x98(%ebp)
  104206:	d9 ad 76 ff ff ff    	fldcw  -0x8a(%ebp)
  10420c:	eb 24                	jmp    104232 <xvasprintf+0x95e>
  10420e:	dd 05 40 6d 10 00    	fldl   0x106d40
  104214:	de e9                	fsubrp %st,%st(1)
  104216:	d9 ad 74 ff ff ff    	fldcw  -0x8c(%ebp)
  10421c:	df bd 68 ff ff ff    	fistpll -0x98(%ebp)
  104222:	d9 ad 76 ff ff ff    	fldcw  -0x8a(%ebp)
  104228:	81 b5 6c ff ff ff 00 	xorl   $0x80000000,-0x94(%ebp)
  10422f:	00 00 80 
  104232:	df ad 68 ff ff ff    	fildll -0x98(%ebp)
  104238:	83 bd 6c ff ff ff 00 	cmpl   $0x0,-0x94(%ebp)
  10423f:	79 08                	jns    104249 <xvasprintf+0x975>
  104241:	db 2d 50 6d 10 00    	fldt   0x106d50
  104247:	de c1                	faddp  %st,%st(1)
  104249:	dd 9d 68 ff ff ff    	fstpl  -0x98(%ebp)
  10424f:	dd 85 68 ff ff ff    	fldl   -0x98(%ebp)
  104255:	de e9                	fsubrp %st,%st(1)
  104257:	dd 05 68 6d 10 00    	fldl   0x106d68
  10425d:	de e9                	fsubrp %st,%st(1)
  10425f:	dd 5d 88             	fstpl  -0x78(%ebp)
  104262:	dd 45 88             	fldl   -0x78(%ebp)
  104265:	dd 05 70 6d 10 00    	fldl   0x106d70
  10426b:	df f1                	fcomip %st(1),%st
  10426d:	dd d8                	fstp   %st(0)
  10426f:	0f 86 5d 01 00 00    	jbe    1043d2 <xvasprintf+0xafe>
  104275:	dd 05 78 6d 10 00    	fldl   0x106d78
  10427b:	dd 45 88             	fldl   -0x78(%ebp)
  10427e:	df f1                	fcomip %st(1),%st
  104280:	dd d8                	fstp   %st(0)
  104282:	0f 86 4a 01 00 00    	jbe    1043d2 <xvasprintf+0xafe>
  104288:	dd 05 40 6d 10 00    	fldl   0x106d40
  10428e:	dd 45 80             	fldl   -0x80(%ebp)
  104291:	db f1                	fcomi  %st(1),%st
  104293:	dd d9                	fstp   %st(1)
  104295:	73 20                	jae    1042b7 <xvasprintf+0x9e3>
  104297:	d9 ad 74 ff ff ff    	fldcw  -0x8c(%ebp)
  10429d:	df bd 68 ff ff ff    	fistpll -0x98(%ebp)
  1042a3:	d9 ad 76 ff ff ff    	fldcw  -0x8a(%ebp)
  1042a9:	8b 85 68 ff ff ff    	mov    -0x98(%ebp),%eax
  1042af:	8b 95 6c ff ff ff    	mov    -0x94(%ebp),%edx
  1042b5:	eb 2c                	jmp    1042e3 <xvasprintf+0xa0f>
  1042b7:	dd 05 40 6d 10 00    	fldl   0x106d40
  1042bd:	de e9                	fsubrp %st,%st(1)
  1042bf:	d9 ad 74 ff ff ff    	fldcw  -0x8c(%ebp)
  1042c5:	df bd 68 ff ff ff    	fistpll -0x98(%ebp)
  1042cb:	d9 ad 76 ff ff ff    	fldcw  -0x8a(%ebp)
  1042d1:	8b 85 68 ff ff ff    	mov    -0x98(%ebp),%eax
  1042d7:	8b 95 6c ff ff ff    	mov    -0x94(%ebp),%edx
  1042dd:	81 f2 00 00 00 80    	xor    $0x80000000,%edx
  1042e3:	6a 00                	push   $0x0
  1042e5:	6a 0a                	push   $0xa
  1042e7:	52                   	push   %edx
  1042e8:	50                   	push   %eax
  1042e9:	e8 42 14 00 00       	call   105730 <__umoddi3>
  1042ee:	83 c4 10             	add    $0x10,%esp
  1042f1:	89 c1                	mov    %eax,%ecx
  1042f3:	83 f1 09             	xor    $0x9,%ecx
  1042f6:	09 d1                	or     %edx,%ecx
  1042f8:	0f 84 bd 00 00 00    	je     1043bb <xvasprintf+0xae7>
  1042fe:	dd 05 40 6d 10 00    	fldl   0x106d40
  104304:	dd 45 80             	fldl   -0x80(%ebp)
  104307:	db f1                	fcomi  %st(1),%st
  104309:	dd d9                	fstp   %st(1)
  10430b:	73 37                	jae    104344 <xvasprintf+0xa70>
  10430d:	d9 bd 76 ff ff ff    	fnstcw -0x8a(%ebp)
  104313:	0f b7 85 76 ff ff ff 	movzwl -0x8a(%ebp),%eax
  10431a:	80 cc 0c             	or     $0xc,%ah
  10431d:	66 89 85 74 ff ff ff 	mov    %ax,-0x8c(%ebp)
  104324:	d9 ad 74 ff ff ff    	fldcw  -0x8c(%ebp)
  10432a:	df bd 68 ff ff ff    	fistpll -0x98(%ebp)
  104330:	d9 ad 76 ff ff ff    	fldcw  -0x8a(%ebp)
  104336:	8b 85 68 ff ff ff    	mov    -0x98(%ebp),%eax
  10433c:	8b 95 6c ff ff ff    	mov    -0x94(%ebp),%edx
  104342:	eb 43                	jmp    104387 <xvasprintf+0xab3>
  104344:	dd 05 40 6d 10 00    	fldl   0x106d40
  10434a:	de e9                	fsubrp %st,%st(1)
  10434c:	d9 bd 76 ff ff ff    	fnstcw -0x8a(%ebp)
  104352:	0f b7 85 76 ff ff ff 	movzwl -0x8a(%ebp),%eax
  104359:	80 cc 0c             	or     $0xc,%ah
  10435c:	66 89 85 74 ff ff ff 	mov    %ax,-0x8c(%ebp)
  104363:	d9 ad 74 ff ff ff    	fldcw  -0x8c(%ebp)
  104369:	df bd 68 ff ff ff    	fistpll -0x98(%ebp)
  10436f:	d9 ad 76 ff ff ff    	fldcw  -0x8a(%ebp)
  104375:	8b 85 68 ff ff ff    	mov    -0x98(%ebp),%eax
  10437b:	8b 95 6c ff ff ff    	mov    -0x94(%ebp),%edx
  104381:	81 f2 00 00 00 80    	xor    $0x80000000,%edx
  104387:	6a 00                	push   $0x0
  104389:	6a 0a                	push   $0xa
  10438b:	52                   	push   %edx
  10438c:	50                   	push   %eax
  10438d:	e8 9e 13 00 00       	call   105730 <__umoddi3>
  104392:	83 c4 10             	add    $0x10,%esp
  104395:	83 c0 01             	add    $0x1,%eax
  104398:	83 d2 00             	adc    $0x0,%edx
  10439b:	6a 01                	push   $0x1
  10439d:	6a 00                	push   $0x0
  10439f:	6a 00                	push   $0x0
  1043a1:	ff 75 0c             	push   0xc(%ebp)
  1043a4:	ff 75 08             	push   0x8(%ebp)
  1043a7:	6a 00                	push   $0x0
  1043a9:	52                   	push   %edx
  1043aa:	50                   	push   %eax
  1043ab:	e8 d9 ef ff ff       	call   103389 <print_dec>
  1043b0:	83 c4 20             	add    $0x20,%esp
  1043b3:	01 45 f0             	add    %eax,-0x10(%ebp)
  1043b6:	e9 c1 00 00 00       	jmp    10447c <xvasprintf+0xba8>
  1043bb:	d9 bd 76 ff ff ff    	fnstcw -0x8a(%ebp)
  1043c1:	0f b7 85 76 ff ff ff 	movzwl -0x8a(%ebp),%eax
  1043c8:	80 cc 0c             	or     $0xc,%ah
  1043cb:	66 89 85 74 ff ff ff 	mov    %ax,-0x8c(%ebp)
  1043d2:	dd 05 40 6d 10 00    	fldl   0x106d40
  1043d8:	dd 45 80             	fldl   -0x80(%ebp)
  1043db:	db f1                	fcomi  %st(1),%st
  1043dd:	dd d9                	fstp   %st(1)
  1043df:	73 20                	jae    104401 <xvasprintf+0xb2d>
  1043e1:	d9 ad 74 ff ff ff    	fldcw  -0x8c(%ebp)
  1043e7:	df bd 68 ff ff ff    	fistpll -0x98(%ebp)
  1043ed:	d9 ad 76 ff ff ff    	fldcw  -0x8a(%ebp)
  1043f3:	8b 85 68 ff ff ff    	mov    -0x98(%ebp),%eax
  1043f9:	8b 95 6c ff ff ff    	mov    -0x94(%ebp),%edx
  1043ff:	eb 2c                	jmp    10442d <xvasprintf+0xb59>
  104401:	dd 05 40 6d 10 00    	fldl   0x106d40
  104407:	de e9                	fsubrp %st,%st(1)
  104409:	d9 ad 74 ff ff ff    	fldcw  -0x8c(%ebp)
  10440f:	df bd 68 ff ff ff    	fistpll -0x98(%ebp)
  104415:	d9 ad 76 ff ff ff    	fldcw  -0x8a(%ebp)
  10441b:	8b 85 68 ff ff ff    	mov    -0x98(%ebp),%eax
  104421:	8b 95 6c ff ff ff    	mov    -0x94(%ebp),%edx
  104427:	81 f2 00 00 00 80    	xor    $0x80000000,%edx
  10442d:	6a 00                	push   $0x0
  10442f:	6a 0a                	push   $0xa
  104431:	52                   	push   %edx
  104432:	50                   	push   %eax
  104433:	e8 f8 12 00 00       	call   105730 <__umoddi3>
  104438:	83 c4 10             	add    $0x10,%esp
  10443b:	6a 01                	push   $0x1
  10443d:	6a 00                	push   $0x0
  10443f:	6a 00                	push   $0x0
  104441:	ff 75 0c             	push   0xc(%ebp)
  104444:	ff 75 08             	push   0x8(%ebp)
  104447:	6a 00                	push   $0x0
  104449:	52                   	push   %edx
  10444a:	50                   	push   %eax
  10444b:	e8 39 ef ff ff       	call   103389 <print_dec>
  104450:	83 c4 20             	add    $0x20,%esp
  104453:	01 45 f0             	add    %eax,-0x10(%ebp)
  104456:	83 45 ac 01          	addl   $0x1,-0x54(%ebp)
  10445a:	83 7d d0 00          	cmpl   $0x0,-0x30(%ebp)
  10445e:	78 0b                	js     10446b <xvasprintf+0xb97>
  104460:	83 7d d0 0f          	cmpl   $0xf,-0x30(%ebp)
  104464:	7f 05                	jg     10446b <xvasprintf+0xb97>
  104466:	8b 45 d0             	mov    -0x30(%ebp),%eax
  104469:	eb 05                	jmp    104470 <xvasprintf+0xb9c>
  10446b:	b8 10 00 00 00       	mov    $0x10,%eax
  104470:	3b 45 ac             	cmp    -0x54(%ebp),%eax
  104473:	0f 8f 0d fc ff ff    	jg     104086 <xvasprintf+0x7b2>
  104479:	eb 36                	jmp    1044b1 <xvasprintf+0xbdd>
  10447b:	90                   	nop
  10447c:	eb 33                	jmp    1044b1 <xvasprintf+0xbdd>
  10447e:	83 ec 08             	sub    $0x8,%esp
  104481:	6a 25                	push   $0x25
  104483:	ff 75 0c             	push   0xc(%ebp)
  104486:	8b 45 08             	mov    0x8(%ebp),%eax
  104489:	ff d0                	call   *%eax
  10448b:	83 c4 10             	add    $0x10,%esp
  10448e:	83 45 f0 01          	addl   $0x1,-0x10(%ebp)
  104492:	eb 1d                	jmp    1044b1 <xvasprintf+0xbdd>
  104494:	8b 45 ec             	mov    -0x14(%ebp),%eax
  104497:	0f b6 00             	movzbl (%eax),%eax
  10449a:	0f be c0             	movsbl %al,%eax
  10449d:	83 ec 08             	sub    $0x8,%esp
  1044a0:	50                   	push   %eax
  1044a1:	ff 75 0c             	push   0xc(%ebp)
  1044a4:	8b 45 08             	mov    0x8(%ebp),%eax
  1044a7:	ff d0                	call   *%eax
  1044a9:	83 c4 10             	add    $0x10,%esp
  1044ac:	83 45 f0 01          	addl   $0x1,-0x10(%ebp)
  1044b0:	90                   	nop
  1044b1:	83 45 ec 01          	addl   $0x1,-0x14(%ebp)
  1044b5:	8b 45 ec             	mov    -0x14(%ebp),%eax
  1044b8:	0f b6 00             	movzbl (%eax),%eax
  1044bb:	84 c0                	test   %al,%al
  1044bd:	0f 85 2c f4 ff ff    	jne    1038ef <xvasprintf+0x1b>
  1044c3:	8b 45 f0             	mov    -0x10(%ebp),%eax
  1044c6:	c9                   	leave  
  1044c7:	c3                   	ret    

001044c8 <cb_sprintf>:
  1044c8:	55                   	push   %ebp
  1044c9:	89 e5                	mov    %esp,%ebp
  1044cb:	83 ec 14             	sub    $0x14,%esp
  1044ce:	8b 45 0c             	mov    0xc(%ebp),%eax
  1044d1:	88 45 ec             	mov    %al,-0x14(%ebp)
  1044d4:	8b 45 08             	mov    0x8(%ebp),%eax
  1044d7:	89 45 fc             	mov    %eax,-0x4(%ebp)
  1044da:	8b 45 fc             	mov    -0x4(%ebp),%eax
  1044dd:	8b 40 04             	mov    0x4(%eax),%eax
  1044e0:	8b 55 fc             	mov    -0x4(%ebp),%edx
  1044e3:	8b 52 08             	mov    0x8(%edx),%edx
  1044e6:	83 c2 01             	add    $0x1,%edx
  1044e9:	39 c2                	cmp    %eax,%edx
  1044eb:	73 42                	jae    10452f <cb_sprintf+0x67>
  1044ed:	8b 45 fc             	mov    -0x4(%ebp),%eax
  1044f0:	8b 10                	mov    (%eax),%edx
  1044f2:	8b 45 fc             	mov    -0x4(%ebp),%eax
  1044f5:	8b 40 08             	mov    0x8(%eax),%eax
  1044f8:	01 c2                	add    %eax,%edx
  1044fa:	0f b6 45 ec          	movzbl -0x14(%ebp),%eax
  1044fe:	88 02                	mov    %al,(%edx)
  104500:	8b 45 fc             	mov    -0x4(%ebp),%eax
  104503:	8b 40 08             	mov    0x8(%eax),%eax
  104506:	8d 50 01             	lea    0x1(%eax),%edx
  104509:	8b 45 fc             	mov    -0x4(%ebp),%eax
  10450c:	89 50 08             	mov    %edx,0x8(%eax)
  10450f:	8b 45 fc             	mov    -0x4(%ebp),%eax
  104512:	8b 50 08             	mov    0x8(%eax),%edx
  104515:	8b 45 fc             	mov    -0x4(%ebp),%eax
  104518:	8b 40 04             	mov    0x4(%eax),%eax
  10451b:	39 c2                	cmp    %eax,%edx
  10451d:	73 10                	jae    10452f <cb_sprintf+0x67>
  10451f:	8b 45 fc             	mov    -0x4(%ebp),%eax
  104522:	8b 10                	mov    (%eax),%edx
  104524:	8b 45 fc             	mov    -0x4(%ebp),%eax
  104527:	8b 40 08             	mov    0x8(%eax),%eax
  10452a:	01 d0                	add    %edx,%eax
  10452c:	c6 00 00             	movb   $0x0,(%eax)
  10452f:	b8 00 00 00 00       	mov    $0x0,%eax
  104534:	c9                   	leave  
  104535:	c3                   	ret    

00104536 <vsnprintf>:
  104536:	55                   	push   %ebp
  104537:	89 e5                	mov    %esp,%ebp
  104539:	83 ec 18             	sub    $0x18,%esp
  10453c:	8b 45 08             	mov    0x8(%ebp),%eax
  10453f:	89 45 e8             	mov    %eax,-0x18(%ebp)
  104542:	8b 45 0c             	mov    0xc(%ebp),%eax
  104545:	89 45 ec             	mov    %eax,-0x14(%ebp)
  104548:	c7 45 f0 00 00 00 00 	movl   $0x0,-0x10(%ebp)
  10454f:	ff 75 14             	push   0x14(%ebp)
  104552:	ff 75 10             	push   0x10(%ebp)
  104555:	8d 45 e8             	lea    -0x18(%ebp),%eax
  104558:	50                   	push   %eax
  104559:	68 c8 44 10 00       	push   $0x1044c8
  10455e:	e8 71 f3 ff ff       	call   1038d4 <xvasprintf>
  104563:	83 c4 10             	add    $0x10,%esp
  104566:	89 45 f4             	mov    %eax,-0xc(%ebp)
  104569:	83 ec 08             	sub    $0x8,%esp
  10456c:	6a 00                	push   $0x0
  10456e:	8d 45 e8             	lea    -0x18(%ebp),%eax
  104571:	50                   	push   %eax
  104572:	e8 51 ff ff ff       	call   1044c8 <cb_sprintf>
  104577:	83 c4 10             	add    $0x10,%esp
  10457a:	8b 45 f4             	mov    -0xc(%ebp),%eax
  10457d:	c9                   	leave  
  10457e:	c3                   	ret    

0010457f <snprintf>:
  10457f:	55                   	push   %ebp
  104580:	89 e5                	mov    %esp,%ebp
  104582:	83 ec 28             	sub    $0x28,%esp
  104585:	8b 45 08             	mov    0x8(%ebp),%eax
  104588:	89 45 e8             	mov    %eax,-0x18(%ebp)
  10458b:	8b 45 0c             	mov    0xc(%ebp),%eax
  10458e:	89 45 ec             	mov    %eax,-0x14(%ebp)
  104591:	c7 45 f0 00 00 00 00 	movl   $0x0,-0x10(%ebp)
  104598:	8d 45 14             	lea    0x14(%ebp),%eax
  10459b:	89 45 e4             	mov    %eax,-0x1c(%ebp)
  10459e:	8b 45 e4             	mov    -0x1c(%ebp),%eax
  1045a1:	50                   	push   %eax
  1045a2:	ff 75 10             	push   0x10(%ebp)
  1045a5:	8d 45 e8             	lea    -0x18(%ebp),%eax
  1045a8:	50                   	push   %eax
  1045a9:	68 c8 44 10 00       	push   $0x1044c8
  1045ae:	e8 21 f3 ff ff       	call   1038d4 <xvasprintf>
  1045b3:	83 c4 10             	add    $0x10,%esp
  1045b6:	89 45 f4             	mov    %eax,-0xc(%ebp)
  1045b9:	83 ec 08             	sub    $0x8,%esp
  1045bc:	6a 00                	push   $0x0
  1045be:	8d 45 e8             	lea    -0x18(%ebp),%eax
  1045c1:	50                   	push   %eax
  1045c2:	e8 01 ff ff ff       	call   1044c8 <cb_sprintf>
  1045c7:	83 c4 10             	add    $0x10,%esp
  1045ca:	8b 45 f4             	mov    -0xc(%ebp),%eax
  1045cd:	c9                   	leave  
  1045ce:	c3                   	ret    

001045cf <cb_sxprintf>:
  1045cf:	55                   	push   %ebp
  1045d0:	89 e5                	mov    %esp,%ebp
  1045d2:	83 ec 14             	sub    $0x14,%esp
  1045d5:	8b 45 0c             	mov    0xc(%ebp),%eax
  1045d8:	88 45 ec             	mov    %al,-0x14(%ebp)
  1045db:	8b 45 08             	mov    0x8(%ebp),%eax
  1045de:	89 45 fc             	mov    %eax,-0x4(%ebp)
  1045e1:	8b 45 fc             	mov    -0x4(%ebp),%eax
  1045e4:	8b 10                	mov    (%eax),%edx
  1045e6:	8b 45 fc             	mov    -0x4(%ebp),%eax
  1045e9:	8b 40 08             	mov    0x8(%eax),%eax
  1045ec:	01 c2                	add    %eax,%edx
  1045ee:	0f b6 45 ec          	movzbl -0x14(%ebp),%eax
  1045f2:	88 02                	mov    %al,(%edx)
  1045f4:	8b 45 fc             	mov    -0x4(%ebp),%eax
  1045f7:	8b 40 08             	mov    0x8(%eax),%eax
  1045fa:	8d 50 01             	lea    0x1(%eax),%edx
  1045fd:	8b 45 fc             	mov    -0x4(%ebp),%eax
  104600:	89 50 08             	mov    %edx,0x8(%eax)
  104603:	b8 00 00 00 00       	mov    $0x0,%eax
  104608:	c9                   	leave  
  104609:	c3                   	ret    

0010460a <sprintf>:
  10460a:	55                   	push   %ebp
  10460b:	89 e5                	mov    %esp,%ebp
  10460d:	83 ec 28             	sub    $0x28,%esp
  104610:	8b 45 08             	mov    0x8(%ebp),%eax
  104613:	89 45 e8             	mov    %eax,-0x18(%ebp)
  104616:	c7 45 ec 00 00 00 00 	movl   $0x0,-0x14(%ebp)
  10461d:	c7 45 f0 00 00 00 00 	movl   $0x0,-0x10(%ebp)
  104624:	8d 45 10             	lea    0x10(%ebp),%eax
  104627:	89 45 e4             	mov    %eax,-0x1c(%ebp)
  10462a:	8b 45 e4             	mov    -0x1c(%ebp),%eax
  10462d:	50                   	push   %eax
  10462e:	ff 75 0c             	push   0xc(%ebp)
  104631:	8d 45 e8             	lea    -0x18(%ebp),%eax
  104634:	50                   	push   %eax
  104635:	68 cf 45 10 00       	push   $0x1045cf
  10463a:	e8 95 f2 ff ff       	call   1038d4 <xvasprintf>
  10463f:	83 c4 10             	add    $0x10,%esp
  104642:	89 45 f4             	mov    %eax,-0xc(%ebp)
  104645:	83 ec 08             	sub    $0x8,%esp
  104648:	6a 00                	push   $0x0
  10464a:	8d 45 e8             	lea    -0x18(%ebp),%eax
  10464d:	50                   	push   %eax
  10464e:	e8 7c ff ff ff       	call   1045cf <cb_sxprintf>
  104653:	83 c4 10             	add    $0x10,%esp
  104656:	8b 45 f4             	mov    -0xc(%ebp),%eax
  104659:	c9                   	leave  
  10465a:	c3                   	ret    

0010465b <cb_printf>:
  10465b:	55                   	push   %ebp
  10465c:	89 e5                	mov    %esp,%ebp
  10465e:	83 ec 04             	sub    $0x4,%esp
  104661:	8b 45 0c             	mov    0xc(%ebp),%eax
  104664:	88 45 fc             	mov    %al,-0x4(%ebp)
  104667:	b8 00 00 00 00       	mov    $0x0,%eax
  10466c:	c9                   	leave  
  10466d:	c3                   	ret    

0010466e <printf>:
  10466e:	55                   	push   %ebp
  10466f:	89 e5                	mov    %esp,%ebp
  104671:	83 ec 18             	sub    $0x18,%esp
  104674:	8d 45 0c             	lea    0xc(%ebp),%eax
  104677:	89 45 f0             	mov    %eax,-0x10(%ebp)
  10467a:	8b 45 f0             	mov    -0x10(%ebp),%eax
  10467d:	50                   	push   %eax
  10467e:	ff 75 08             	push   0x8(%ebp)
  104681:	6a 00                	push   $0x0
  104683:	68 5b 46 10 00       	push   $0x10465b
  104688:	e8 47 f2 ff ff       	call   1038d4 <xvasprintf>
  10468d:	83 c4 10             	add    $0x10,%esp
  104690:	89 45 f4             	mov    %eax,-0xc(%ebp)
  104693:	8b 45 f4             	mov    -0xc(%ebp),%eax
  104696:	c9                   	leave  
  104697:	c3                   	ret    

00104698 <memcpy>:
  104698:	55                   	push   %ebp
  104699:	89 e5                	mov    %esp,%ebp
  10469b:	83 ec 10             	sub    $0x10,%esp
  10469e:	8b 45 08             	mov    0x8(%ebp),%eax
  1046a1:	89 45 f8             	mov    %eax,-0x8(%ebp)
  1046a4:	8b 45 0c             	mov    0xc(%ebp),%eax
  1046a7:	89 45 f4             	mov    %eax,-0xc(%ebp)
  1046aa:	c7 45 fc 00 00 00 00 	movl   $0x0,-0x4(%ebp)
  1046b1:	eb 19                	jmp    1046cc <memcpy+0x34>
  1046b3:	8b 55 f4             	mov    -0xc(%ebp),%edx
  1046b6:	8b 45 fc             	mov    -0x4(%ebp),%eax
  1046b9:	01 d0                	add    %edx,%eax
  1046bb:	8b 4d f8             	mov    -0x8(%ebp),%ecx
  1046be:	8b 55 fc             	mov    -0x4(%ebp),%edx
  1046c1:	01 ca                	add    %ecx,%edx
  1046c3:	0f b6 00             	movzbl (%eax),%eax
  1046c6:	88 02                	mov    %al,(%edx)
  1046c8:	83 45 fc 01          	addl   $0x1,-0x4(%ebp)
  1046cc:	8b 45 fc             	mov    -0x4(%ebp),%eax
  1046cf:	3b 45 10             	cmp    0x10(%ebp),%eax
  1046d2:	72 df                	jb     1046b3 <memcpy+0x1b>
  1046d4:	8b 45 08             	mov    0x8(%ebp),%eax
  1046d7:	c9                   	leave  
  1046d8:	c3                   	ret    

001046d9 <memset>:
  1046d9:	55                   	push   %ebp
  1046da:	89 e5                	mov    %esp,%ebp
  1046dc:	83 ec 10             	sub    $0x10,%esp
  1046df:	c7 45 fc 00 00 00 00 	movl   $0x0,-0x4(%ebp)
  1046e6:	eb 11                	jmp    1046f9 <memset+0x20>
  1046e8:	8b 55 08             	mov    0x8(%ebp),%edx
  1046eb:	8b 45 fc             	mov    -0x4(%ebp),%eax
  1046ee:	01 d0                	add    %edx,%eax
  1046f0:	8b 55 0c             	mov    0xc(%ebp),%edx
  1046f3:	88 10                	mov    %dl,(%eax)
  1046f5:	83 45 fc 01          	addl   $0x1,-0x4(%ebp)
  1046f9:	8b 45 fc             	mov    -0x4(%ebp),%eax
  1046fc:	3b 45 10             	cmp    0x10(%ebp),%eax
  1046ff:	72 e7                	jb     1046e8 <memset+0xf>
  104701:	8b 45 08             	mov    0x8(%ebp),%eax
  104704:	c9                   	leave  
  104705:	c3                   	ret    

00104706 <strncpy>:
  104706:	55                   	push   %ebp
  104707:	89 e5                	mov    %esp,%ebp
  104709:	83 ec 10             	sub    $0x10,%esp
  10470c:	8b 45 08             	mov    0x8(%ebp),%eax
  10470f:	89 45 fc             	mov    %eax,-0x4(%ebp)
  104712:	eb 13                	jmp    104727 <strncpy+0x21>
  104714:	8b 45 0c             	mov    0xc(%ebp),%eax
  104717:	0f b6 10             	movzbl (%eax),%edx
  10471a:	8b 45 08             	mov    0x8(%ebp),%eax
  10471d:	88 10                	mov    %dl,(%eax)
  10471f:	83 45 08 01          	addl   $0x1,0x8(%ebp)
  104723:	83 45 0c 01          	addl   $0x1,0xc(%ebp)
  104727:	8b 45 10             	mov    0x10(%ebp),%eax
  10472a:	8d 50 ff             	lea    -0x1(%eax),%edx
  10472d:	89 55 10             	mov    %edx,0x10(%ebp)
  104730:	85 c0                	test   %eax,%eax
  104732:	75 e0                	jne    104714 <strncpy+0xe>
  104734:	8b 45 fc             	mov    -0x4(%ebp),%eax
  104737:	c9                   	leave  
  104738:	c3                   	ret    

00104739 <strcpy>:
  104739:	55                   	push   %ebp
  10473a:	89 e5                	mov    %esp,%ebp
  10473c:	83 ec 10             	sub    $0x10,%esp
  10473f:	8b 45 08             	mov    0x8(%ebp),%eax
  104742:	89 45 fc             	mov    %eax,-0x4(%ebp)
  104745:	eb 08                	jmp    10474f <strcpy+0x16>
  104747:	83 45 08 01          	addl   $0x1,0x8(%ebp)
  10474b:	83 45 0c 01          	addl   $0x1,0xc(%ebp)
  10474f:	8b 45 0c             	mov    0xc(%ebp),%eax
  104752:	0f b6 10             	movzbl (%eax),%edx
  104755:	8b 45 08             	mov    0x8(%ebp),%eax
  104758:	88 10                	mov    %dl,(%eax)
  10475a:	8b 45 08             	mov    0x8(%ebp),%eax
  10475d:	0f b6 00             	movzbl (%eax),%eax
  104760:	84 c0                	test   %al,%al
  104762:	75 e3                	jne    104747 <strcpy+0xe>
  104764:	8b 45 fc             	mov    -0x4(%ebp),%eax
  104767:	c9                   	leave  
  104768:	c3                   	ret    

00104769 <strlen>:
  104769:	55                   	push   %ebp
  10476a:	89 e5                	mov    %esp,%ebp
  10476c:	83 ec 10             	sub    $0x10,%esp
  10476f:	c7 45 fc 00 00 00 00 	movl   $0x0,-0x4(%ebp)
  104776:	eb 04                	jmp    10477c <strlen+0x13>
  104778:	83 45 fc 01          	addl   $0x1,-0x4(%ebp)
  10477c:	8b 45 08             	mov    0x8(%ebp),%eax
  10477f:	8d 50 01             	lea    0x1(%eax),%edx
  104782:	89 55 08             	mov    %edx,0x8(%ebp)
  104785:	0f b6 00             	movzbl (%eax),%eax
  104788:	84 c0                	test   %al,%al
  10478a:	75 ec                	jne    104778 <strlen+0xf>
  10478c:	8b 45 fc             	mov    -0x4(%ebp),%eax
  10478f:	c9                   	leave  
  104790:	c3                   	ret    

00104791 <is_year_leap>:
  104791:	55                   	push   %ebp
  104792:	89 e5                	mov    %esp,%ebp
  104794:	8b 45 08             	mov    0x8(%ebp),%eax
  104797:	83 e0 03             	and    $0x3,%eax
  10479a:	85 c0                	test   %eax,%eax
  10479c:	75 50                	jne    1047ee <is_year_leap+0x5d>
  10479e:	8b 4d 08             	mov    0x8(%ebp),%ecx
  1047a1:	ba 1f 85 eb 51       	mov    $0x51eb851f,%edx
  1047a6:	89 c8                	mov    %ecx,%eax
  1047a8:	f7 ea                	imul   %edx
  1047aa:	89 d0                	mov    %edx,%eax
  1047ac:	c1 f8 05             	sar    $0x5,%eax
  1047af:	89 ca                	mov    %ecx,%edx
  1047b1:	c1 fa 1f             	sar    $0x1f,%edx
  1047b4:	29 d0                	sub    %edx,%eax
  1047b6:	6b d0 64             	imul   $0x64,%eax,%edx
  1047b9:	89 c8                	mov    %ecx,%eax
  1047bb:	29 d0                	sub    %edx,%eax
  1047bd:	85 c0                	test   %eax,%eax
  1047bf:	75 26                	jne    1047e7 <is_year_leap+0x56>
  1047c1:	8b 4d 08             	mov    0x8(%ebp),%ecx
  1047c4:	ba 1f 85 eb 51       	mov    $0x51eb851f,%edx
  1047c9:	89 c8                	mov    %ecx,%eax
  1047cb:	f7 ea                	imul   %edx
  1047cd:	89 d0                	mov    %edx,%eax
  1047cf:	c1 f8 07             	sar    $0x7,%eax
  1047d2:	89 ca                	mov    %ecx,%edx
  1047d4:	c1 fa 1f             	sar    $0x1f,%edx
  1047d7:	29 d0                	sub    %edx,%eax
  1047d9:	69 d0 90 01 00 00    	imul   $0x190,%eax,%edx
  1047df:	89 c8                	mov    %ecx,%eax
  1047e1:	29 d0                	sub    %edx,%eax
  1047e3:	85 c0                	test   %eax,%eax
  1047e5:	75 07                	jne    1047ee <is_year_leap+0x5d>
  1047e7:	b8 01 00 00 00       	mov    $0x1,%eax
  1047ec:	eb 05                	jmp    1047f3 <is_year_leap+0x62>
  1047ee:	b8 00 00 00 00       	mov    $0x0,%eax
  1047f3:	83 e0 01             	and    $0x1,%eax
  1047f6:	5d                   	pop    %ebp
  1047f7:	c3                   	ret    

001047f8 <get_days_in_month>:
  1047f8:	55                   	push   %ebp
  1047f9:	89 e5                	mov    %esp,%ebp
  1047fb:	83 7d 08 0c          	cmpl   $0xc,0x8(%ebp)
  1047ff:	77 79                	ja     10487a <get_days_in_month+0x82>
  104801:	8b 45 08             	mov    0x8(%ebp),%eax
  104804:	c1 e0 02             	shl    $0x2,%eax
  104807:	05 80 6d 10 00       	add    $0x106d80,%eax
  10480c:	8b 00                	mov    (%eax),%eax
  10480e:	ff e0                	jmp    *%eax
  104810:	b8 1f 00 00 00       	mov    $0x1f,%eax
  104815:	eb 68                	jmp    10487f <get_days_in_month+0x87>
  104817:	ff 75 0c             	push   0xc(%ebp)
  10481a:	e8 72 ff ff ff       	call   104791 <is_year_leap>
  10481f:	83 c4 04             	add    $0x4,%esp
  104822:	84 c0                	test   %al,%al
  104824:	74 07                	je     10482d <get_days_in_month+0x35>
  104826:	b8 1d 00 00 00       	mov    $0x1d,%eax
  10482b:	eb 52                	jmp    10487f <get_days_in_month+0x87>
  10482d:	b8 1c 00 00 00       	mov    $0x1c,%eax
  104832:	eb 4b                	jmp    10487f <get_days_in_month+0x87>
  104834:	b8 1f 00 00 00       	mov    $0x1f,%eax
  104839:	eb 44                	jmp    10487f <get_days_in_month+0x87>
  10483b:	b8 1e 00 00 00       	mov    $0x1e,%eax
  104840:	eb 3d                	jmp    10487f <get_days_in_month+0x87>
  104842:	b8 1f 00 00 00       	mov    $0x1f,%eax
  104847:	eb 36                	jmp    10487f <get_days_in_month+0x87>
  104849:	b8 1e 00 00 00       	mov    $0x1e,%eax
  10484e:	eb 2f                	jmp    10487f <get_days_in_month+0x87>
  104850:	b8 1f 00 00 00       	mov    $0x1f,%eax
  104855:	eb 28                	jmp    10487f <get_days_in_month+0x87>
  104857:	b8 1f 00 00 00       	mov    $0x1f,%eax
  10485c:	eb 21                	jmp    10487f <get_days_in_month+0x87>
  10485e:	b8 1e 00 00 00       	mov    $0x1e,%eax
  104863:	eb 1a                	jmp    10487f <get_days_in_month+0x87>
  104865:	b8 1f 00 00 00       	mov    $0x1f,%eax
  10486a:	eb 13                	jmp    10487f <get_days_in_month+0x87>
  10486c:	b8 1e 00 00 00       	mov    $0x1e,%eax
  104871:	eb 0c                	jmp    10487f <get_days_in_month+0x87>
  104873:	b8 1f 00 00 00       	mov    $0x1f,%eax
  104878:	eb 05                	jmp    10487f <get_days_in_month+0x87>
  10487a:	b8 00 00 00 00       	mov    $0x0,%eax
  10487f:	c9                   	leave  
  104880:	c3                   	ret    

00104881 <get_day_of_week>:
  104881:	55                   	push   %ebp
  104882:	89 e5                	mov    %esp,%ebp
  104884:	83 ec 10             	sub    $0x10,%esp
  104887:	8b 4d 08             	mov    0x8(%ebp),%ecx
  10488a:	ba 07 45 2e c2       	mov    $0xc22e4507,%edx
  10488f:	89 c8                	mov    %ecx,%eax
  104891:	f7 ea                	imul   %edx
  104893:	8d 04 0a             	lea    (%edx,%ecx,1),%eax
  104896:	c1 f8 10             	sar    $0x10,%eax
  104899:	c1 f9 1f             	sar    $0x1f,%ecx
  10489c:	89 ca                	mov    %ecx,%edx
  10489e:	29 d0                	sub    %edx,%eax
  1048a0:	89 45 fc             	mov    %eax,-0x4(%ebp)
  1048a3:	83 45 fc 04          	addl   $0x4,-0x4(%ebp)
  1048a7:	8b 4d fc             	mov    -0x4(%ebp),%ecx
  1048aa:	ba 93 24 49 92       	mov    $0x92492493,%edx
  1048af:	89 c8                	mov    %ecx,%eax
  1048b1:	f7 ea                	imul   %edx
  1048b3:	8d 04 0a             	lea    (%edx,%ecx,1),%eax
  1048b6:	c1 f8 02             	sar    $0x2,%eax
  1048b9:	89 ca                	mov    %ecx,%edx
  1048bb:	c1 fa 1f             	sar    $0x1f,%edx
  1048be:	29 d0                	sub    %edx,%eax
  1048c0:	89 c2                	mov    %eax,%edx
  1048c2:	c1 e2 03             	shl    $0x3,%edx
  1048c5:	29 c2                	sub    %eax,%edx
  1048c7:	89 c8                	mov    %ecx,%eax
  1048c9:	29 d0                	sub    %edx,%eax
  1048cb:	c9                   	leave  
  1048cc:	c3                   	ret    

001048cd <get_seconds_of_months>:
  1048cd:	55                   	push   %ebp
  1048ce:	89 e5                	mov    %esp,%ebp
  1048d0:	83 ec 10             	sub    $0x10,%esp
  1048d3:	c7 45 fc 00 00 00 00 	movl   $0x0,-0x4(%ebp)
  1048da:	c7 45 f8 01 00 00 00 	movl   $0x1,-0x8(%ebp)
  1048e1:	eb 15                	jmp    1048f8 <get_seconds_of_months+0x2b>
  1048e3:	ff 75 0c             	push   0xc(%ebp)
  1048e6:	ff 75 f8             	push   -0x8(%ebp)
  1048e9:	e8 0a ff ff ff       	call   1047f8 <get_days_in_month>
  1048ee:	83 c4 08             	add    $0x8,%esp
  1048f1:	01 45 fc             	add    %eax,-0x4(%ebp)
  1048f4:	83 45 f8 01          	addl   $0x1,-0x8(%ebp)
  1048f8:	8b 45 f8             	mov    -0x8(%ebp),%eax
  1048fb:	3b 45 08             	cmp    0x8(%ebp),%eax
  1048fe:	7c e3                	jl     1048e3 <get_seconds_of_months+0x16>
  104900:	8b 45 fc             	mov    -0x4(%ebp),%eax
  104903:	69 c0 80 51 01 00    	imul   $0x15180,%eax,%eax
  104909:	c9                   	leave  
  10490a:	c3                   	ret    

0010490b <get_seconds_of_years>:
  10490b:	55                   	push   %ebp
  10490c:	89 e5                	mov    %esp,%ebp
  10490e:	83 ec 10             	sub    $0x10,%esp
  104911:	c7 45 fc 00 00 00 00 	movl   $0x0,-0x4(%ebp)
  104918:	eb 1e                	jmp    104938 <get_seconds_of_years+0x2d>
  10491a:	81 45 fc 6d 01 00 00 	addl   $0x16d,-0x4(%ebp)
  104921:	ff 75 08             	push   0x8(%ebp)
  104924:	e8 68 fe ff ff       	call   104791 <is_year_leap>
  104929:	83 c4 04             	add    $0x4,%esp
  10492c:	84 c0                	test   %al,%al
  10492e:	74 04                	je     104934 <get_seconds_of_years+0x29>
  104930:	83 45 fc 01          	addl   $0x1,-0x4(%ebp)
  104934:	83 6d 08 01          	subl   $0x1,0x8(%ebp)
  104938:	81 7d 08 b1 07 00 00 	cmpl   $0x7b1,0x8(%ebp)
  10493f:	7f d9                	jg     10491a <get_seconds_of_years+0xf>
  104941:	8b 45 fc             	mov    -0x4(%ebp),%eax
  104944:	69 c0 80 51 01 00    	imul   $0x15180,%eax,%eax
  10494a:	c9                   	leave  
  10494b:	c3                   	ret    

0010494c <fill_time>:
  10494c:	55                   	push   %ebp
  10494d:	89 e5                	mov    %esp,%ebp
  10494f:	83 ec 30             	sub    $0x30,%esp
  104952:	8b 45 08             	mov    0x8(%ebp),%eax
  104955:	8b 10                	mov    (%eax),%edx
  104957:	8b 45 14             	mov    0x14(%ebp),%eax
  10495a:	01 d0                	add    %edx,%eax
  10495c:	89 45 e8             	mov    %eax,-0x18(%ebp)
  10495f:	8b 45 0c             	mov    0xc(%ebp),%eax
  104962:	8b 55 10             	mov    0x10(%ebp),%edx
  104965:	89 50 24             	mov    %edx,0x24(%eax)
  104968:	8b 45 0c             	mov    0xc(%ebp),%eax
  10496b:	8b 55 14             	mov    0x14(%ebp),%edx
  10496e:	89 50 28             	mov    %edx,0x28(%eax)
  104971:	83 7d e8 00          	cmpl   $0x0,-0x18(%ebp)
  104975:	79 07                	jns    10497e <fill_time+0x32>
  104977:	b8 80 81 55 7c       	mov    $0x7c558180,%eax
  10497c:	eb 05                	jmp    104983 <fill_time+0x37>
  10497e:	b8 00 00 00 00       	mov    $0x0,%eax
  104983:	89 45 fc             	mov    %eax,-0x4(%ebp)
  104986:	c7 45 e4 00 00 00 00 	movl   $0x0,-0x1c(%ebp)
  10498d:	83 7d e8 00          	cmpl   $0x0,-0x18(%ebp)
  104991:	79 07                	jns    10499a <fill_time+0x4e>
  104993:	b8 6c 07 00 00       	mov    $0x76c,%eax
  104998:	eb 05                	jmp    10499f <fill_time+0x53>
  10499a:	b8 b2 07 00 00       	mov    $0x7b2,%eax
  10499f:	89 45 e0             	mov    %eax,-0x20(%ebp)
  1049a2:	8b 45 e0             	mov    -0x20(%ebp),%eax
  1049a5:	89 45 f8             	mov    %eax,-0x8(%ebp)
  1049a8:	e9 ea 01 00 00       	jmp    104b97 <fill_time+0x24b>
  1049ad:	ff 75 f8             	push   -0x8(%ebp)
  1049b0:	e8 dc fd ff ff       	call   104791 <is_year_leap>
  1049b5:	83 c4 04             	add    $0x4,%esp
  1049b8:	84 c0                	test   %al,%al
  1049ba:	74 07                	je     1049c3 <fill_time+0x77>
  1049bc:	b8 6e 01 00 00       	mov    $0x16e,%eax
  1049c1:	eb 05                	jmp    1049c8 <fill_time+0x7c>
  1049c3:	b8 6d 01 00 00       	mov    $0x16d,%eax
  1049c8:	89 45 dc             	mov    %eax,-0x24(%ebp)
  1049cb:	8b 45 dc             	mov    -0x24(%ebp),%eax
  1049ce:	69 c0 80 51 01 00    	imul   $0x15180,%eax,%eax
  1049d4:	89 45 d8             	mov    %eax,-0x28(%ebp)
  1049d7:	8b 55 fc             	mov    -0x4(%ebp),%edx
  1049da:	8b 45 d8             	mov    -0x28(%ebp),%eax
  1049dd:	01 d0                	add    %edx,%eax
  1049df:	39 45 e8             	cmp    %eax,-0x18(%ebp)
  1049e2:	0f 8d a5 01 00 00    	jge    104b8d <fill_time+0x241>
  1049e8:	8b 45 f8             	mov    -0x8(%ebp),%eax
  1049eb:	8d 90 94 f8 ff ff    	lea    -0x76c(%eax),%edx
  1049f1:	8b 45 0c             	mov    0xc(%ebp),%eax
  1049f4:	89 50 14             	mov    %edx,0x14(%eax)
  1049f7:	8b 45 fc             	mov    -0x4(%ebp),%eax
  1049fa:	89 45 e4             	mov    %eax,-0x1c(%ebp)
  1049fd:	c7 45 f4 01 00 00 00 	movl   $0x1,-0xc(%ebp)
  104a04:	e9 73 01 00 00       	jmp    104b7c <fill_time+0x230>
  104a09:	ff 75 f8             	push   -0x8(%ebp)
  104a0c:	ff 75 f4             	push   -0xc(%ebp)
  104a0f:	e8 e4 fd ff ff       	call   1047f8 <get_days_in_month>
  104a14:	83 c4 08             	add    $0x8,%esp
  104a17:	69 c0 80 51 01 00    	imul   $0x15180,%eax,%eax
  104a1d:	89 45 d8             	mov    %eax,-0x28(%ebp)
  104a20:	8b 55 fc             	mov    -0x4(%ebp),%edx
  104a23:	8b 45 d8             	mov    -0x28(%ebp),%eax
  104a26:	01 d0                	add    %edx,%eax
  104a28:	39 45 e8             	cmp    %eax,-0x18(%ebp)
  104a2b:	0f 8d 41 01 00 00    	jge    104b72 <fill_time+0x226>
  104a31:	8b 45 f4             	mov    -0xc(%ebp),%eax
  104a34:	8d 50 ff             	lea    -0x1(%eax),%edx
  104a37:	8b 45 0c             	mov    0xc(%ebp),%eax
  104a3a:	89 50 10             	mov    %edx,0x10(%eax)
  104a3d:	c7 45 f0 01 00 00 00 	movl   $0x1,-0x10(%ebp)
  104a44:	e9 0b 01 00 00       	jmp    104b54 <fill_time+0x208>
  104a49:	c7 45 d8 80 51 01 00 	movl   $0x15180,-0x28(%ebp)
  104a50:	8b 55 fc             	mov    -0x4(%ebp),%edx
  104a53:	8b 45 d8             	mov    -0x28(%ebp),%eax
  104a56:	01 d0                	add    %edx,%eax
  104a58:	39 45 e8             	cmp    %eax,-0x18(%ebp)
  104a5b:	0f 8d e9 00 00 00    	jge    104b4a <fill_time+0x1fe>
  104a61:	8b 45 0c             	mov    0xc(%ebp),%eax
  104a64:	8b 55 f0             	mov    -0x10(%ebp),%edx
  104a67:	89 50 0c             	mov    %edx,0xc(%eax)
  104a6a:	c7 45 ec 01 00 00 00 	movl   $0x1,-0x14(%ebp)
  104a71:	e9 c3 00 00 00       	jmp    104b39 <fill_time+0x1ed>
  104a76:	c7 45 d8 10 0e 00 00 	movl   $0xe10,-0x28(%ebp)
  104a7d:	8b 55 fc             	mov    -0x4(%ebp),%edx
  104a80:	8b 45 d8             	mov    -0x28(%ebp),%eax
  104a83:	01 d0                	add    %edx,%eax
  104a85:	39 45 e8             	cmp    %eax,-0x18(%ebp)
  104a88:	0f 8d a1 00 00 00    	jge    104b2f <fill_time+0x1e3>
  104a8e:	8b 45 e8             	mov    -0x18(%ebp),%eax
  104a91:	2b 45 fc             	sub    -0x4(%ebp),%eax
  104a94:	89 45 d4             	mov    %eax,-0x2c(%ebp)
  104a97:	8b 45 ec             	mov    -0x14(%ebp),%eax
  104a9a:	8d 50 ff             	lea    -0x1(%eax),%edx
  104a9d:	8b 45 0c             	mov    0xc(%ebp),%eax
  104aa0:	89 50 08             	mov    %edx,0x8(%eax)
  104aa3:	8b 4d d4             	mov    -0x2c(%ebp),%ecx
  104aa6:	ba 89 88 88 88       	mov    $0x88888889,%edx
  104aab:	89 c8                	mov    %ecx,%eax
  104aad:	f7 ea                	imul   %edx
  104aaf:	8d 04 0a             	lea    (%edx,%ecx,1),%eax
  104ab2:	c1 f8 05             	sar    $0x5,%eax
  104ab5:	89 c2                	mov    %eax,%edx
  104ab7:	89 c8                	mov    %ecx,%eax
  104ab9:	c1 f8 1f             	sar    $0x1f,%eax
  104abc:	29 c2                	sub    %eax,%edx
  104abe:	8b 45 0c             	mov    0xc(%ebp),%eax
  104ac1:	89 50 04             	mov    %edx,0x4(%eax)
  104ac4:	8b 4d d4             	mov    -0x2c(%ebp),%ecx
  104ac7:	ba 89 88 88 88       	mov    $0x88888889,%edx
  104acc:	89 c8                	mov    %ecx,%eax
  104ace:	f7 ea                	imul   %edx
  104ad0:	8d 04 0a             	lea    (%edx,%ecx,1),%eax
  104ad3:	c1 f8 05             	sar    $0x5,%eax
  104ad6:	89 ca                	mov    %ecx,%edx
  104ad8:	c1 fa 1f             	sar    $0x1f,%edx
  104adb:	29 d0                	sub    %edx,%eax
  104add:	6b d0 3c             	imul   $0x3c,%eax,%edx
  104ae0:	89 c8                	mov    %ecx,%eax
  104ae2:	29 d0                	sub    %edx,%eax
  104ae4:	8b 55 0c             	mov    0xc(%ebp),%edx
  104ae7:	89 02                	mov    %eax,(%edx)
  104ae9:	ff 75 e8             	push   -0x18(%ebp)
  104aec:	e8 90 fd ff ff       	call   104881 <get_day_of_week>
  104af1:	83 c4 04             	add    $0x4,%esp
  104af4:	8b 55 0c             	mov    0xc(%ebp),%edx
  104af7:	89 42 18             	mov    %eax,0x18(%edx)
  104afa:	8b 45 e8             	mov    -0x18(%ebp),%eax
  104afd:	2b 45 e4             	sub    -0x1c(%ebp),%eax
  104b00:	89 c1                	mov    %eax,%ecx
  104b02:	ba 07 45 2e c2       	mov    $0xc22e4507,%edx
  104b07:	89 c8                	mov    %ecx,%eax
  104b09:	f7 ea                	imul   %edx
  104b0b:	8d 04 0a             	lea    (%edx,%ecx,1),%eax
  104b0e:	c1 f8 10             	sar    $0x10,%eax
  104b11:	89 c2                	mov    %eax,%edx
  104b13:	89 c8                	mov    %ecx,%eax
  104b15:	c1 f8 1f             	sar    $0x1f,%eax
  104b18:	29 c2                	sub    %eax,%edx
  104b1a:	8b 45 0c             	mov    0xc(%ebp),%eax
  104b1d:	89 50 1c             	mov    %edx,0x1c(%eax)
  104b20:	8b 45 0c             	mov    0xc(%ebp),%eax
  104b23:	c7 40 20 00 00 00 00 	movl   $0x0,0x20(%eax)
  104b2a:	8b 45 0c             	mov    0xc(%ebp),%eax
  104b2d:	eb 7a                	jmp    104ba9 <fill_time+0x25d>
  104b2f:	8b 45 d8             	mov    -0x28(%ebp),%eax
  104b32:	01 45 fc             	add    %eax,-0x4(%ebp)
  104b35:	83 45 ec 01          	addl   $0x1,-0x14(%ebp)
  104b39:	83 7d ec 18          	cmpl   $0x18,-0x14(%ebp)
  104b3d:	0f 8e 33 ff ff ff    	jle    104a76 <fill_time+0x12a>
  104b43:	b8 00 00 00 00       	mov    $0x0,%eax
  104b48:	eb 5f                	jmp    104ba9 <fill_time+0x25d>
  104b4a:	8b 45 d8             	mov    -0x28(%ebp),%eax
  104b4d:	01 45 fc             	add    %eax,-0x4(%ebp)
  104b50:	83 45 f0 01          	addl   $0x1,-0x10(%ebp)
  104b54:	ff 75 f8             	push   -0x8(%ebp)
  104b57:	ff 75 f4             	push   -0xc(%ebp)
  104b5a:	e8 99 fc ff ff       	call   1047f8 <get_days_in_month>
  104b5f:	83 c4 08             	add    $0x8,%esp
  104b62:	39 45 f0             	cmp    %eax,-0x10(%ebp)
  104b65:	0f 8e de fe ff ff    	jle    104a49 <fill_time+0xfd>
  104b6b:	b8 00 00 00 00       	mov    $0x0,%eax
  104b70:	eb 37                	jmp    104ba9 <fill_time+0x25d>
  104b72:	8b 45 d8             	mov    -0x28(%ebp),%eax
  104b75:	01 45 fc             	add    %eax,-0x4(%ebp)
  104b78:	83 45 f4 01          	addl   $0x1,-0xc(%ebp)
  104b7c:	83 7d f4 0c          	cmpl   $0xc,-0xc(%ebp)
  104b80:	0f 8e 83 fe ff ff    	jle    104a09 <fill_time+0xbd>
  104b86:	b8 00 00 00 00       	mov    $0x0,%eax
  104b8b:	eb 1c                	jmp    104ba9 <fill_time+0x25d>
  104b8d:	8b 45 d8             	mov    -0x28(%ebp),%eax
  104b90:	01 45 fc             	add    %eax,-0x4(%ebp)
  104b93:	83 45 f8 01          	addl   $0x1,-0x8(%ebp)
  104b97:	81 7d f8 33 08 00 00 	cmpl   $0x833,-0x8(%ebp)
  104b9e:	0f 8e 09 fe ff ff    	jle    1049ad <fill_time+0x61>
  104ba4:	b8 00 00 00 00       	mov    $0x0,%eax
  104ba9:	c9                   	leave  
  104baa:	c3                   	ret    

00104bab <localtime_r>:
  104bab:	55                   	push   %ebp
  104bac:	89 e5                	mov    %esp,%ebp
  104bae:	6a 00                	push   $0x0
  104bb0:	68 b4 6d 10 00       	push   $0x106db4
  104bb5:	ff 75 0c             	push   0xc(%ebp)
  104bb8:	ff 75 08             	push   0x8(%ebp)
  104bbb:	e8 8c fd ff ff       	call   10494c <fill_time>
  104bc0:	83 c4 10             	add    $0x10,%esp
  104bc3:	c9                   	leave  
  104bc4:	c3                   	ret    

00104bc5 <gmtime_r>:
  104bc5:	55                   	push   %ebp
  104bc6:	89 e5                	mov    %esp,%ebp
  104bc8:	6a 00                	push   $0x0
  104bca:	68 b4 6d 10 00       	push   $0x106db4
  104bcf:	ff 75 0c             	push   0xc(%ebp)
  104bd2:	ff 75 08             	push   0x8(%ebp)
  104bd5:	e8 72 fd ff ff       	call   10494c <fill_time>
  104bda:	83 c4 10             	add    $0x10,%esp
  104bdd:	c9                   	leave  
  104bde:	c3                   	ret    

00104bdf <localtime>:
  104bdf:	55                   	push   %ebp
  104be0:	89 e5                	mov    %esp,%ebp
  104be2:	6a 00                	push   $0x0
  104be4:	68 b4 6d 10 00       	push   $0x106db4
  104be9:	68 a0 de 10 00       	push   $0x10dea0
  104bee:	ff 75 08             	push   0x8(%ebp)
  104bf1:	e8 56 fd ff ff       	call   10494c <fill_time>
  104bf6:	83 c4 10             	add    $0x10,%esp
  104bf9:	c9                   	leave  
  104bfa:	c3                   	ret    

00104bfb <gmtime>:
  104bfb:	55                   	push   %ebp
  104bfc:	89 e5                	mov    %esp,%ebp
  104bfe:	6a 00                	push   $0x0
  104c00:	68 b4 6d 10 00       	push   $0x106db4
  104c05:	68 a0 de 10 00       	push   $0x10dea0
  104c0a:	ff 75 08             	push   0x8(%ebp)
  104c0d:	e8 3a fd ff ff       	call   10494c <fill_time>
  104c12:	83 c4 10             	add    $0x10,%esp
  104c15:	c9                   	leave  
  104c16:	c3                   	ret    

00104c17 <mktime>:
  104c17:	55                   	push   %ebp
  104c18:	89 e5                	mov    %esp,%ebp
  104c1a:	53                   	push   %ebx
  104c1b:	8b 45 08             	mov    0x8(%ebp),%eax
  104c1e:	8b 40 14             	mov    0x14(%eax),%eax
  104c21:	05 6b 07 00 00       	add    $0x76b,%eax
  104c26:	50                   	push   %eax
  104c27:	e8 df fc ff ff       	call   10490b <get_seconds_of_years>
  104c2c:	83 c4 04             	add    $0x4,%esp
  104c2f:	89 c3                	mov    %eax,%ebx
  104c31:	8b 45 08             	mov    0x8(%ebp),%eax
  104c34:	8b 40 14             	mov    0x14(%eax),%eax
  104c37:	8d 90 6c 07 00 00    	lea    0x76c(%eax),%edx
  104c3d:	8b 45 08             	mov    0x8(%ebp),%eax
  104c40:	8b 40 10             	mov    0x10(%eax),%eax
  104c43:	83 c0 01             	add    $0x1,%eax
  104c46:	52                   	push   %edx
  104c47:	50                   	push   %eax
  104c48:	e8 80 fc ff ff       	call   1048cd <get_seconds_of_months>
  104c4d:	83 c4 08             	add    $0x8,%esp
  104c50:	8d 14 03             	lea    (%ebx,%eax,1),%edx
  104c53:	8b 45 08             	mov    0x8(%ebp),%eax
  104c56:	8b 40 08             	mov    0x8(%eax),%eax
  104c59:	69 c0 10 0e 00 00    	imul   $0xe10,%eax,%eax
  104c5f:	89 c1                	mov    %eax,%ecx
  104c61:	8b 45 08             	mov    0x8(%ebp),%eax
  104c64:	8b 40 0c             	mov    0xc(%eax),%eax
  104c67:	83 e8 01             	sub    $0x1,%eax
  104c6a:	69 c0 80 51 01 00    	imul   $0x15180,%eax,%eax
  104c70:	01 c8                	add    %ecx,%eax
  104c72:	01 c2                	add    %eax,%edx
  104c74:	8b 45 08             	mov    0x8(%ebp),%eax
  104c77:	8b 40 04             	mov    0x4(%eax),%eax
  104c7a:	6b c0 3c             	imul   $0x3c,%eax,%eax
  104c7d:	01 c2                	add    %eax,%edx
  104c7f:	8b 45 08             	mov    0x8(%ebp),%eax
  104c82:	8b 00                	mov    (%eax),%eax
  104c84:	01 c2                	add    %eax,%edx
  104c86:	8b 45 08             	mov    0x8(%ebp),%eax
  104c89:	8b 40 28             	mov    0x28(%eax),%eax
  104c8c:	89 c1                	mov    %eax,%ecx
  104c8e:	89 d0                	mov    %edx,%eax
  104c90:	29 c8                	sub    %ecx,%eax
  104c92:	8b 5d fc             	mov    -0x4(%ebp),%ebx
  104c95:	c9                   	leave  
  104c96:	c3                   	ret    

00104c97 <strftime>:
  104c97:	55                   	push   %ebp
  104c98:	89 e5                	mov    %esp,%ebp
  104c9a:	57                   	push   %edi
  104c9b:	56                   	push   %esi
  104c9c:	53                   	push   %ebx
  104c9d:	83 ec 4c             	sub    $0x4c,%esp
  104ca0:	83 7d 14 00          	cmpl   $0x0,0x14(%ebp)
  104ca4:	75 28                	jne    104cce <strftime+0x37>
  104ca6:	83 7d 0c 0c          	cmpl   $0xc,0xc(%ebp)
  104caa:	77 0a                	ja     104cb6 <strftime+0x1f>
  104cac:	b8 00 00 00 00       	mov    $0x0,%eax
  104cb1:	e9 af 08 00 00       	jmp    105565 <strftime+0x8ce>
  104cb6:	83 ec 08             	sub    $0x8,%esp
  104cb9:	68 8f 6e 10 00       	push   $0x106e8f
  104cbe:	ff 75 08             	push   0x8(%ebp)
  104cc1:	e8 44 f9 ff ff       	call   10460a <sprintf>
  104cc6:	83 c4 10             	add    $0x10,%esp
  104cc9:	e9 97 08 00 00       	jmp    105565 <strftime+0x8ce>
  104cce:	8b 45 08             	mov    0x8(%ebp),%eax
  104cd1:	89 45 e4             	mov    %eax,-0x1c(%ebp)
  104cd4:	8b 45 10             	mov    0x10(%ebp),%eax
  104cd7:	89 45 e0             	mov    %eax,-0x20(%ebp)
  104cda:	e9 6c 08 00 00       	jmp    10554b <strftime+0x8b4>
  104cdf:	8b 45 e0             	mov    -0x20(%ebp),%eax
  104ce2:	0f b6 00             	movzbl (%eax),%eax
  104ce5:	3c 25                	cmp    $0x25,%al
  104ce7:	74 2a                	je     104d13 <strftime+0x7c>
  104ce9:	83 7d 0c 00          	cmpl   $0x0,0xc(%ebp)
  104ced:	75 0a                	jne    104cf9 <strftime+0x62>
  104cef:	b8 00 00 00 00       	mov    $0x0,%eax
  104cf4:	e9 6c 08 00 00       	jmp    105565 <strftime+0x8ce>
  104cf9:	83 6d 0c 01          	subl   $0x1,0xc(%ebp)
  104cfd:	8b 45 e4             	mov    -0x1c(%ebp),%eax
  104d00:	8d 50 01             	lea    0x1(%eax),%edx
  104d03:	89 55 e4             	mov    %edx,-0x1c(%ebp)
  104d06:	8b 55 e0             	mov    -0x20(%ebp),%edx
  104d09:	0f b6 12             	movzbl (%edx),%edx
  104d0c:	88 10                	mov    %dl,(%eax)
  104d0e:	e9 34 08 00 00       	jmp    105547 <strftime+0x8b0>
  104d13:	83 45 e0 01          	addl   $0x1,-0x20(%ebp)
  104d17:	c7 45 d8 00 00 00 00 	movl   $0x0,-0x28(%ebp)
  104d1e:	c7 45 d4 00 00 00 00 	movl   $0x0,-0x2c(%ebp)
  104d25:	8b 45 e0             	mov    -0x20(%ebp),%eax
  104d28:	0f b6 00             	movzbl (%eax),%eax
  104d2b:	3c 45                	cmp    $0x45,%al
  104d2d:	75 0d                	jne    104d3c <strftime+0xa5>
  104d2f:	c7 45 d8 01 00 00 00 	movl   $0x1,-0x28(%ebp)
  104d36:	83 45 e0 01          	addl   $0x1,-0x20(%ebp)
  104d3a:	eb 15                	jmp    104d51 <strftime+0xba>
  104d3c:	8b 45 e0             	mov    -0x20(%ebp),%eax
  104d3f:	0f b6 00             	movzbl (%eax),%eax
  104d42:	3c 30                	cmp    $0x30,%al
  104d44:	75 0b                	jne    104d51 <strftime+0xba>
  104d46:	c7 45 d4 01 00 00 00 	movl   $0x1,-0x2c(%ebp)
  104d4d:	83 45 e0 01          	addl   $0x1,-0x20(%ebp)
  104d51:	c7 45 dc 00 00 00 00 	movl   $0x0,-0x24(%ebp)
  104d58:	8b 45 e0             	mov    -0x20(%ebp),%eax
  104d5b:	0f b6 00             	movzbl (%eax),%eax
  104d5e:	0f be c0             	movsbl %al,%eax
  104d61:	83 e8 25             	sub    $0x25,%eax
  104d64:	83 f8 55             	cmp    $0x55,%eax
  104d67:	0f 87 b2 07 00 00    	ja     10551f <strftime+0x888>
  104d6d:	8b 04 85 54 6f 10 00 	mov    0x106f54(,%eax,4),%eax
  104d74:	ff e0                	jmp    *%eax
  104d76:	8b 45 14             	mov    0x14(%ebp),%eax
  104d79:	8b 40 18             	mov    0x18(%eax),%eax
  104d7c:	8b 04 85 7c 80 10 00 	mov    0x10807c(,%eax,4),%eax
  104d83:	50                   	push   %eax
  104d84:	68 9c 6e 10 00       	push   $0x106e9c
  104d89:	ff 75 0c             	push   0xc(%ebp)
  104d8c:	ff 75 e4             	push   -0x1c(%ebp)
  104d8f:	e8 eb f7 ff ff       	call   10457f <snprintf>
  104d94:	83 c4 10             	add    $0x10,%esp
  104d97:	89 45 dc             	mov    %eax,-0x24(%ebp)
  104d9a:	e9 80 07 00 00       	jmp    10551f <strftime+0x888>
  104d9f:	8b 45 14             	mov    0x14(%ebp),%eax
  104da2:	8b 40 18             	mov    0x18(%eax),%eax
  104da5:	8b 04 85 60 80 10 00 	mov    0x108060(,%eax,4),%eax
  104dac:	50                   	push   %eax
  104dad:	68 9c 6e 10 00       	push   $0x106e9c
  104db2:	ff 75 0c             	push   0xc(%ebp)
  104db5:	ff 75 e4             	push   -0x1c(%ebp)
  104db8:	e8 c2 f7 ff ff       	call   10457f <snprintf>
  104dbd:	83 c4 10             	add    $0x10,%esp
  104dc0:	89 45 dc             	mov    %eax,-0x24(%ebp)
  104dc3:	e9 57 07 00 00       	jmp    10551f <strftime+0x888>
  104dc8:	8b 45 14             	mov    0x14(%ebp),%eax
  104dcb:	8b 40 10             	mov    0x10(%eax),%eax
  104dce:	8b 04 85 e0 80 10 00 	mov    0x1080e0(,%eax,4),%eax
  104dd5:	50                   	push   %eax
  104dd6:	68 9c 6e 10 00       	push   $0x106e9c
  104ddb:	ff 75 0c             	push   0xc(%ebp)
  104dde:	ff 75 e4             	push   -0x1c(%ebp)
  104de1:	e8 99 f7 ff ff       	call   10457f <snprintf>
  104de6:	83 c4 10             	add    $0x10,%esp
  104de9:	89 45 dc             	mov    %eax,-0x24(%ebp)
  104dec:	e9 2e 07 00 00       	jmp    10551f <strftime+0x888>
  104df1:	8b 45 14             	mov    0x14(%ebp),%eax
  104df4:	8b 40 10             	mov    0x10(%eax),%eax
  104df7:	8b 04 85 a0 80 10 00 	mov    0x1080a0(,%eax,4),%eax
  104dfe:	50                   	push   %eax
  104dff:	68 9c 6e 10 00       	push   $0x106e9c
  104e04:	ff 75 0c             	push   0xc(%ebp)
  104e07:	ff 75 e4             	push   -0x1c(%ebp)
  104e0a:	e8 70 f7 ff ff       	call   10457f <snprintf>
  104e0f:	83 c4 10             	add    $0x10,%esp
  104e12:	89 45 dc             	mov    %eax,-0x24(%ebp)
  104e15:	e9 05 07 00 00       	jmp    10551f <strftime+0x888>
  104e1a:	8b 45 14             	mov    0x14(%ebp),%eax
  104e1d:	8b 40 14             	mov    0x14(%eax),%eax
  104e20:	05 6c 07 00 00       	add    $0x76c,%eax
  104e25:	89 45 b4             	mov    %eax,-0x4c(%ebp)
  104e28:	8b 45 14             	mov    0x14(%ebp),%eax
  104e2b:	8b 38                	mov    (%eax),%edi
  104e2d:	8b 45 14             	mov    0x14(%ebp),%eax
  104e30:	8b 70 04             	mov    0x4(%eax),%esi
  104e33:	8b 45 14             	mov    0x14(%ebp),%eax
  104e36:	8b 58 08             	mov    0x8(%eax),%ebx
  104e39:	8b 45 14             	mov    0x14(%ebp),%eax
  104e3c:	8b 48 0c             	mov    0xc(%eax),%ecx
  104e3f:	8b 45 14             	mov    0x14(%ebp),%eax
  104e42:	8b 40 10             	mov    0x10(%eax),%eax
  104e45:	8b 14 85 e0 80 10 00 	mov    0x1080e0(,%eax,4),%edx
  104e4c:	8b 45 14             	mov    0x14(%ebp),%eax
  104e4f:	8b 40 18             	mov    0x18(%eax),%eax
  104e52:	8b 04 85 7c 80 10 00 	mov    0x10807c(,%eax,4),%eax
  104e59:	83 ec 08             	sub    $0x8,%esp
  104e5c:	ff 75 b4             	push   -0x4c(%ebp)
  104e5f:	57                   	push   %edi
  104e60:	56                   	push   %esi
  104e61:	53                   	push   %ebx
  104e62:	51                   	push   %ecx
  104e63:	52                   	push   %edx
  104e64:	50                   	push   %eax
  104e65:	68 a0 6e 10 00       	push   $0x106ea0
  104e6a:	ff 75 0c             	push   0xc(%ebp)
  104e6d:	ff 75 e4             	push   -0x1c(%ebp)
  104e70:	e8 0a f7 ff ff       	call   10457f <snprintf>
  104e75:	83 c4 30             	add    $0x30,%esp
  104e78:	89 45 dc             	mov    %eax,-0x24(%ebp)
  104e7b:	e9 9f 06 00 00       	jmp    10551f <strftime+0x888>
  104e80:	8b 45 14             	mov    0x14(%ebp),%eax
  104e83:	8b 40 14             	mov    0x14(%eax),%eax
  104e86:	8d 88 6c 07 00 00    	lea    0x76c(%eax),%ecx
  104e8c:	ba 1f 85 eb 51       	mov    $0x51eb851f,%edx
  104e91:	89 c8                	mov    %ecx,%eax
  104e93:	f7 ea                	imul   %edx
  104e95:	89 d0                	mov    %edx,%eax
  104e97:	c1 f8 05             	sar    $0x5,%eax
  104e9a:	c1 f9 1f             	sar    $0x1f,%ecx
  104e9d:	89 ca                	mov    %ecx,%edx
  104e9f:	29 d0                	sub    %edx,%eax
  104ea1:	50                   	push   %eax
  104ea2:	68 bf 6e 10 00       	push   $0x106ebf
  104ea7:	ff 75 0c             	push   0xc(%ebp)
  104eaa:	ff 75 e4             	push   -0x1c(%ebp)
  104ead:	e8 cd f6 ff ff       	call   10457f <snprintf>
  104eb2:	83 c4 10             	add    $0x10,%esp
  104eb5:	89 45 dc             	mov    %eax,-0x24(%ebp)
  104eb8:	e9 62 06 00 00       	jmp    10551f <strftime+0x888>
  104ebd:	8b 45 14             	mov    0x14(%ebp),%eax
  104ec0:	8b 40 0c             	mov    0xc(%eax),%eax
  104ec3:	50                   	push   %eax
  104ec4:	68 bf 6e 10 00       	push   $0x106ebf
  104ec9:	ff 75 0c             	push   0xc(%ebp)
  104ecc:	ff 75 e4             	push   -0x1c(%ebp)
  104ecf:	e8 ab f6 ff ff       	call   10457f <snprintf>
  104ed4:	83 c4 10             	add    $0x10,%esp
  104ed7:	89 45 dc             	mov    %eax,-0x24(%ebp)
  104eda:	e9 40 06 00 00       	jmp    10551f <strftime+0x888>
  104edf:	8b 45 14             	mov    0x14(%ebp),%eax
  104ee2:	8b 48 14             	mov    0x14(%eax),%ecx
  104ee5:	ba 1f 85 eb 51       	mov    $0x51eb851f,%edx
  104eea:	89 c8                	mov    %ecx,%eax
  104eec:	f7 ea                	imul   %edx
  104eee:	89 d0                	mov    %edx,%eax
  104ef0:	c1 f8 05             	sar    $0x5,%eax
  104ef3:	89 ca                	mov    %ecx,%edx
  104ef5:	c1 fa 1f             	sar    $0x1f,%edx
  104ef8:	29 d0                	sub    %edx,%eax
  104efa:	6b d0 64             	imul   $0x64,%eax,%edx
  104efd:	89 c8                	mov    %ecx,%eax
  104eff:	29 d0                	sub    %edx,%eax
  104f01:	8b 55 14             	mov    0x14(%ebp),%edx
  104f04:	8b 52 0c             	mov    0xc(%edx),%edx
  104f07:	8b 4d 14             	mov    0x14(%ebp),%ecx
  104f0a:	8b 49 10             	mov    0x10(%ecx),%ecx
  104f0d:	83 c1 01             	add    $0x1,%ecx
  104f10:	83 ec 08             	sub    $0x8,%esp
  104f13:	50                   	push   %eax
  104f14:	52                   	push   %edx
  104f15:	51                   	push   %ecx
  104f16:	68 c4 6e 10 00       	push   $0x106ec4
  104f1b:	ff 75 0c             	push   0xc(%ebp)
  104f1e:	ff 75 e4             	push   -0x1c(%ebp)
  104f21:	e8 59 f6 ff ff       	call   10457f <snprintf>
  104f26:	83 c4 20             	add    $0x20,%esp
  104f29:	89 45 dc             	mov    %eax,-0x24(%ebp)
  104f2c:	e9 ee 05 00 00       	jmp    10551f <strftime+0x888>
  104f31:	8b 45 14             	mov    0x14(%ebp),%eax
  104f34:	8b 40 0c             	mov    0xc(%eax),%eax
  104f37:	50                   	push   %eax
  104f38:	68 d3 6e 10 00       	push   $0x106ed3
  104f3d:	ff 75 0c             	push   0xc(%ebp)
  104f40:	ff 75 e4             	push   -0x1c(%ebp)
  104f43:	e8 37 f6 ff ff       	call   10457f <snprintf>
  104f48:	83 c4 10             	add    $0x10,%esp
  104f4b:	89 45 dc             	mov    %eax,-0x24(%ebp)
  104f4e:	e9 cc 05 00 00       	jmp    10551f <strftime+0x888>
  104f53:	8b 45 14             	mov    0x14(%ebp),%eax
  104f56:	8b 40 0c             	mov    0xc(%eax),%eax
  104f59:	8b 55 14             	mov    0x14(%ebp),%edx
  104f5c:	8b 52 10             	mov    0x10(%edx),%edx
  104f5f:	8d 4a 01             	lea    0x1(%edx),%ecx
  104f62:	8b 55 14             	mov    0x14(%ebp),%edx
  104f65:	8b 52 14             	mov    0x14(%edx),%edx
  104f68:	81 c2 6c 07 00 00    	add    $0x76c,%edx
  104f6e:	83 ec 08             	sub    $0x8,%esp
  104f71:	50                   	push   %eax
  104f72:	51                   	push   %ecx
  104f73:	52                   	push   %edx
  104f74:	68 d7 6e 10 00       	push   $0x106ed7
  104f79:	ff 75 0c             	push   0xc(%ebp)
  104f7c:	ff 75 e4             	push   -0x1c(%ebp)
  104f7f:	e8 fb f5 ff ff       	call   10457f <snprintf>
  104f84:	83 c4 20             	add    $0x20,%esp
  104f87:	89 45 dc             	mov    %eax,-0x24(%ebp)
  104f8a:	e9 90 05 00 00       	jmp    10551f <strftime+0x888>
  104f8f:	8b 45 14             	mov    0x14(%ebp),%eax
  104f92:	8b 40 08             	mov    0x8(%eax),%eax
  104f95:	50                   	push   %eax
  104f96:	68 bf 6e 10 00       	push   $0x106ebf
  104f9b:	ff 75 0c             	push   0xc(%ebp)
  104f9e:	ff 75 e4             	push   -0x1c(%ebp)
  104fa1:	e8 d9 f5 ff ff       	call   10457f <snprintf>
  104fa6:	83 c4 10             	add    $0x10,%esp
  104fa9:	89 45 dc             	mov    %eax,-0x24(%ebp)
  104fac:	e9 6e 05 00 00       	jmp    10551f <strftime+0x888>
  104fb1:	8b 45 14             	mov    0x14(%ebp),%eax
  104fb4:	8b 40 08             	mov    0x8(%eax),%eax
  104fb7:	85 c0                	test   %eax,%eax
  104fb9:	74 39                	je     104ff4 <strftime+0x35d>
  104fbb:	8b 45 14             	mov    0x14(%ebp),%eax
  104fbe:	8b 40 08             	mov    0x8(%eax),%eax
  104fc1:	83 f8 0c             	cmp    $0xc,%eax
  104fc4:	74 27                	je     104fed <strftime+0x356>
  104fc6:	8b 45 14             	mov    0x14(%ebp),%eax
  104fc9:	8b 48 08             	mov    0x8(%eax),%ecx
  104fcc:	ba ab aa aa 2a       	mov    $0x2aaaaaab,%edx
  104fd1:	89 c8                	mov    %ecx,%eax
  104fd3:	f7 ea                	imul   %edx
  104fd5:	d1 fa                	sar    %edx
  104fd7:	89 c8                	mov    %ecx,%eax
  104fd9:	c1 f8 1f             	sar    $0x1f,%eax
  104fdc:	29 c2                	sub    %eax,%edx
  104fde:	89 d0                	mov    %edx,%eax
  104fe0:	01 c0                	add    %eax,%eax
  104fe2:	01 d0                	add    %edx,%eax
  104fe4:	c1 e0 02             	shl    $0x2,%eax
  104fe7:	29 c1                	sub    %eax,%ecx
  104fe9:	89 ca                	mov    %ecx,%edx
  104feb:	eb 0c                	jmp    104ff9 <strftime+0x362>
  104fed:	ba 0c 00 00 00       	mov    $0xc,%edx
  104ff2:	eb 05                	jmp    104ff9 <strftime+0x362>
  104ff4:	ba 0c 00 00 00       	mov    $0xc,%edx
  104ff9:	52                   	push   %edx
  104ffa:	68 bf 6e 10 00       	push   $0x106ebf
  104fff:	ff 75 0c             	push   0xc(%ebp)
  105002:	ff 75 e4             	push   -0x1c(%ebp)
  105005:	e8 75 f5 ff ff       	call   10457f <snprintf>
  10500a:	83 c4 10             	add    $0x10,%esp
  10500d:	89 45 dc             	mov    %eax,-0x24(%ebp)
  105010:	e9 0a 05 00 00       	jmp    10551f <strftime+0x888>
  105015:	8b 45 14             	mov    0x14(%ebp),%eax
  105018:	8b 40 1c             	mov    0x1c(%eax),%eax
  10501b:	50                   	push   %eax
  10501c:	68 e6 6e 10 00       	push   $0x106ee6
  105021:	ff 75 0c             	push   0xc(%ebp)
  105024:	ff 75 e4             	push   -0x1c(%ebp)
  105027:	e8 53 f5 ff ff       	call   10457f <snprintf>
  10502c:	83 c4 10             	add    $0x10,%esp
  10502f:	89 45 dc             	mov    %eax,-0x24(%ebp)
  105032:	e9 e8 04 00 00       	jmp    10551f <strftime+0x888>
  105037:	8b 45 14             	mov    0x14(%ebp),%eax
  10503a:	8b 40 08             	mov    0x8(%eax),%eax
  10503d:	50                   	push   %eax
  10503e:	68 d3 6e 10 00       	push   $0x106ed3
  105043:	ff 75 0c             	push   0xc(%ebp)
  105046:	ff 75 e4             	push   -0x1c(%ebp)
  105049:	e8 31 f5 ff ff       	call   10457f <snprintf>
  10504e:	83 c4 10             	add    $0x10,%esp
  105051:	89 45 dc             	mov    %eax,-0x24(%ebp)
  105054:	e9 c6 04 00 00       	jmp    10551f <strftime+0x888>
  105059:	8b 45 14             	mov    0x14(%ebp),%eax
  10505c:	8b 40 08             	mov    0x8(%eax),%eax
  10505f:	85 c0                	test   %eax,%eax
  105061:	74 39                	je     10509c <strftime+0x405>
  105063:	8b 45 14             	mov    0x14(%ebp),%eax
  105066:	8b 40 08             	mov    0x8(%eax),%eax
  105069:	83 f8 0c             	cmp    $0xc,%eax
  10506c:	74 27                	je     105095 <strftime+0x3fe>
  10506e:	8b 45 14             	mov    0x14(%ebp),%eax
  105071:	8b 48 08             	mov    0x8(%eax),%ecx
  105074:	ba ab aa aa 2a       	mov    $0x2aaaaaab,%edx
  105079:	89 c8                	mov    %ecx,%eax
  10507b:	f7 ea                	imul   %edx
  10507d:	d1 fa                	sar    %edx
  10507f:	89 c8                	mov    %ecx,%eax
  105081:	c1 f8 1f             	sar    $0x1f,%eax
  105084:	29 c2                	sub    %eax,%edx
  105086:	89 d0                	mov    %edx,%eax
  105088:	01 c0                	add    %eax,%eax
  10508a:	01 d0                	add    %edx,%eax
  10508c:	c1 e0 02             	shl    $0x2,%eax
  10508f:	29 c1                	sub    %eax,%ecx
  105091:	89 ca                	mov    %ecx,%edx
  105093:	eb 0c                	jmp    1050a1 <strftime+0x40a>
  105095:	ba 0c 00 00 00       	mov    $0xc,%edx
  10509a:	eb 05                	jmp    1050a1 <strftime+0x40a>
  10509c:	ba 0c 00 00 00       	mov    $0xc,%edx
  1050a1:	52                   	push   %edx
  1050a2:	68 d3 6e 10 00       	push   $0x106ed3
  1050a7:	ff 75 0c             	push   0xc(%ebp)
  1050aa:	ff 75 e4             	push   -0x1c(%ebp)
  1050ad:	e8 cd f4 ff ff       	call   10457f <snprintf>
  1050b2:	83 c4 10             	add    $0x10,%esp
  1050b5:	89 45 dc             	mov    %eax,-0x24(%ebp)
  1050b8:	e9 62 04 00 00       	jmp    10551f <strftime+0x888>
  1050bd:	8b 45 14             	mov    0x14(%ebp),%eax
  1050c0:	8b 40 10             	mov    0x10(%eax),%eax
  1050c3:	83 c0 01             	add    $0x1,%eax
  1050c6:	50                   	push   %eax
  1050c7:	68 bf 6e 10 00       	push   $0x106ebf
  1050cc:	ff 75 0c             	push   0xc(%ebp)
  1050cf:	ff 75 e4             	push   -0x1c(%ebp)
  1050d2:	e8 a8 f4 ff ff       	call   10457f <snprintf>
  1050d7:	83 c4 10             	add    $0x10,%esp
  1050da:	89 45 dc             	mov    %eax,-0x24(%ebp)
  1050dd:	e9 3d 04 00 00       	jmp    10551f <strftime+0x888>
  1050e2:	8b 45 14             	mov    0x14(%ebp),%eax
  1050e5:	8b 40 04             	mov    0x4(%eax),%eax
  1050e8:	50                   	push   %eax
  1050e9:	68 bf 6e 10 00       	push   $0x106ebf
  1050ee:	ff 75 0c             	push   0xc(%ebp)
  1050f1:	ff 75 e4             	push   -0x1c(%ebp)
  1050f4:	e8 86 f4 ff ff       	call   10457f <snprintf>
  1050f9:	83 c4 10             	add    $0x10,%esp
  1050fc:	89 45 dc             	mov    %eax,-0x24(%ebp)
  1050ff:	e9 1b 04 00 00       	jmp    10551f <strftime+0x888>
  105104:	83 ec 04             	sub    $0x4,%esp
  105107:	68 eb 6e 10 00       	push   $0x106eeb
  10510c:	ff 75 0c             	push   0xc(%ebp)
  10510f:	ff 75 e4             	push   -0x1c(%ebp)
  105112:	e8 68 f4 ff ff       	call   10457f <snprintf>
  105117:	83 c4 10             	add    $0x10,%esp
  10511a:	89 45 dc             	mov    %eax,-0x24(%ebp)
  10511d:	e9 fd 03 00 00       	jmp    10551f <strftime+0x888>
  105122:	8b 45 14             	mov    0x14(%ebp),%eax
  105125:	8b 40 08             	mov    0x8(%eax),%eax
  105128:	83 f8 0b             	cmp    $0xb,%eax
  10512b:	7f 07                	jg     105134 <strftime+0x49d>
  10512d:	b8 ed 6e 10 00       	mov    $0x106eed,%eax
  105132:	eb 05                	jmp    105139 <strftime+0x4a2>
  105134:	b8 f0 6e 10 00       	mov    $0x106ef0,%eax
  105139:	50                   	push   %eax
  10513a:	68 9c 6e 10 00       	push   $0x106e9c
  10513f:	ff 75 0c             	push   0xc(%ebp)
  105142:	ff 75 e4             	push   -0x1c(%ebp)
  105145:	e8 35 f4 ff ff       	call   10457f <snprintf>
  10514a:	83 c4 10             	add    $0x10,%esp
  10514d:	89 45 dc             	mov    %eax,-0x24(%ebp)
  105150:	e9 ca 03 00 00       	jmp    10551f <strftime+0x888>
  105155:	8b 45 14             	mov    0x14(%ebp),%eax
  105158:	8b 40 08             	mov    0x8(%eax),%eax
  10515b:	83 f8 0b             	cmp    $0xb,%eax
  10515e:	7f 07                	jg     105167 <strftime+0x4d0>
  105160:	b8 f3 6e 10 00       	mov    $0x106ef3,%eax
  105165:	eb 05                	jmp    10516c <strftime+0x4d5>
  105167:	b8 f6 6e 10 00       	mov    $0x106ef6,%eax
  10516c:	50                   	push   %eax
  10516d:	68 9c 6e 10 00       	push   $0x106e9c
  105172:	ff 75 0c             	push   0xc(%ebp)
  105175:	ff 75 e4             	push   -0x1c(%ebp)
  105178:	e8 02 f4 ff ff       	call   10457f <snprintf>
  10517d:	83 c4 10             	add    $0x10,%esp
  105180:	89 45 dc             	mov    %eax,-0x24(%ebp)
  105183:	e9 97 03 00 00       	jmp    10551f <strftime+0x888>
  105188:	8b 45 14             	mov    0x14(%ebp),%eax
  10518b:	8b 40 08             	mov    0x8(%eax),%eax
  10518e:	83 f8 0b             	cmp    $0xb,%eax
  105191:	7f 07                	jg     10519a <strftime+0x503>
  105193:	bf ed 6e 10 00       	mov    $0x106eed,%edi
  105198:	eb 05                	jmp    10519f <strftime+0x508>
  10519a:	bf f0 6e 10 00       	mov    $0x106ef0,%edi
  10519f:	8b 45 14             	mov    0x14(%ebp),%eax
  1051a2:	8b 30                	mov    (%eax),%esi
  1051a4:	8b 45 14             	mov    0x14(%ebp),%eax
  1051a7:	8b 58 04             	mov    0x4(%eax),%ebx
  1051aa:	8b 45 14             	mov    0x14(%ebp),%eax
  1051ad:	8b 40 08             	mov    0x8(%eax),%eax
  1051b0:	85 c0                	test   %eax,%eax
  1051b2:	74 39                	je     1051ed <strftime+0x556>
  1051b4:	8b 45 14             	mov    0x14(%ebp),%eax
  1051b7:	8b 40 08             	mov    0x8(%eax),%eax
  1051ba:	83 f8 0c             	cmp    $0xc,%eax
  1051bd:	74 27                	je     1051e6 <strftime+0x54f>
  1051bf:	8b 45 14             	mov    0x14(%ebp),%eax
  1051c2:	8b 48 08             	mov    0x8(%eax),%ecx
  1051c5:	ba ab aa aa 2a       	mov    $0x2aaaaaab,%edx
  1051ca:	89 c8                	mov    %ecx,%eax
  1051cc:	f7 ea                	imul   %edx
  1051ce:	d1 fa                	sar    %edx
  1051d0:	89 c8                	mov    %ecx,%eax
  1051d2:	c1 f8 1f             	sar    $0x1f,%eax
  1051d5:	29 c2                	sub    %eax,%edx
  1051d7:	89 d0                	mov    %edx,%eax
  1051d9:	01 c0                	add    %eax,%eax
  1051db:	01 d0                	add    %edx,%eax
  1051dd:	c1 e0 02             	shl    $0x2,%eax
  1051e0:	29 c1                	sub    %eax,%ecx
  1051e2:	89 ca                	mov    %ecx,%edx
  1051e4:	eb 0c                	jmp    1051f2 <strftime+0x55b>
  1051e6:	ba 0c 00 00 00       	mov    $0xc,%edx
  1051eb:	eb 05                	jmp    1051f2 <strftime+0x55b>
  1051ed:	ba 0c 00 00 00       	mov    $0xc,%edx
  1051f2:	83 ec 04             	sub    $0x4,%esp
  1051f5:	57                   	push   %edi
  1051f6:	56                   	push   %esi
  1051f7:	53                   	push   %ebx
  1051f8:	52                   	push   %edx
  1051f9:	68 f9 6e 10 00       	push   $0x106ef9
  1051fe:	ff 75 0c             	push   0xc(%ebp)
  105201:	ff 75 e4             	push   -0x1c(%ebp)
  105204:	e8 76 f3 ff ff       	call   10457f <snprintf>
  105209:	83 c4 20             	add    $0x20,%esp
  10520c:	89 45 dc             	mov    %eax,-0x24(%ebp)
  10520f:	e9 0b 03 00 00       	jmp    10551f <strftime+0x888>
  105214:	8b 45 14             	mov    0x14(%ebp),%eax
  105217:	8b 50 04             	mov    0x4(%eax),%edx
  10521a:	8b 45 14             	mov    0x14(%ebp),%eax
  10521d:	8b 40 08             	mov    0x8(%eax),%eax
  105220:	83 ec 0c             	sub    $0xc,%esp
  105223:	52                   	push   %edx
  105224:	50                   	push   %eax
  105225:	68 0b 6f 10 00       	push   $0x106f0b
  10522a:	ff 75 0c             	push   0xc(%ebp)
  10522d:	ff 75 e4             	push   -0x1c(%ebp)
  105230:	e8 4a f3 ff ff       	call   10457f <snprintf>
  105235:	83 c4 20             	add    $0x20,%esp
  105238:	89 45 dc             	mov    %eax,-0x24(%ebp)
  10523b:	e9 df 02 00 00       	jmp    10551f <strftime+0x888>
  105240:	83 ec 0c             	sub    $0xc,%esp
  105243:	ff 75 14             	push   0x14(%ebp)
  105246:	e8 cc f9 ff ff       	call   104c17 <mktime>
  10524b:	83 c4 10             	add    $0x10,%esp
  10524e:	50                   	push   %eax
  10524f:	68 15 6f 10 00       	push   $0x106f15
  105254:	ff 75 0c             	push   0xc(%ebp)
  105257:	ff 75 e4             	push   -0x1c(%ebp)
  10525a:	e8 20 f3 ff ff       	call   10457f <snprintf>
  10525f:	83 c4 10             	add    $0x10,%esp
  105262:	89 45 dc             	mov    %eax,-0x24(%ebp)
  105265:	e9 b5 02 00 00       	jmp    10551f <strftime+0x888>
  10526a:	8b 45 14             	mov    0x14(%ebp),%eax
  10526d:	8b 00                	mov    (%eax),%eax
  10526f:	50                   	push   %eax
  105270:	68 bf 6e 10 00       	push   $0x106ebf
  105275:	ff 75 0c             	push   0xc(%ebp)
  105278:	ff 75 e4             	push   -0x1c(%ebp)
  10527b:	e8 ff f2 ff ff       	call   10457f <snprintf>
  105280:	83 c4 10             	add    $0x10,%esp
  105283:	89 45 dc             	mov    %eax,-0x24(%ebp)
  105286:	e9 94 02 00 00       	jmp    10551f <strftime+0x888>
  10528b:	83 ec 04             	sub    $0x4,%esp
  10528e:	68 19 6f 10 00       	push   $0x106f19
  105293:	ff 75 0c             	push   0xc(%ebp)
  105296:	ff 75 e4             	push   -0x1c(%ebp)
  105299:	e8 e1 f2 ff ff       	call   10457f <snprintf>
  10529e:	83 c4 10             	add    $0x10,%esp
  1052a1:	89 45 dc             	mov    %eax,-0x24(%ebp)
  1052a4:	e9 76 02 00 00       	jmp    10551f <strftime+0x888>
  1052a9:	8b 45 14             	mov    0x14(%ebp),%eax
  1052ac:	8b 08                	mov    (%eax),%ecx
  1052ae:	8b 45 14             	mov    0x14(%ebp),%eax
  1052b1:	8b 50 04             	mov    0x4(%eax),%edx
  1052b4:	8b 45 14             	mov    0x14(%ebp),%eax
  1052b7:	8b 40 08             	mov    0x8(%eax),%eax
  1052ba:	83 ec 08             	sub    $0x8,%esp
  1052bd:	51                   	push   %ecx
  1052be:	52                   	push   %edx
  1052bf:	50                   	push   %eax
  1052c0:	68 1b 6f 10 00       	push   $0x106f1b
  1052c5:	ff 75 0c             	push   0xc(%ebp)
  1052c8:	ff 75 e4             	push   -0x1c(%ebp)
  1052cb:	e8 af f2 ff ff       	call   10457f <snprintf>
  1052d0:	83 c4 20             	add    $0x20,%esp
  1052d3:	89 45 dc             	mov    %eax,-0x24(%ebp)
  1052d6:	e9 44 02 00 00       	jmp    10551f <strftime+0x888>
  1052db:	8b 45 14             	mov    0x14(%ebp),%eax
  1052de:	8b 40 18             	mov    0x18(%eax),%eax
  1052e1:	85 c0                	test   %eax,%eax
  1052e3:	74 08                	je     1052ed <strftime+0x656>
  1052e5:	8b 45 14             	mov    0x14(%ebp),%eax
  1052e8:	8b 40 18             	mov    0x18(%eax),%eax
  1052eb:	eb 05                	jmp    1052f2 <strftime+0x65b>
  1052ed:	b8 07 00 00 00       	mov    $0x7,%eax
  1052f2:	50                   	push   %eax
  1052f3:	68 2a 6f 10 00       	push   $0x106f2a
  1052f8:	ff 75 0c             	push   0xc(%ebp)
  1052fb:	ff 75 e4             	push   -0x1c(%ebp)
  1052fe:	e8 7c f2 ff ff       	call   10457f <snprintf>
  105303:	83 c4 10             	add    $0x10,%esp
  105306:	89 45 dc             	mov    %eax,-0x24(%ebp)
  105309:	e9 11 02 00 00       	jmp    10551f <strftime+0x888>
  10530e:	8b 45 14             	mov    0x14(%ebp),%eax
  105311:	8b 40 18             	mov    0x18(%eax),%eax
  105314:	50                   	push   %eax
  105315:	68 2a 6f 10 00       	push   $0x106f2a
  10531a:	ff 75 0c             	push   0xc(%ebp)
  10531d:	ff 75 e4             	push   -0x1c(%ebp)
  105320:	e8 5a f2 ff ff       	call   10457f <snprintf>
  105325:	83 c4 10             	add    $0x10,%esp
  105328:	89 45 dc             	mov    %eax,-0x24(%ebp)
  10532b:	e9 ef 01 00 00       	jmp    10551f <strftime+0x888>
  105330:	8b 45 14             	mov    0x14(%ebp),%eax
  105333:	8b 48 14             	mov    0x14(%eax),%ecx
  105336:	ba 1f 85 eb 51       	mov    $0x51eb851f,%edx
  10533b:	89 c8                	mov    %ecx,%eax
  10533d:	f7 ea                	imul   %edx
  10533f:	89 d0                	mov    %edx,%eax
  105341:	c1 f8 05             	sar    $0x5,%eax
  105344:	89 ca                	mov    %ecx,%edx
  105346:	c1 fa 1f             	sar    $0x1f,%edx
  105349:	29 d0                	sub    %edx,%eax
  10534b:	6b d0 64             	imul   $0x64,%eax,%edx
  10534e:	89 c8                	mov    %ecx,%eax
  105350:	29 d0                	sub    %edx,%eax
  105352:	8b 55 14             	mov    0x14(%ebp),%edx
  105355:	8b 52 0c             	mov    0xc(%edx),%edx
  105358:	8b 4d 14             	mov    0x14(%ebp),%ecx
  10535b:	8b 49 10             	mov    0x10(%ecx),%ecx
  10535e:	83 c1 01             	add    $0x1,%ecx
  105361:	83 ec 08             	sub    $0x8,%esp
  105364:	50                   	push   %eax
  105365:	52                   	push   %edx
  105366:	51                   	push   %ecx
  105367:	68 c4 6e 10 00       	push   $0x106ec4
  10536c:	ff 75 0c             	push   0xc(%ebp)
  10536f:	ff 75 e4             	push   -0x1c(%ebp)
  105372:	e8 08 f2 ff ff       	call   10457f <snprintf>
  105377:	83 c4 20             	add    $0x20,%esp
  10537a:	89 45 dc             	mov    %eax,-0x24(%ebp)
  10537d:	e9 9d 01 00 00       	jmp    10551f <strftime+0x888>
  105382:	8b 45 14             	mov    0x14(%ebp),%eax
  105385:	8b 08                	mov    (%eax),%ecx
  105387:	8b 45 14             	mov    0x14(%ebp),%eax
  10538a:	8b 50 04             	mov    0x4(%eax),%edx
  10538d:	8b 45 14             	mov    0x14(%ebp),%eax
  105390:	8b 40 08             	mov    0x8(%eax),%eax
  105393:	83 ec 08             	sub    $0x8,%esp
  105396:	51                   	push   %ecx
  105397:	52                   	push   %edx
  105398:	50                   	push   %eax
  105399:	68 1b 6f 10 00       	push   $0x106f1b
  10539e:	ff 75 0c             	push   0xc(%ebp)
  1053a1:	ff 75 e4             	push   -0x1c(%ebp)
  1053a4:	e8 d6 f1 ff ff       	call   10457f <snprintf>
  1053a9:	83 c4 20             	add    $0x20,%esp
  1053ac:	89 45 dc             	mov    %eax,-0x24(%ebp)
  1053af:	e9 6b 01 00 00       	jmp    10551f <strftime+0x888>
  1053b4:	8b 45 14             	mov    0x14(%ebp),%eax
  1053b7:	8b 48 14             	mov    0x14(%eax),%ecx
  1053ba:	ba 1f 85 eb 51       	mov    $0x51eb851f,%edx
  1053bf:	89 c8                	mov    %ecx,%eax
  1053c1:	f7 ea                	imul   %edx
  1053c3:	89 d0                	mov    %edx,%eax
  1053c5:	c1 f8 05             	sar    $0x5,%eax
  1053c8:	89 ca                	mov    %ecx,%edx
  1053ca:	c1 fa 1f             	sar    $0x1f,%edx
  1053cd:	29 d0                	sub    %edx,%eax
  1053cf:	6b d0 64             	imul   $0x64,%eax,%edx
  1053d2:	89 c8                	mov    %ecx,%eax
  1053d4:	29 d0                	sub    %edx,%eax
  1053d6:	50                   	push   %eax
  1053d7:	68 bf 6e 10 00       	push   $0x106ebf
  1053dc:	ff 75 0c             	push   0xc(%ebp)
  1053df:	ff 75 e4             	push   -0x1c(%ebp)
  1053e2:	e8 98 f1 ff ff       	call   10457f <snprintf>
  1053e7:	83 c4 10             	add    $0x10,%esp
  1053ea:	89 45 dc             	mov    %eax,-0x24(%ebp)
  1053ed:	e9 2d 01 00 00       	jmp    10551f <strftime+0x888>
  1053f2:	8b 45 14             	mov    0x14(%ebp),%eax
  1053f5:	8b 40 14             	mov    0x14(%eax),%eax
  1053f8:	05 6c 07 00 00       	add    $0x76c,%eax
  1053fd:	50                   	push   %eax
  1053fe:	68 2d 6f 10 00       	push   $0x106f2d
  105403:	ff 75 0c             	push   0xc(%ebp)
  105406:	ff 75 e4             	push   -0x1c(%ebp)
  105409:	e8 71 f1 ff ff       	call   10457f <snprintf>
  10540e:	83 c4 10             	add    $0x10,%esp
  105411:	89 45 dc             	mov    %eax,-0x24(%ebp)
  105414:	e9 06 01 00 00       	jmp    10551f <strftime+0x888>
  105419:	8b 45 14             	mov    0x14(%ebp),%eax
  10541c:	8b 40 28             	mov    0x28(%eax),%eax
  10541f:	89 c2                	mov    %eax,%edx
  105421:	f7 da                	neg    %edx
  105423:	0f 49 c2             	cmovns %edx,%eax
  105426:	89 45 d0             	mov    %eax,-0x30(%ebp)
  105429:	8b 45 14             	mov    0x14(%ebp),%eax
  10542c:	8b 40 28             	mov    0x28(%eax),%eax
  10542f:	85 c0                	test   %eax,%eax
  105431:	78 07                	js     10543a <strftime+0x7a3>
  105433:	b8 2b 00 00 00       	mov    $0x2b,%eax
  105438:	eb 05                	jmp    10543f <strftime+0x7a8>
  10543a:	b8 2d 00 00 00       	mov    $0x2d,%eax
  10543f:	88 45 cf             	mov    %al,-0x31(%ebp)
  105442:	8b 4d d0             	mov    -0x30(%ebp),%ecx
  105445:	ba c5 b3 a2 91       	mov    $0x91a2b3c5,%edx
  10544a:	89 c8                	mov    %ecx,%eax
  10544c:	f7 ea                	imul   %edx
  10544e:	8d 04 0a             	lea    (%edx,%ecx,1),%eax
  105451:	c1 f8 0b             	sar    $0xb,%eax
  105454:	c1 f9 1f             	sar    $0x1f,%ecx
  105457:	89 ca                	mov    %ecx,%edx
  105459:	29 d0                	sub    %edx,%eax
  10545b:	89 45 c8             	mov    %eax,-0x38(%ebp)
  10545e:	8b 4d d0             	mov    -0x30(%ebp),%ecx
  105461:	ba 89 88 88 88       	mov    $0x88888889,%edx
  105466:	89 c8                	mov    %ecx,%eax
  105468:	f7 ea                	imul   %edx
  10546a:	8d 04 0a             	lea    (%edx,%ecx,1),%eax
  10546d:	c1 f8 05             	sar    $0x5,%eax
  105470:	89 c2                	mov    %eax,%edx
  105472:	89 c8                	mov    %ecx,%eax
  105474:	c1 f8 1f             	sar    $0x1f,%eax
  105477:	89 d1                	mov    %edx,%ecx
  105479:	29 c1                	sub    %eax,%ecx
  10547b:	ba 89 88 88 88       	mov    $0x88888889,%edx
  105480:	89 c8                	mov    %ecx,%eax
  105482:	f7 ea                	imul   %edx
  105484:	8d 04 0a             	lea    (%edx,%ecx,1),%eax
  105487:	c1 f8 05             	sar    $0x5,%eax
  10548a:	89 ca                	mov    %ecx,%edx
  10548c:	c1 fa 1f             	sar    $0x1f,%edx
  10548f:	29 d0                	sub    %edx,%eax
  105491:	89 45 c4             	mov    %eax,-0x3c(%ebp)
  105494:	8b 45 c4             	mov    -0x3c(%ebp),%eax
  105497:	6b c0 3c             	imul   $0x3c,%eax,%eax
  10549a:	29 c1                	sub    %eax,%ecx
  10549c:	89 ca                	mov    %ecx,%edx
  10549e:	89 55 c4             	mov    %edx,-0x3c(%ebp)
  1054a1:	0f be 45 cf          	movsbl -0x31(%ebp),%eax
  1054a5:	83 ec 08             	sub    $0x8,%esp
  1054a8:	ff 75 c4             	push   -0x3c(%ebp)
  1054ab:	ff 75 c8             	push   -0x38(%ebp)
  1054ae:	50                   	push   %eax
  1054af:	68 32 6f 10 00       	push   $0x106f32
  1054b4:	ff 75 0c             	push   0xc(%ebp)
  1054b7:	ff 75 e4             	push   -0x1c(%ebp)
  1054ba:	e8 c0 f0 ff ff       	call   10457f <snprintf>
  1054bf:	83 c4 20             	add    $0x20,%esp
  1054c2:	89 45 dc             	mov    %eax,-0x24(%ebp)
  1054c5:	eb 58                	jmp    10551f <strftime+0x888>
  1054c7:	8b 45 14             	mov    0x14(%ebp),%eax
  1054ca:	8b 40 24             	mov    0x24(%eax),%eax
  1054cd:	83 ec 04             	sub    $0x4,%esp
  1054d0:	50                   	push   %eax
  1054d1:	ff 75 0c             	push   0xc(%ebp)
  1054d4:	ff 75 e4             	push   -0x1c(%ebp)
  1054d7:	e8 a3 f0 ff ff       	call   10457f <snprintf>
  1054dc:	83 c4 10             	add    $0x10,%esp
  1054df:	89 45 dc             	mov    %eax,-0x24(%ebp)
  1054e2:	eb 3b                	jmp    10551f <strftime+0x888>
  1054e4:	6a 25                	push   $0x25
  1054e6:	68 3d 6f 10 00       	push   $0x106f3d
  1054eb:	ff 75 0c             	push   0xc(%ebp)
  1054ee:	ff 75 e4             	push   -0x1c(%ebp)
  1054f1:	e8 89 f0 ff ff       	call   10457f <snprintf>
  1054f6:	83 c4 10             	add    $0x10,%esp
  1054f9:	89 45 dc             	mov    %eax,-0x24(%ebp)
  1054fc:	eb 21                	jmp    10551f <strftime+0x888>
  1054fe:	8b 45 e0             	mov    -0x20(%ebp),%eax
  105501:	0f b6 00             	movzbl (%eax),%eax
  105504:	0f be c0             	movsbl %al,%eax
  105507:	50                   	push   %eax
  105508:	68 40 6f 10 00       	push   $0x106f40
  10550d:	ff 75 0c             	push   0xc(%ebp)
  105510:	ff 75 e4             	push   -0x1c(%ebp)
  105513:	e8 67 f0 ff ff       	call   10457f <snprintf>
  105518:	83 c4 10             	add    $0x10,%esp
  10551b:	89 45 dc             	mov    %eax,-0x24(%ebp)
  10551e:	90                   	nop
  10551f:	83 7d dc 00          	cmpl   $0x0,-0x24(%ebp)
  105523:	79 07                	jns    10552c <strftime+0x895>
  105525:	b8 00 00 00 00       	mov    $0x0,%eax
  10552a:	eb 39                	jmp    105565 <strftime+0x8ce>
  10552c:	8b 45 dc             	mov    -0x24(%ebp),%eax
  10552f:	3b 45 0c             	cmp    0xc(%ebp),%eax
  105532:	72 07                	jb     10553b <strftime+0x8a4>
  105534:	b8 00 00 00 00       	mov    $0x0,%eax
  105539:	eb 2a                	jmp    105565 <strftime+0x8ce>
  10553b:	8b 45 dc             	mov    -0x24(%ebp),%eax
  10553e:	29 45 0c             	sub    %eax,0xc(%ebp)
  105541:	8b 45 dc             	mov    -0x24(%ebp),%eax
  105544:	01 45 e4             	add    %eax,-0x1c(%ebp)
  105547:	83 45 e0 01          	addl   $0x1,-0x20(%ebp)
  10554b:	8b 45 e0             	mov    -0x20(%ebp),%eax
  10554e:	0f b6 00             	movzbl (%eax),%eax
  105551:	84 c0                	test   %al,%al
  105553:	0f 85 86 f7 ff ff    	jne    104cdf <strftime+0x48>
  105559:	8b 45 e4             	mov    -0x1c(%ebp),%eax
  10555c:	c6 00 00             	movb   $0x0,(%eax)
  10555f:	8b 45 e4             	mov    -0x1c(%ebp),%eax
  105562:	2b 45 08             	sub    0x8(%ebp),%eax
  105565:	8d 65 f4             	lea    -0xc(%ebp),%esp
  105568:	5b                   	pop    %ebx
  105569:	5e                   	pop    %esi
  10556a:	5f                   	pop    %edi
  10556b:	5d                   	pop    %ebp
  10556c:	c3                   	ret    

0010556d <asctime>:
  10556d:	55                   	push   %ebp
  10556e:	89 e5                	mov    %esp,%ebp
  105570:	83 ec 08             	sub    $0x8,%esp
  105573:	ff 75 08             	push   0x8(%ebp)
  105576:	68 ac 70 10 00       	push   $0x1070ac
  10557b:	6a 1a                	push   $0x1a
  10557d:	68 cc de 10 00       	push   $0x10decc
  105582:	e8 10 f7 ff ff       	call   104c97 <strftime>
  105587:	83 c4 10             	add    $0x10,%esp
  10558a:	b8 cc de 10 00       	mov    $0x10decc,%eax
  10558f:	c9                   	leave  
  105590:	c3                   	ret    

00105591 <time>:
  105591:	55                   	push   %ebp
  105592:	89 e5                	mov    %esp,%ebp
  105594:	83 ec 18             	sub    $0x18,%esp
  105597:	83 ec 08             	sub    $0x8,%esp
  10559a:	6a 00                	push   $0x0
  10559c:	8d 45 f0             	lea    -0x10(%ebp),%eax
  10559f:	50                   	push   %eax
  1055a0:	e8 47 00 00 00       	call   1055ec <gettimeofday>
  1055a5:	83 c4 10             	add    $0x10,%esp
  1055a8:	83 7d 08 00          	cmpl   $0x0,0x8(%ebp)
  1055ac:	74 08                	je     1055b6 <time+0x25>
  1055ae:	8b 55 f0             	mov    -0x10(%ebp),%edx
  1055b1:	8b 45 08             	mov    0x8(%ebp),%eax
  1055b4:	89 10                	mov    %edx,(%eax)
  1055b6:	8b 45 f0             	mov    -0x10(%ebp),%eax
  1055b9:	c9                   	leave  
  1055ba:	c3                   	ret    

001055bb <difftime>:
  1055bb:	55                   	push   %ebp
  1055bc:	89 e5                	mov    %esp,%ebp
  1055be:	83 ec 08             	sub    $0x8,%esp
  1055c1:	8b 45 08             	mov    0x8(%ebp),%eax
  1055c4:	2b 45 0c             	sub    0xc(%ebp),%eax
  1055c7:	89 45 fc             	mov    %eax,-0x4(%ebp)
  1055ca:	db 45 fc             	fildl  -0x4(%ebp)
  1055cd:	c9                   	leave  
  1055ce:	c3                   	ret    

001055cf <now>:
  1055cf:	55                   	push   %ebp
  1055d0:	89 e5                	mov    %esp,%ebp
  1055d2:	83 ec 18             	sub    $0x18,%esp
  1055d5:	83 ec 08             	sub    $0x8,%esp
  1055d8:	6a 00                	push   $0x0
  1055da:	8d 45 f0             	lea    -0x10(%ebp),%eax
  1055dd:	50                   	push   %eax
  1055de:	e8 09 00 00 00       	call   1055ec <gettimeofday>
  1055e3:	83 c4 10             	add    $0x10,%esp
  1055e6:	8b 45 f0             	mov    -0x10(%ebp),%eax
  1055e9:	99                   	cltd   
  1055ea:	c9                   	leave  
  1055eb:	c3                   	ret    

001055ec <gettimeofday>:
  1055ec:	55                   	push   %ebp
  1055ed:	89 e5                	mov    %esp,%ebp
  1055ef:	83 ec 08             	sub    $0x8,%esp
  1055f2:	83 ec 08             	sub    $0x8,%esp
  1055f5:	ff 75 0c             	push   0xc(%ebp)
  1055f8:	ff 75 08             	push   0x8(%ebp)
  1055fb:	e8 16 ab ff ff       	call   100116 <clock_gettimeofday>
  105600:	83 c4 10             	add    $0x10,%esp
  105603:	c9                   	leave  
  105604:	c3                   	ret    
  105605:	66 90                	xchg   %ax,%ax
  105607:	66 90                	xchg   %ax,%ax
  105609:	66 90                	xchg   %ax,%ax
  10560b:	66 90                	xchg   %ax,%ax
  10560d:	66 90                	xchg   %ax,%ax
  10560f:	90                   	nop

00105610 <__udivdi3>:
  105610:	55                   	push   %ebp
  105611:	89 e5                	mov    %esp,%ebp
  105613:	57                   	push   %edi
  105614:	56                   	push   %esi
  105615:	53                   	push   %ebx
  105616:	83 ec 1c             	sub    $0x1c,%esp
  105619:	8b 7d 08             	mov    0x8(%ebp),%edi
  10561c:	8b 45 14             	mov    0x14(%ebp),%eax
  10561f:	8b 75 0c             	mov    0xc(%ebp),%esi
  105622:	8b 5d 10             	mov    0x10(%ebp),%ebx
  105625:	89 7d e4             	mov    %edi,-0x1c(%ebp)
  105628:	85 c0                	test   %eax,%eax
  10562a:	75 1c                	jne    105648 <__udivdi3+0x38>
  10562c:	39 de                	cmp    %ebx,%esi
  10562e:	73 50                	jae    105680 <__udivdi3+0x70>
  105630:	89 f8                	mov    %edi,%eax
  105632:	31 ff                	xor    %edi,%edi
  105634:	89 f2                	mov    %esi,%edx
  105636:	f7 f3                	div    %ebx
  105638:	89 fa                	mov    %edi,%edx
  10563a:	83 c4 1c             	add    $0x1c,%esp
  10563d:	5b                   	pop    %ebx
  10563e:	5e                   	pop    %esi
  10563f:	5f                   	pop    %edi
  105640:	5d                   	pop    %ebp
  105641:	c3                   	ret    
  105642:	8d b6 00 00 00 00    	lea    0x0(%esi),%esi
  105648:	39 c6                	cmp    %eax,%esi
  10564a:	73 14                	jae    105660 <__udivdi3+0x50>
  10564c:	31 ff                	xor    %edi,%edi
  10564e:	31 c0                	xor    %eax,%eax
  105650:	89 fa                	mov    %edi,%edx
  105652:	83 c4 1c             	add    $0x1c,%esp
  105655:	5b                   	pop    %ebx
  105656:	5e                   	pop    %esi
  105657:	5f                   	pop    %edi
  105658:	5d                   	pop    %ebp
  105659:	c3                   	ret    
  10565a:	8d b6 00 00 00 00    	lea    0x0(%esi),%esi
  105660:	0f bd f8             	bsr    %eax,%edi
  105663:	83 f7 1f             	xor    $0x1f,%edi
  105666:	75 48                	jne    1056b0 <__udivdi3+0xa0>
  105668:	39 f0                	cmp    %esi,%eax
  10566a:	72 07                	jb     105673 <__udivdi3+0x63>
  10566c:	31 c0                	xor    %eax,%eax
  10566e:	39 5d e4             	cmp    %ebx,-0x1c(%ebp)
  105671:	72 dd                	jb     105650 <__udivdi3+0x40>
  105673:	b8 01 00 00 00       	mov    $0x1,%eax
  105678:	eb d6                	jmp    105650 <__udivdi3+0x40>
  10567a:	8d b6 00 00 00 00    	lea    0x0(%esi),%esi
  105680:	89 d9                	mov    %ebx,%ecx
  105682:	85 db                	test   %ebx,%ebx
  105684:	75 0b                	jne    105691 <__udivdi3+0x81>
  105686:	b8 01 00 00 00       	mov    $0x1,%eax
  10568b:	31 d2                	xor    %edx,%edx
  10568d:	f7 f3                	div    %ebx
  10568f:	89 c1                	mov    %eax,%ecx
  105691:	31 d2                	xor    %edx,%edx
  105693:	89 f0                	mov    %esi,%eax
  105695:	f7 f1                	div    %ecx
  105697:	89 c6                	mov    %eax,%esi
  105699:	8b 45 e4             	mov    -0x1c(%ebp),%eax
  10569c:	89 f7                	mov    %esi,%edi
  10569e:	f7 f1                	div    %ecx
  1056a0:	89 fa                	mov    %edi,%edx
  1056a2:	83 c4 1c             	add    $0x1c,%esp
  1056a5:	5b                   	pop    %ebx
  1056a6:	5e                   	pop    %esi
  1056a7:	5f                   	pop    %edi
  1056a8:	5d                   	pop    %ebp
  1056a9:	c3                   	ret    
  1056aa:	8d b6 00 00 00 00    	lea    0x0(%esi),%esi
  1056b0:	89 f9                	mov    %edi,%ecx
  1056b2:	ba 20 00 00 00       	mov    $0x20,%edx
  1056b7:	29 fa                	sub    %edi,%edx
  1056b9:	d3 e0                	shl    %cl,%eax
  1056bb:	89 45 e0             	mov    %eax,-0x20(%ebp)
  1056be:	89 d1                	mov    %edx,%ecx
  1056c0:	89 d8                	mov    %ebx,%eax
  1056c2:	d3 e8                	shr    %cl,%eax
  1056c4:	89 c1                	mov    %eax,%ecx
  1056c6:	8b 45 e0             	mov    -0x20(%ebp),%eax
  1056c9:	09 c1                	or     %eax,%ecx
  1056cb:	89 f0                	mov    %esi,%eax
  1056cd:	89 4d e0             	mov    %ecx,-0x20(%ebp)
  1056d0:	89 f9                	mov    %edi,%ecx
  1056d2:	d3 e3                	shl    %cl,%ebx
  1056d4:	89 d1                	mov    %edx,%ecx
  1056d6:	d3 e8                	shr    %cl,%eax
  1056d8:	89 5d dc             	mov    %ebx,-0x24(%ebp)
  1056db:	89 f9                	mov    %edi,%ecx
  1056dd:	8b 5d e4             	mov    -0x1c(%ebp),%ebx
  1056e0:	d3 e6                	shl    %cl,%esi
  1056e2:	89 d1                	mov    %edx,%ecx
  1056e4:	d3 eb                	shr    %cl,%ebx
  1056e6:	09 f3                	or     %esi,%ebx
  1056e8:	89 c6                	mov    %eax,%esi
  1056ea:	89 f2                	mov    %esi,%edx
  1056ec:	89 d8                	mov    %ebx,%eax
  1056ee:	f7 75 e0             	divl   -0x20(%ebp)
  1056f1:	89 d6                	mov    %edx,%esi
  1056f3:	89 c3                	mov    %eax,%ebx
  1056f5:	f7 65 dc             	mull   -0x24(%ebp)
  1056f8:	89 55 e0             	mov    %edx,-0x20(%ebp)
  1056fb:	39 d6                	cmp    %edx,%esi
  1056fd:	72 21                	jb     105720 <__udivdi3+0x110>
  1056ff:	8b 55 e4             	mov    -0x1c(%ebp),%edx
  105702:	89 f9                	mov    %edi,%ecx
  105704:	d3 e2                	shl    %cl,%edx
  105706:	39 c2                	cmp    %eax,%edx
  105708:	73 07                	jae    105711 <__udivdi3+0x101>
  10570a:	8b 55 e0             	mov    -0x20(%ebp),%edx
  10570d:	39 d6                	cmp    %edx,%esi
  10570f:	74 0f                	je     105720 <__udivdi3+0x110>
  105711:	89 d8                	mov    %ebx,%eax
  105713:	31 ff                	xor    %edi,%edi
  105715:	e9 36 ff ff ff       	jmp    105650 <__udivdi3+0x40>
  10571a:	8d b6 00 00 00 00    	lea    0x0(%esi),%esi
  105720:	8d 43 ff             	lea    -0x1(%ebx),%eax
  105723:	31 ff                	xor    %edi,%edi
  105725:	e9 26 ff ff ff       	jmp    105650 <__udivdi3+0x40>
  10572a:	66 90                	xchg   %ax,%ax
  10572c:	66 90                	xchg   %ax,%ax
  10572e:	66 90                	xchg   %ax,%ax

00105730 <__umoddi3>:
  105730:	55                   	push   %ebp
  105731:	89 e5                	mov    %esp,%ebp
  105733:	57                   	push   %edi
  105734:	56                   	push   %esi
  105735:	53                   	push   %ebx
  105736:	83 ec 2c             	sub    $0x2c,%esp
  105739:	8b 5d 0c             	mov    0xc(%ebp),%ebx
  10573c:	8b 45 14             	mov    0x14(%ebp),%eax
  10573f:	8b 75 08             	mov    0x8(%ebp),%esi
  105742:	8b 7d 10             	mov    0x10(%ebp),%edi
  105745:	89 da                	mov    %ebx,%edx
  105747:	85 c0                	test   %eax,%eax
  105749:	75 15                	jne    105760 <__umoddi3+0x30>
  10574b:	39 fb                	cmp    %edi,%ebx
  10574d:	73 51                	jae    1057a0 <__umoddi3+0x70>
  10574f:	89 f0                	mov    %esi,%eax
  105751:	f7 f7                	div    %edi
  105753:	89 d0                	mov    %edx,%eax
  105755:	31 d2                	xor    %edx,%edx
  105757:	83 c4 2c             	add    $0x2c,%esp
  10575a:	5b                   	pop    %ebx
  10575b:	5e                   	pop    %esi
  10575c:	5f                   	pop    %edi
  10575d:	5d                   	pop    %ebp
  10575e:	c3                   	ret    
  10575f:	90                   	nop
  105760:	89 75 e0             	mov    %esi,-0x20(%ebp)
  105763:	39 c3                	cmp    %eax,%ebx
  105765:	73 11                	jae    105778 <__umoddi3+0x48>
  105767:	89 f0                	mov    %esi,%eax
  105769:	83 c4 2c             	add    $0x2c,%esp
  10576c:	5b                   	pop    %ebx
  10576d:	5e                   	pop    %esi
  10576e:	5f                   	pop    %edi
  10576f:	5d                   	pop    %ebp
  105770:	c3                   	ret    
  105771:	8d b4 26 00 00 00 00 	lea    0x0(%esi,%eiz,1),%esi
  105778:	0f bd c8             	bsr    %eax,%ecx
  10577b:	83 f1 1f             	xor    $0x1f,%ecx
  10577e:	89 4d e4             	mov    %ecx,-0x1c(%ebp)
  105781:	75 3d                	jne    1057c0 <__umoddi3+0x90>
  105783:	39 d8                	cmp    %ebx,%eax
  105785:	0f 82 d5 00 00 00    	jb     105860 <__umoddi3+0x130>
  10578b:	39 fe                	cmp    %edi,%esi
  10578d:	0f 83 cd 00 00 00    	jae    105860 <__umoddi3+0x130>
  105793:	8b 45 e0             	mov    -0x20(%ebp),%eax
  105796:	83 c4 2c             	add    $0x2c,%esp
  105799:	5b                   	pop    %ebx
  10579a:	5e                   	pop    %esi
  10579b:	5f                   	pop    %edi
  10579c:	5d                   	pop    %ebp
  10579d:	c3                   	ret    
  10579e:	66 90                	xchg   %ax,%ax
  1057a0:	89 f9                	mov    %edi,%ecx
  1057a2:	85 ff                	test   %edi,%edi
  1057a4:	75 0b                	jne    1057b1 <__umoddi3+0x81>
  1057a6:	b8 01 00 00 00       	mov    $0x1,%eax
  1057ab:	31 d2                	xor    %edx,%edx
  1057ad:	f7 f7                	div    %edi
  1057af:	89 c1                	mov    %eax,%ecx
  1057b1:	89 d8                	mov    %ebx,%eax
  1057b3:	31 d2                	xor    %edx,%edx
  1057b5:	f7 f1                	div    %ecx
  1057b7:	89 f0                	mov    %esi,%eax
  1057b9:	f7 f1                	div    %ecx
  1057bb:	eb 96                	jmp    105753 <__umoddi3+0x23>
  1057bd:	8d 76 00             	lea    0x0(%esi),%esi
  1057c0:	8b 4d e4             	mov    -0x1c(%ebp),%ecx
  1057c3:	ba 20 00 00 00       	mov    $0x20,%edx
  1057c8:	29 ca                	sub    %ecx,%edx
  1057ca:	0f b6 4d e4          	movzbl -0x1c(%ebp),%ecx
  1057ce:	89 55 e0             	mov    %edx,-0x20(%ebp)
  1057d1:	d3 e0                	shl    %cl,%eax
  1057d3:	0f b6 4d e0          	movzbl -0x20(%ebp),%ecx
  1057d7:	89 45 dc             	mov    %eax,-0x24(%ebp)
  1057da:	89 f8                	mov    %edi,%eax
  1057dc:	d3 e8                	shr    %cl,%eax
  1057de:	0f b6 4d e4          	movzbl -0x1c(%ebp),%ecx
  1057e2:	89 c2                	mov    %eax,%edx
  1057e4:	8b 45 dc             	mov    -0x24(%ebp),%eax
  1057e7:	d3 e7                	shl    %cl,%edi
  1057e9:	09 c2                	or     %eax,%edx
  1057eb:	8b 45 e0             	mov    -0x20(%ebp),%eax
  1057ee:	89 7d d8             	mov    %edi,-0x28(%ebp)
  1057f1:	89 f7                	mov    %esi,%edi
  1057f3:	89 55 dc             	mov    %edx,-0x24(%ebp)
  1057f6:	89 da                	mov    %ebx,%edx
  1057f8:	89 c1                	mov    %eax,%ecx
  1057fa:	d3 ea                	shr    %cl,%edx
  1057fc:	0f b6 4d e4          	movzbl -0x1c(%ebp),%ecx
  105800:	d3 e3                	shl    %cl,%ebx
  105802:	89 c1                	mov    %eax,%ecx
  105804:	d3 ef                	shr    %cl,%edi
  105806:	0f b6 4d e4          	movzbl -0x1c(%ebp),%ecx
  10580a:	89 f8                	mov    %edi,%eax
  10580c:	d3 e6                	shl    %cl,%esi
  10580e:	09 d8                	or     %ebx,%eax
  105810:	f7 75 dc             	divl   -0x24(%ebp)
  105813:	89 d3                	mov    %edx,%ebx
  105815:	89 75 d4             	mov    %esi,-0x2c(%ebp)
  105818:	89 f7                	mov    %esi,%edi
  10581a:	f7 65 d8             	mull   -0x28(%ebp)
  10581d:	89 c6                	mov    %eax,%esi
  10581f:	89 d1                	mov    %edx,%ecx
  105821:	39 d3                	cmp    %edx,%ebx
  105823:	72 06                	jb     10582b <__umoddi3+0xfb>
  105825:	75 0e                	jne    105835 <__umoddi3+0x105>
  105827:	39 c7                	cmp    %eax,%edi
  105829:	73 0a                	jae    105835 <__umoddi3+0x105>
  10582b:	2b 45 d8             	sub    -0x28(%ebp),%eax
  10582e:	1b 55 dc             	sbb    -0x24(%ebp),%edx
  105831:	89 d1                	mov    %edx,%ecx
  105833:	89 c6                	mov    %eax,%esi
  105835:	8b 45 d4             	mov    -0x2c(%ebp),%eax
  105838:	8b 7d e4             	mov    -0x1c(%ebp),%edi
  10583b:	29 f0                	sub    %esi,%eax
  10583d:	19 cb                	sbb    %ecx,%ebx
  10583f:	0f b6 4d e0          	movzbl -0x20(%ebp),%ecx
  105843:	89 da                	mov    %ebx,%edx
  105845:	d3 e2                	shl    %cl,%edx
  105847:	89 f9                	mov    %edi,%ecx
  105849:	d3 e8                	shr    %cl,%eax
  10584b:	d3 eb                	shr    %cl,%ebx
  10584d:	09 d0                	or     %edx,%eax
  10584f:	89 da                	mov    %ebx,%edx
  105851:	83 c4 2c             	add    $0x2c,%esp
  105854:	5b                   	pop    %ebx
  105855:	5e                   	pop    %esi
  105856:	5f                   	pop    %edi
  105857:	5d                   	pop    %ebp
  105858:	c3                   	ret    
  105859:	8d b4 26 00 00 00 00 	lea    0x0(%esi,%eiz,1),%esi
  105860:	89 da                	mov    %ebx,%edx
  105862:	29 fe                	sub    %edi,%esi
  105864:	19 c2                	sbb    %eax,%edx
  105866:	89 75 e0             	mov    %esi,-0x20(%ebp)
  105869:	e9 25 ff ff ff       	jmp    105793 <__umoddi3+0x63>

Disassembly of section .rodata:

00106000 <__rodata_start>:
  106000:	25 64 2e 25 64       	and    $0x64252e64,%eax
  106005:	2e 25 64 2d 25 73    	cs and $0x73252d64,%eax
  10600b:	2d 25 73 00 4e       	sub    $0x4e007325,%eax
  106010:	6f                   	outsl  %ds:(%esi),(%dx)
  106011:	76 20                	jbe    106033 <__kernel_version_lower+0x7>
  106013:	20 39                	and    %bh,(%ecx)
  106015:	20 32                	and    %dh,(%edx)
  106017:	30 32                	xor    %dh,(%edx)
  106019:	34 00                	xor    $0x0,%al
  10601b:	30 38                	xor    %bh,(%eax)
  10601d:	3a 34 39             	cmp    (%ecx,%edi,1),%dh
  106020:	3a 33                	cmp    (%ebx),%dh
  106022:	39 00                	cmp    %eax,(%eax)

00106024 <__kernel_version_major>:
  106024:	01 00                	add    %eax,(%eax)
	...

00106028 <__kernel_version_minor>:
  106028:	00 00                	add    %al,(%eax)
	...

0010602c <__kernel_version_lower>:
  10602c:	00 00                	add    %al,(%eax)
  10602e:	00 00                	add    %al,(%eax)
  106030:	50                   	push   %eax
  106031:	68 6f 65 6e 69       	push   $0x696e656f
  106036:	78 00                	js     106038 <__kernel_version_lower+0xc>
  106038:	20 20                	and    %ah,(%eax)
  10603a:	20 20                	and    %ah,(%eax)
  10603c:	2e 2b 2d 2d 2d 2d 2d 	sub    %cs:0x2d2d2d2d,%ebp
  106043:	2d 2b 0a 20 20       	sub    $0x20200a2b,%eax
  106048:	2e 27                	cs daa 
  10604a:	20 7c 20 20          	and    %bh,0x20(%eax,%eiz,1)
  10604e:	20 20                	and    %ah,(%eax)
  106050:	2e 27                	cs daa 
  106052:	7c 0a                	jl     10605e <__kernel_version_lower+0x32>
  106054:	20 2b                	and    %ch,(%ebx)
  106056:	2d 2d 2d 2b 2d       	sub    $0x2d2b2d2d,%eax
  10605b:	2d 2b 27 20 20       	sub    $0x2020272b,%eax
  106060:	7c 09                	jl     10606b <__kernel_version_lower+0x3f>
  106062:	48                   	dec    %eax
  106063:	20 45 20             	and    %al,0x20(%ebp)
  106066:	58                   	pop    %eax
  106067:	20 41 20             	and    %al,0x20(%ecx)
  10606a:	48                   	dec    %eax
  10606b:	20 45 20             	and    %al,0x20(%ebp)
  10606e:	44                   	inc    %esp
  10606f:	20 52 20             	and    %dl,0x20(%edx)
  106072:	4f                   	dec    %edi
  106073:	20 4e 20             	and    %cl,0x20(%esi)
  106076:	20 20                	and    %ah,(%eax)
  106078:	4b                   	dec    %ebx
  106079:	20 45 20             	and    %al,0x20(%ebp)
  10607c:	52                   	push   %edx
  10607d:	20 4e 20             	and    %cl,0x20(%esi)
  106080:	45                   	inc    %ebp
  106081:	20 4c 0a 20          	and    %cl,0x20(%edx,%ecx,1)
  106085:	7c 20                	jl     1060a7 <__kernel_version_lower+0x7b>
  106087:	20 20                	and    %ah,(%eax)
  106089:	7c 20                	jl     1060ab <__kernel_version_lower+0x7f>
  10608b:	20 7c 20 20          	and    %bh,0x20(%eax,%eiz,1)
  10608f:	20 7c 09 43          	and    %bh,0x43(%ecx,%ecx,1)
  106093:	72 65                	jb     1060fa <__debug_baud_rate+0x26>
  106095:	61                   	popa   
  106096:	74 65                	je     1060fd <__debug_baud_rate+0x29>
  106098:	64 20 62 79          	and    %ah,%fs:0x79(%edx)
  10609c:	20 40 73             	and    %al,0x73(%eax)
  10609f:	61                   	popa   
  1060a0:	73 64                	jae    106106 <__debug_baud_rate+0x32>
  1060a2:	61                   	popa   
  1060a3:	6c                   	insb   (%dx),%es:(%edi)
  1060a4:	6c                   	insb   (%dx),%es:(%edi)
  1060a5:	61                   	popa   
  1060a6:	73 0a                	jae    1060b2 <__kernel_version_lower+0x86>
  1060a8:	20 7c 20 20          	and    %bh,0x20(%eax,%eiz,1)
  1060ac:	2e 2b 2d 2d 2b 2d 2d 	sub    %cs:0x2d2d2b2d,%ebp
  1060b3:	2d 2b 0a 20 7c       	sub    $0x7c200a2b,%eax
  1060b8:	2e 27                	cs daa 
  1060ba:	20 20                	and    %ah,(%eax)
  1060bc:	20 20                	and    %ah,(%eax)
  1060be:	7c 20                	jl     1060e0 <__debug_baud_rate+0xc>
  1060c0:	2e 27                	cs daa 
  1060c2:	0a 20                	or     (%eax),%ah
  1060c4:	2b 2d 2d 2d 2d 2d    	sub    0x2d2d2d2d,%ebp
  1060ca:	2d 2b 27 0a 00       	sub    $0xa272b,%eax
	...

001060d0 <__debug_com_port>:
  1060d0:	01 00                	add    %eax,(%eax)
	...

001060d4 <__debug_baud_rate>:
  1060d4:	80 25 00 00 44 45 42 	andb   $0x42,0x45440000
  1060db:	55                   	push   %ebp
  1060dc:	47                   	inc    %edi
  1060dd:	00 69 33             	add    %ch,0x33(%ecx)
  1060e0:	38 36                	cmp    %dh,(%esi)
  1060e2:	00 47 43             	add    %al,0x43(%edi)
  1060e5:	43                   	inc    %ebx
  1060e6:	20 31                	and    %dh,(%ecx)
  1060e8:	34 2e                	xor    $0x2e,%al
  1060ea:	31 2e                	xor    %ebp,(%esi)
  1060ec:	30 00                	xor    %al,(%eax)
  1060ee:	49                   	dec    %ecx
  1060ef:	4e                   	dec    %esi
  1060f0:	46                   	inc    %esi
  1060f1:	4f                   	dec    %edi
  1060f2:	00 57 41             	add    %dl,0x41(%edi)
  1060f5:	52                   	push   %edx
  1060f6:	4e                   	dec    %esi
  1060f7:	00 45 52             	add    %al,0x52(%ebp)
  1060fa:	52                   	push   %edx
  1060fb:	20 00                	and    %al,(%eax)
  1060fd:	44                   	inc    %esp
  1060fe:	42                   	inc    %edx
  1060ff:	47                   	inc    %edi
  106100:	20 00                	and    %al,(%eax)
  106102:	3f                   	aas    
  106103:	3f                   	aas    
  106104:	3f                   	aas    
  106105:	20 00                	and    %al,(%eax)
  106107:	5b                   	pop    %ebx
  106108:	6e                   	outsb  %ds:(%esi),(%dx)
  106109:	6f                   	outsl  %ds:(%esi),(%dx)
  10610a:	20 63 6c             	and    %ah,0x6c(%ebx)
  10610d:	6f                   	outsl  %ds:(%esi),(%dx)
  10610e:	63 6b 20             	arpl   %bp,0x20(%ebx)
  106111:	72 65                	jb     106178 <__debug_baud_rate+0xa4>
  106113:	61                   	popa   
  106114:	64 79 5d             	fs jns 106174 <__debug_baud_rate+0xa0>
  106117:	20 5b 25             	and    %bl,0x25(%ebx)
  10611a:	73 5d                	jae    106179 <__debug_baud_rate+0xa5>
  10611c:	20 00                	and    %al,(%eax)
  10611e:	5b                   	pop    %ebx
  10611f:	25 73 5d 20 5b       	and    $0x5b205d73,%eax
  106124:	25 73 5d 20 00       	and    $0x205d73,%eax
  106129:	00 00                	add    %al,(%eax)
  10612b:	00 4b 45             	add    %cl,0x45(%ebx)
  10612e:	52                   	push   %edx
  10612f:	4e                   	dec    %esi
  106130:	45                   	inc    %ebp
  106131:	4c                   	dec    %esp
  106132:	5f                   	pop    %edi
  106133:	44                   	inc    %esp
  106134:	45                   	inc    %ebp
  106135:	42                   	inc    %edx
  106136:	55                   	push   %ebp
  106137:	47                   	inc    %edi
  106138:	5f                   	pop    %edi
  106139:	54                   	push   %esp
  10613a:	52                   	push   %edx
  10613b:	41                   	inc    %ecx
  10613c:	50                   	push   %eax
  10613d:	00 4d 45             	add    %cl,0x45(%ebp)
  106140:	4d                   	dec    %ebp
  106141:	4f                   	dec    %edi
  106142:	52                   	push   %edx
  106143:	59                   	pop    %ecx
  106144:	5f                   	pop    %edi
  106145:	4d                   	dec    %ebp
  106146:	41                   	inc    %ecx
  106147:	4e                   	dec    %esi
  106148:	41                   	inc    %ecx
  106149:	47                   	inc    %edi
  10614a:	45                   	inc    %ebp
  10614b:	4d                   	dec    %ebp
  10614c:	45                   	inc    %ebp
  10614d:	4e                   	dec    %esi
  10614e:	54                   	push   %esp
  10614f:	5f                   	pop    %edi
  106150:	45                   	inc    %ebp
  106151:	52                   	push   %edx
  106152:	52                   	push   %edx
  106153:	4f                   	dec    %edi
  106154:	52                   	push   %edx
  106155:	00 4b 45             	add    %cl,0x45(%ebx)
  106158:	52                   	push   %edx
  106159:	4e                   	dec    %esi
  10615a:	45                   	inc    %ebp
  10615b:	4c                   	dec    %esp
  10615c:	5f                   	pop    %edi
  10615d:	42                   	inc    %edx
  10615e:	41                   	inc    %ecx
  10615f:	44                   	inc    %esp
  106160:	5f                   	pop    %edi
  106161:	41                   	inc    %ecx
  106162:	52                   	push   %edx
  106163:	47                   	inc    %edi
  106164:	55                   	push   %ebp
  106165:	4d                   	dec    %ebp
  106166:	45                   	inc    %ebp
  106167:	4e                   	dec    %esi
  106168:	54                   	push   %esp
  106169:	5f                   	pop    %edi
  10616a:	45                   	inc    %ebp
  10616b:	52                   	push   %edx
  10616c:	52                   	push   %edx
  10616d:	4f                   	dec    %edi
  10616e:	52                   	push   %edx
  10616f:	00 4f 55             	add    %cl,0x55(%edi)
  106172:	54                   	push   %esp
  106173:	5f                   	pop    %edi
  106174:	4f                   	dec    %edi
  106175:	46                   	inc    %esi
  106176:	5f                   	pop    %edi
  106177:	4d                   	dec    %ebp
  106178:	45                   	inc    %ebp
  106179:	4d                   	dec    %ebp
  10617a:	4f                   	dec    %edi
  10617b:	52                   	push   %edx
  10617c:	59                   	pop    %ecx
  10617d:	00 00                	add    %al,(%eax)
  10617f:	00 41 20             	add    %al,0x20(%ecx)
  106182:	74 72                	je     1061f6 <__debug_baud_rate+0x122>
  106184:	61                   	popa   
  106185:	70 20                	jo     1061a7 <__debug_baud_rate+0xd3>
  106187:	77 61                	ja     1061ea <__debug_baud_rate+0x116>
  106189:	73 20                	jae    1061ab <__debug_baud_rate+0xd7>
  10618b:	74 72                	je     1061ff <__debug_baud_rate+0x12b>
  10618d:	69 67 67 65 72 65 64 	imul   $0x64657265,0x67(%edi),%esp
  106194:	20 74 6f 20          	and    %dh,0x20(%edi,%ebp,2)
  106198:	64 65 62 75 67       	fs bound %esi,%gs:0x67(%ebp)
  10619d:	20 74 68 65          	and    %dh,0x65(%eax,%ebp,2)
  1061a1:	20 6b 65             	and    %ch,0x65(%ebx)
  1061a4:	72 6e                	jb     106214 <__debug_baud_rate+0x140>
  1061a6:	65 6c                	gs insb (%dx),%es:(%edi)
  1061a8:	2e 0a 00             	or     %cs:(%eax),%al
  1061ab:	00 41 20             	add    %al,0x20(%ecx)
  1061ae:	66 61                	popaw  
  1061b0:	75 6c                	jne    10621e <__debug_baud_rate+0x14a>
  1061b2:	74 20                	je     1061d4 <__debug_baud_rate+0x100>
  1061b4:	68 61 73 20 6f       	push   $0x6f207361
  1061b9:	63 63 75             	arpl   %sp,0x75(%ebx)
  1061bc:	72 72                	jb     106230 <__debug_baud_rate+0x15c>
  1061be:	65 64 20 69 6e       	gs and %ch,%fs:0x6e(%ecx)
  1061c3:	20 74 68 65          	and    %dh,0x65(%eax,%ebp,2)
  1061c7:	20 6d 65             	and    %ch,0x65(%ebp)
  1061ca:	6d                   	insl   (%dx),%es:(%edi)
  1061cb:	6f                   	outsl  %ds:(%esi),(%dx)
  1061cc:	72 79                	jb     106247 <__debug_baud_rate+0x173>
  1061ce:	20 6d 61             	and    %ch,0x61(%ebp)
  1061d1:	6e                   	outsb  %ds:(%esi),(%dx)
  1061d2:	61                   	popa   
  1061d3:	67 65 6d             	gs insl (%dx),%es:(%di)
  1061d6:	65 6e                	outsb  %gs:(%esi),(%dx)
  1061d8:	74 20                	je     1061fa <__debug_baud_rate+0x126>
  1061da:	73 75                	jae    106251 <__debug_baud_rate+0x17d>
  1061dc:	62 73 79             	bound  %esi,0x79(%ebx)
  1061df:	73 74                	jae    106255 <__debug_baud_rate+0x181>
  1061e1:	65 6d                	gs insl (%dx),%es:(%edi)
  1061e3:	20 64 75 72          	and    %ah,0x72(%ebp,%esi,2)
  1061e7:	69 6e 67 20 61 20 63 	imul   $0x63206120,0x67(%esi),%ebp
  1061ee:	61                   	popa   
  1061ef:	6c                   	insb   (%dx),%es:(%edi)
  1061f0:	6c                   	insb   (%dx),%es:(%edi)
  1061f1:	2e 0a 00             	or     %cs:(%eax),%al
  1061f4:	41                   	inc    %ecx
  1061f5:	20 62 61             	and    %ah,0x61(%edx)
  1061f8:	64 20 61 72          	and    %ah,%fs:0x72(%ecx)
  1061fc:	67 75 6d             	addr16 jne 10626c <__debug_baud_rate+0x198>
  1061ff:	65 6e                	outsb  %gs:(%esi),(%dx)
  106201:	74 20                	je     106223 <__debug_baud_rate+0x14f>
  106203:	77 61                	ja     106266 <__debug_baud_rate+0x192>
  106205:	73 20                	jae    106227 <__debug_baud_rate+0x153>
  106207:	70 61                	jo     10626a <__debug_baud_rate+0x196>
  106209:	73 73                	jae    10627e <__debug_baud_rate+0x1aa>
  10620b:	65 64 20 74 6f 20    	gs and %dh,%fs:0x20(%edi,%ebp,2)
  106211:	61                   	popa   
  106212:	20 63 72             	and    %ah,0x72(%ebx)
  106215:	69 74 69 63 61 6c 20 	imul   $0x66206c61,0x63(%ecx,%ebp,2),%esi
  10621c:	66 
  10621d:	75 6e                	jne    10628d <__debug_baud_rate+0x1b9>
  10621f:	63 74 69 6f          	arpl   %si,0x6f(%ecx,%ebp,2)
  106223:	6e                   	outsb  %ds:(%esi),(%dx)
  106224:	2e 20 54 68 69       	and    %dl,%cs:0x69(%eax,%ebp,2)
  106229:	73 20                	jae    10624b <__debug_baud_rate+0x177>
  10622b:	69 73 20 61 20 62 75 	imul   $0x75622061,0x20(%ebx),%esi
  106232:	67 20 69 6e          	and    %ch,0x6e(%bx,%di)
  106236:	20 74 68 65          	and    %dh,0x65(%eax,%ebp,2)
  10623a:	20 6b 65             	and    %ch,0x65(%ebx)
  10623d:	72 6e                	jb     1062ad <__debug_baud_rate+0x1d9>
  10623f:	65 6c                	gs insb (%dx),%es:(%edi)
  106241:	20 2d 20 70 6c 65    	and    %ch,0x656c7020
  106247:	61                   	popa   
  106248:	73 65                	jae    1062af <__debug_baud_rate+0x1db>
  10624a:	20 63 6f             	and    %ah,0x6f(%ebx)
  10624d:	6e                   	outsb  %ds:(%esi),(%dx)
  10624e:	74 61                	je     1062b1 <__debug_baud_rate+0x1dd>
  106250:	63 74 20 74          	arpl   %si,0x74(%eax,%eiz,1)
  106254:	68 65 20 64 65       	push   $0x65642065
  106259:	76 65                	jbe    1062c0 <__debug_baud_rate+0x1ec>
  10625b:	6c                   	insb   (%dx),%es:(%edi)
  10625c:	6f                   	outsl  %ds:(%esi),(%dx)
  10625d:	70 65                	jo     1062c4 <__debug_baud_rate+0x1f0>
  10625f:	72 73                	jb     1062d4 <__debug_baud_rate+0x200>
  106261:	2e 0a 00             	or     %cs:(%eax),%al
  106264:	54                   	push   %esp
  106265:	68 65 20 73 79       	push   $0x79732065
  10626a:	73 74                	jae    1062e0 <__debug_baud_rate+0x20c>
  10626c:	65 6d                	gs insl (%dx),%es:(%edi)
  10626e:	20 68 61             	and    %ch,0x61(%eax)
  106271:	73 20                	jae    106293 <__debug_baud_rate+0x1bf>
  106273:	72 75                	jb     1062ea <__debug_baud_rate+0x216>
  106275:	6e                   	outsb  %ds:(%esi),(%dx)
  106276:	20 6f 75             	and    %ch,0x75(%edi)
  106279:	74 20                	je     10629b <__debug_baud_rate+0x1c7>
  10627b:	6f                   	outsl  %ds:(%esi),(%dx)
  10627c:	66 20 6d 65          	data16 and %ch,0x65(%ebp)
  106280:	6d                   	insl   (%dx),%es:(%edi)
  106281:	6f                   	outsl  %ds:(%esi),(%dx)
  106282:	72 79                	jb     1062fd <__debug_baud_rate+0x229>
  106284:	2e 20 54 72 79       	and    %dl,%cs:0x79(%edx,%esi,2)
  106289:	20 63 6c             	and    %ah,0x6c(%ebx)
  10628c:	6f                   	outsl  %ds:(%esi),(%dx)
  10628d:	73 69                	jae    1062f8 <__debug_baud_rate+0x224>
  10628f:	6e                   	outsb  %ds:(%esi),(%dx)
  106290:	67 20 61 70          	and    %ah,0x70(%bx,%di)
  106294:	70 6c                	jo     106302 <__debug_baud_rate+0x22e>
  106296:	69 63 61 74 69 6f 6e 	imul   $0x6e6f6974,0x61(%ebx),%esp
  10629d:	73 20                	jae    1062bf <__debug_baud_rate+0x1eb>
  10629f:	6f                   	outsl  %ds:(%esi),(%dx)
  1062a0:	72 20                	jb     1062c2 <__debug_baud_rate+0x1ee>
  1062a2:	61                   	popa   
  1062a3:	64 6a 75             	fs push $0x75
  1062a6:	73 74                	jae    10631c <__debug_baud_rate+0x248>
  1062a8:	69 6e 67 20 79 6f 75 	imul   $0x756f7920,0x67(%esi),%ebp
  1062af:	72 20                	jb     1062d1 <__debug_baud_rate+0x1fd>
  1062b1:	70 61                	jo     106314 <__debug_baud_rate+0x240>
  1062b3:	67 65 66 69 6c 65 2e 	imul   $0xa2e,%gs:0x65(%si),%bp
  1062ba:	0a 
  1062bb:	00 25 63 00 6b 65    	add    %ah,0x656b0063
  1062c1:	72 6e                	jb     106331 <__debug_baud_rate+0x25d>
  1062c3:	65 6c                	gs insb (%dx),%es:(%edi)
  1062c5:	2f                   	das    
  1062c6:	70 61                	jo     106329 <__debug_baud_rate+0x255>
  1062c8:	6e                   	outsb  %ds:(%esi),(%dx)
  1062c9:	69 63 2f 70 61 6e 69 	imul   $0x696e6170,0x2f(%ebx),%esp
  1062d0:	63 2e                	arpl   %bp,(%esi)
  1062d2:	63 00                	arpl   %ax,(%eax)
  1062d4:	2a 2a                	sub    (%edx),%ch
  1062d6:	2a 20                	sub    (%eax),%ah
  1062d8:	6b 65 72 6e          	imul   $0x6e,0x72(%ebp),%esp
  1062dc:	65 6c                	gs insb (%dx),%es:(%edi)
  1062de:	5f                   	pop    %edi
  1062df:	70 61                	jo     106342 <__debug_baud_rate+0x26e>
  1062e1:	6e                   	outsb  %ds:(%esi),(%dx)
  1062e2:	69 63 5f 65 78 74 65 	imul   $0x65747865,0x5f(%ebx),%esp
  1062e9:	6e                   	outsb  %ds:(%esi),(%dx)
  1062ea:	64 65 64 28 29       	fs gs sub %ch,%fs:(%ecx)
  1062ef:	20 72 65             	and    %dh,0x65(%edx)
  1062f2:	63 65 69             	arpl   %sp,0x69(%ebp)
  1062f5:	76 65                	jbe    10635c <__debug_baud_rate+0x288>
  1062f7:	64 20 61 6e          	and    %ah,%fs:0x6e(%ecx)
  1062fb:	20 69 6e             	and    %ch,0x6e(%ecx)
  1062fe:	76 61                	jbe    106361 <__debug_baud_rate+0x28d>
  106300:	6c                   	insb   (%dx),%es:(%edi)
  106301:	69 64 20 62 75 67 63 	imul   $0x6f636775,0x62(%eax,%eiz,1),%esp
  106308:	6f 
  106309:	64 65 20 28          	fs and %ch,%gs:(%eax)
  10630d:	30 78 25             	xor    %bh,0x25(%eax)
  106310:	78 29                	js     10633b <__debug_baud_rate+0x267>
  106312:	0a 00                	or     (%eax),%al
  106314:	0a 0a                	or     (%edx),%cl
  106316:	00 00                	add    %al,(%eax)
  106318:	48                   	dec    %eax
  106319:	65 78 61             	gs js  10637d <__debug_baud_rate+0x2a9>
  10631c:	68 65 64 72 6f       	push   $0x6f726465
  106321:	6e                   	outsb  %ds:(%esi),(%dx)
  106322:	20 68 61             	and    %ch,0x61(%eax)
  106325:	73 20                	jae    106347 <__debug_baud_rate+0x273>
  106327:	65 78 70             	gs js  10639a <__debug_baud_rate+0x2c6>
  10632a:	65 72 69             	gs jb  106396 <__debug_baud_rate+0x2c2>
  10632d:	65 6e                	outsb  %gs:(%esi),(%dx)
  10632f:	63 65 64             	arpl   %sp,0x64(%ebp)
  106332:	20 61 20             	and    %ah,0x20(%ecx)
  106335:	63 72 69             	arpl   %si,0x69(%edx)
  106338:	74 69                	je     1063a3 <__debug_baud_rate+0x2cf>
  10633a:	63 61 6c             	arpl   %sp,0x6c(%ecx)
  10633d:	20 66 61             	and    %ah,0x61(%esi)
  106340:	75 6c                	jne    1063ae <__debug_baud_rate+0x2da>
  106342:	74 20                	je     106364 <__debug_baud_rate+0x290>
  106344:	74 68                	je     1063ae <__debug_baud_rate+0x2da>
  106346:	61                   	popa   
  106347:	74 20                	je     106369 <__debug_baud_rate+0x295>
  106349:	63 61 6e             	arpl   %sp,0x6e(%ecx)
  10634c:	6e                   	outsb  %ds:(%esi),(%dx)
  10634d:	6f                   	outsl  %ds:(%esi),(%dx)
  10634e:	74 20                	je     106370 <__debug_baud_rate+0x29c>
  106350:	62 65 20             	bound  %esp,0x20(%ebp)
  106353:	72 65                	jb     1063ba <__debug_baud_rate+0x2e6>
  106355:	73 6f                	jae    1063c6 <__debug_baud_rate+0x2f2>
  106357:	6c                   	insb   (%dx),%es:(%edi)
  106358:	76 65                	jbe    1063bf <__debug_baud_rate+0x2eb>
  10635a:	64 0a 00             	or     %fs:(%eax),%al
  10635d:	00 00                	add    %al,(%eax)
  10635f:	00 50 6c             	add    %dl,0x6c(%eax)
  106362:	65 61                	gs popa 
  106364:	73 65                	jae    1063cb <__debug_baud_rate+0x2f7>
  106366:	20 73 74             	and    %dh,0x74(%ebx)
  106369:	61                   	popa   
  10636a:	72 74                	jb     1063e0 <__debug_baud_rate+0x30c>
  10636c:	20 61 6e             	and    %ah,0x6e(%ecx)
  10636f:	20 69 73             	and    %ch,0x73(%ecx)
  106372:	73 75                	jae    1063e9 <__debug_baud_rate+0x315>
  106374:	65 20 6f 6e          	and    %ch,%gs:0x6e(%edi)
  106378:	20 47 69             	and    %al,0x69(%edi)
  10637b:	74 48                	je     1063c5 <__debug_baud_rate+0x2f1>
  10637d:	75 62                	jne    1063e1 <__debug_baud_rate+0x30d>
  10637f:	20 69 66             	and    %ch,0x66(%ecx)
  106382:	20 79 6f             	and    %bh,0x6f(%ecx)
  106385:	75 20                	jne    1063a7 <__debug_baud_rate+0x2d3>
  106387:	62 65 6c             	bound  %esp,0x6c(%ebp)
  10638a:	69 65 76 65 20 74 68 	imul   $0x68742065,0x76(%ebp),%esp
  106391:	69 73 20 74 6f 20 62 	imul   $0x62206f74,0x20(%ebx),%esi
  106398:	65 20 61 20          	and    %ah,%gs:0x20(%ecx)
  10639c:	62 75 67             	bound  %esi,0x67(%ebp)
  10639f:	2e 0a 00             	or     %cs:(%eax),%al
  1063a2:	00 00                	add    %al,(%eax)
  1063a4:	41                   	inc    %ecx
  1063a5:	70 6f                	jo     106416 <__debug_baud_rate+0x342>
  1063a7:	6c                   	insb   (%dx),%es:(%edi)
  1063a8:	6f                   	outsl  %ds:(%esi),(%dx)
  1063a9:	67 69 65 73 20 66 6f 	imul   $0x726f6620,0x73(%di),%esp
  1063b0:	72 
  1063b1:	20 61 6e             	and    %ah,0x6e(%ecx)
  1063b4:	79 20                	jns    1063d6 <__debug_baud_rate+0x302>
  1063b6:	69 6e 63 6f 6e 76 65 	imul   $0x65766e6f,0x63(%esi),%ebp
  1063bd:	6e                   	outsb  %ds:(%esi),(%dx)
  1063be:	69 65 6e 63 65 73 20 	imul   $0x20736563,0x6e(%ebp),%esp
  1063c5:	63 61 75             	arpl   %sp,0x75(%ecx)
  1063c8:	73 65                	jae    10642f <__debug_baud_rate+0x35b>
  1063ca:	64 20 62 79          	and    %ah,%fs:0x79(%edx)
  1063ce:	20 74 68 69          	and    %dh,0x69(%eax,%ebp,2)
  1063d2:	73 20                	jae    1063f4 <__debug_baud_rate+0x320>
  1063d4:	65 72 72             	gs jb  106449 <__debug_baud_rate+0x375>
  1063d7:	6f                   	outsl  %ds:(%esi),(%dx)
  1063d8:	72 2e                	jb     106408 <__debug_baud_rate+0x334>
  1063da:	0a 0a                	or     (%edx),%cl
  1063dc:	00 2a                	add    %ch,(%edx)
  1063de:	2a 2a                	sub    (%edx),%ch
  1063e0:	20 53 54             	and    %dl,0x54(%ebx)
  1063e3:	4f                   	dec    %edi
  1063e4:	50                   	push   %eax
  1063e5:	3a 20                	cmp    (%eax),%ah
  1063e7:	25 73 20 28 6d       	and    $0x6d282073,%eax
  1063ec:	6f                   	outsl  %ds:(%esi),(%dx)
  1063ed:	64 75 6c             	fs jne 10645c <__debug_baud_rate+0x388>
  1063f0:	65 20 27             	and    %ah,%gs:(%edi)
  1063f3:	25 73 27 29 0a       	and    $0xa292773,%eax
  1063f8:	00 0a                	add    %cl,(%edx)
  1063fa:	25 73 00 00 00       	and    $0x73,%eax
  1063ff:	00 0a                	add    %cl,(%edx)
  106401:	54                   	push   %esp
  106402:	68 65 20 6b 65       	push   $0x656b2065
  106407:	72 6e                	jb     106477 <__debug_baud_rate+0x3a3>
  106409:	65 6c                	gs insb (%dx),%es:(%edi)
  10640b:	20 77 69             	and    %dh,0x69(%edi)
  10640e:	6c                   	insb   (%dx),%es:(%edi)
  10640f:	6c                   	insb   (%dx),%es:(%edi)
  106410:	20 6e 6f             	and    %ch,0x6f(%esi)
  106413:	77 20                	ja     106435 <__debug_baud_rate+0x361>
  106415:	70 65                	jo     10647c <__debug_baud_rate+0x3a8>
  106417:	72 6d                	jb     106486 <__debug_baud_rate+0x3b2>
  106419:	61                   	popa   
  10641a:	6e                   	outsb  %ds:(%esi),(%dx)
  10641b:	65 6e                	outsb  %gs:(%esi),(%dx)
  10641d:	74 6c                	je     10648b <__debug_baud_rate+0x3b7>
  10641f:	79 20                	jns    106441 <__debug_baud_rate+0x36d>
  106421:	68 61 6c 74 2e       	push   $0x2e746c61
  106426:	20 43 6f             	and    %al,0x6f(%ebx)
  106429:	6e                   	outsb  %ds:(%esi),(%dx)
  10642a:	6e                   	outsb  %ds:(%esi),(%dx)
  10642b:	65 63 74 20 61       	arpl   %si,%gs:0x61(%eax,%eiz,1)
  106430:	20 64 65 62          	and    %ah,0x62(%ebp,%eiz,2)
  106434:	75 67                	jne    10649d <__debug_baud_rate+0x3c9>
  106436:	67 65 72 20          	addr16 gs jb 10645a <__debug_baud_rate+0x386>
  10643a:	66 6f                	outsw  %ds:(%esi),(%dx)
  10643c:	72 20                	jb     10645e <__debug_baud_rate+0x38a>
  10643e:	6d                   	insl   (%dx),%es:(%edi)
  10643f:	6f                   	outsl  %ds:(%esi),(%dx)
  106440:	72 65                	jb     1064a7 <__debug_baud_rate+0x3d3>
  106442:	20 69 6e             	and    %ch,0x6e(%ecx)
  106445:	66 6f                	outsw  %ds:(%esi),(%dx)
  106447:	72 6d                	jb     1064b6 <__debug_baud_rate+0x3e2>
  106449:	61                   	popa   
  10644a:	74 69                	je     1064b5 <__debug_baud_rate+0x3e1>
  10644c:	6f                   	outsl  %ds:(%esi),(%dx)
  10644d:	6e                   	outsb  %ds:(%esi),(%dx)
  10644e:	2e 0a 00             	or     %cs:(%eax),%al
  106451:	00 00                	add    %al,(%eax)
  106453:	00 2a                	add    %ch,(%edx)
  106455:	2a 2a                	sub    (%edx),%ch
  106457:	20 6b 65             	and    %ch,0x65(%ebx)
  10645a:	72 6e                	jb     1064ca <__debug_baud_rate+0x3f6>
  10645c:	65 6c                	gs insb (%dx),%es:(%edi)
  10645e:	5f                   	pop    %edi
  10645f:	70 61                	jo     1064c2 <__debug_baud_rate+0x3ee>
  106461:	6e                   	outsb  %ds:(%esi),(%dx)
  106462:	69 63 28 29 20 72 65 	imul   $0x65722029,0x28(%ebx),%esp
  106469:	63 65 69             	arpl   %sp,0x69(%ebp)
  10646c:	76 65                	jbe    1064d3 <__debug_baud_rate+0x3ff>
  10646e:	64 20 61 6e          	and    %ah,%fs:0x6e(%ecx)
  106472:	20 69 6e             	and    %ch,0x6e(%ecx)
  106475:	76 61                	jbe    1064d8 <__debug_baud_rate+0x404>
  106477:	6c                   	insb   (%dx),%es:(%edi)
  106478:	69 64 20 62 75 67 63 	imul   $0x6f636775,0x62(%eax,%eiz,1),%esp
  10647f:	6f 
  106480:	64 65 20 28          	fs and %ch,%gs:(%eax)
  106484:	30 78 25             	xor    %bh,0x25(%eax)
  106487:	78 29                	js     1064b2 <__debug_baud_rate+0x3de>
  106489:	0a 00                	or     (%eax),%al
  10648b:	25 73 00 70 68       	and    $0x68700073,%eax
  106490:	79 73                	jns    106505 <__debug_baud_rate+0x431>
  106492:	6d                   	insl   (%dx),%es:(%edi)
  106493:	65 6d                	gs insl (%dx),%es:(%edi)
  106495:	00 00                	add    %al,(%eax)
  106497:	00 54 68 65          	add    %dl,0x65(%eax,%ebp,2)
  10649b:	20 6b 65             	and    %ch,0x65(%ebx)
  10649e:	72 6e                	jb     10650e <__debug_baud_rate+0x43a>
  1064a0:	65 6c                	gs insb (%dx),%es:(%edi)
  1064a2:	20 72 65             	and    %dh,0x65(%edx)
  1064a5:	71 75                	jno    10651c <__debug_baud_rate+0x448>
  1064a7:	69 72 65 73 20 61 20 	imul   $0x20612073,0x65(%edx),%esi
  1064ae:	6d                   	insl   (%dx),%es:(%edi)
  1064af:	65 6d                	gs insl (%dx),%es:(%edi)
  1064b1:	6f                   	outsl  %ds:(%esi),(%dx)
  1064b2:	72 79                	jb     10652d <__debug_baud_rate+0x459>
  1064b4:	20 6d 61             	and    %ch,0x61(%ebp)
  1064b7:	70 20                	jo     1064d9 <__debug_baud_rate+0x405>
  1064b9:	74 6f                	je     10652a <__debug_baud_rate+0x456>
  1064bb:	20 73 74             	and    %dh,0x74(%ebx)
  1064be:	61                   	popa   
  1064bf:	72 74                	jb     106535 <__debug_baud_rate+0x461>
  1064c1:	75 70                	jne    106533 <__debug_baud_rate+0x45f>
  1064c3:	20 70 72             	and    %dh,0x72(%eax)
  1064c6:	6f                   	outsl  %ds:(%esi),(%dx)
  1064c7:	70 65                	jo     10652e <__debug_baud_rate+0x45a>
  1064c9:	72 6c                	jb     106537 <__debug_baud_rate+0x463>
  1064cb:	79 2e                	jns    1064fb <__debug_baud_rate+0x427>
  1064cd:	20 41 20             	and    %al,0x20(%ecx)
  1064d0:	6d                   	insl   (%dx),%es:(%edi)
  1064d1:	65 6d                	gs insl (%dx),%es:(%edi)
  1064d3:	6f                   	outsl  %ds:(%esi),(%dx)
  1064d4:	72 79                	jb     10654f <__debug_baud_rate+0x47b>
  1064d6:	20 6d 61             	and    %ch,0x61(%ebp)
  1064d9:	70 20                	jo     1064fb <__debug_baud_rate+0x427>
  1064db:	77 61                	ja     10653e <__debug_baud_rate+0x46a>
  1064dd:	73 20                	jae    1064ff <__debug_baud_rate+0x42b>
  1064df:	6e                   	outsb  %ds:(%esi),(%dx)
  1064e0:	6f                   	outsl  %ds:(%esi),(%dx)
  1064e1:	74 20                	je     106503 <__debug_baud_rate+0x42f>
  1064e3:	66 6f                	outsw  %ds:(%esi),(%dx)
  1064e5:	75 6e                	jne    106555 <__debug_baud_rate+0x481>
  1064e7:	64 20 69 6e          	and    %ch,%fs:0x6e(%ecx)
  1064eb:	20 74 68 65          	and    %dh,0x65(%eax,%ebp,2)
  1064ef:	20 4d 75             	and    %cl,0x75(%ebp)
  1064f2:	6c                   	insb   (%dx),%es:(%edi)
  1064f3:	74 69                	je     10655e <__debug_baud_rate+0x48a>
  1064f5:	62 6f 6f             	bound  %ebp,0x6f(%edi)
  1064f8:	74 20                	je     10651a <__debug_baud_rate+0x446>
  1064fa:	73 74                	jae    106570 <__debug_baud_rate+0x49c>
  1064fc:	72 75                	jb     106573 <__debug_baud_rate+0x49f>
  1064fe:	63 74 75 72          	arpl   %si,0x72(%ebp,%esi,2)
  106502:	65 2e 0a 00          	gs or  %cs:(%eax),%al
  106506:	61                   	popa   
  106507:	72 63                	jb     10656c <__debug_baud_rate+0x498>
  106509:	68 00 00 42 61       	push   $0x61420000
  10650e:	64 20 6d 65          	and    %ch,%fs:0x65(%ebp)
  106512:	6d                   	insl   (%dx),%es:(%edi)
  106513:	6f                   	outsl  %ds:(%esi),(%dx)
  106514:	72 79                	jb     10658f <__debug_baud_rate+0x4bb>
  106516:	20 64 65 73          	and    %ah,0x73(%ebp,%eiz,2)
  10651a:	63 72 69             	arpl   %si,0x69(%edx)
  10651d:	70 74                	jo     106593 <__debug_baud_rate+0x4bf>
  10651f:	6f                   	outsl  %ds:(%esi),(%dx)
  106520:	72 20                	jb     106542 <__debug_baud_rate+0x46e>
  106522:	65 6e                	outsb  %gs:(%esi),(%dx)
  106524:	63 6f 75             	arpl   %bp,0x75(%edi)
  106527:	6e                   	outsb  %ds:(%esi),(%dx)
  106528:	74 65                	je     10658f <__debug_baud_rate+0x4bb>
  10652a:	72 65                	jb     106591 <__debug_baud_rate+0x4bd>
  10652c:	64 20 2d 20 25 30 31 	and    %ch,%fs:0x31302520
  106533:	36 6c                	ss insb (%dx),%es:(%edi)
  106535:	6c                   	insb   (%dx),%es:(%edi)
  106536:	58                   	pop    %eax
  106537:	20 6c 65 6e          	and    %ch,0x6e(%ebp,%eiz,2)
  10653b:	67 74 68             	addr16 je 1065a6 <__debug_baud_rate+0x4d2>
  10653e:	20 25 30 31 36 6c    	and    %ah,0x6c363130
  106544:	6c                   	insb   (%dx),%es:(%edi)
  106545:	58                   	pop    %eax
  106546:	20 28                	and    %ch,(%eax)
  106548:	33 32                	xor    (%edx),%esi
  10654a:	2d 62 69 74 20       	sub    $0x20746962,%eax
  10654f:	2d 20 36 34 2d       	sub    $0x2d343620,%eax
  106554:	62 69 74             	bound  %ebp,0x74(%ecx)
  106557:	20 6f 76             	and    %ch,0x76(%edi)
  10655a:	65 72 66             	gs jb  1065c3 <__debug_baud_rate+0x4ef>
  10655d:	6c                   	insb   (%dx),%es:(%edi)
  10655e:	6f                   	outsl  %ds:(%esi),(%dx)
  10655f:	77 29                	ja     10658a <__debug_baud_rate+0x4b6>
  106561:	0a 00                	or     (%eax),%al
  106563:	61                   	popa   
  106564:	72 63                	jb     1065c9 <__debug_baud_rate+0x4f5>
  106566:	68 2f 69 33 38       	push   $0x3833692f
  10656b:	36 2f                	ss das 
  10656d:	6d                   	insl   (%dx),%es:(%edi)
  10656e:	75 6c                	jne    1065dc <__debug_baud_rate+0x508>
  106570:	74 69                	je     1065db <__debug_baud_rate+0x507>
  106572:	62 6f 6f             	bound  %ebp,0x6f(%edi)
  106575:	74 2e                	je     1065a5 <__debug_baud_rate+0x4d1>
  106577:	63 00                	arpl   %ax,(%eax)
  106579:	00 00                	add    %al,(%eax)
  10657b:	00 4d 61             	add    %cl,0x61(%ebp)
  10657e:	72 6b                	jb     1065eb <__debug_baud_rate+0x517>
  106580:	65 64 20 6d 65       	gs and %ch,%fs:0x65(%ebp)
  106585:	6d                   	insl   (%dx),%es:(%edi)
  106586:	6f                   	outsl  %ds:(%esi),(%dx)
  106587:	72 79                	jb     106602 <__debug_baud_rate+0x52e>
  106589:	20 64 65 73          	and    %ah,0x73(%ebp,%eiz,2)
  10658d:	63 72 69             	arpl   %si,0x69(%edx)
  106590:	70 74                	jo     106606 <__debug_baud_rate+0x532>
  106592:	6f                   	outsl  %ds:(%esi),(%dx)
  106593:	72 20                	jb     1065b5 <__debug_baud_rate+0x4e1>
  106595:	25 30 31 36 6c       	and    $0x6c363130,%eax
  10659a:	6c                   	insb   (%dx),%es:(%edi)
  10659b:	58                   	pop    %eax
  10659c:	20 2d 20 25 30 31    	and    %ch,0x31302520
  1065a2:	36 6c                	ss insb (%dx),%es:(%edi)
  1065a4:	6c                   	insb   (%dx),%es:(%edi)
  1065a5:	58                   	pop    %eax
  1065a6:	20 28                	and    %ch,(%eax)
  1065a8:	25 69 20 4b 42       	and    $0x424b2069,%eax
  1065ad:	29 20                	sub    %esp,(%eax)
  1065af:	61                   	popa   
  1065b0:	73 20                	jae    1065d2 <__debug_baud_rate+0x4fe>
  1065b2:	61                   	popa   
  1065b3:	76 61                	jbe    106616 <__debug_baud_rate+0x542>
  1065b5:	69 6c 61 62 6c 65 20 	imul   $0x6d20656c,0x62(%ecx,%eiz,2),%ebp
  1065bc:	6d 
  1065bd:	65 6d                	gs insl (%dx),%es:(%edi)
  1065bf:	6f                   	outsl  %ds:(%esi),(%dx)
  1065c0:	72 79                	jb     10663b <__debug_baud_rate+0x567>
  1065c2:	0a 00                	or     (%eax),%al
  1065c4:	4d                   	dec    %ebp
  1065c5:	61                   	popa   
  1065c6:	72 6b                	jb     106633 <__debug_baud_rate+0x55f>
  1065c8:	65 64 20 6d 65       	gs and %ch,%fs:0x65(%ebp)
  1065cd:	6d                   	insl   (%dx),%es:(%edi)
  1065ce:	6f                   	outsl  %ds:(%esi),(%dx)
  1065cf:	72 79                	jb     10664a <__debug_baud_rate+0x576>
  1065d1:	20 64 65 73          	and    %ah,0x73(%ebp,%eiz,2)
  1065d5:	63 72 69             	arpl   %si,0x69(%edx)
  1065d8:	70 74                	jo     10664e <__debug_baud_rate+0x57a>
  1065da:	6f                   	outsl  %ds:(%esi),(%dx)
  1065db:	72 20                	jb     1065fd <__debug_baud_rate+0x529>
  1065dd:	25 30 31 36 58       	and    $0x58363130,%eax
  1065e2:	20 2d 20 25 30 31    	and    %ch,0x31302520
  1065e8:	36 58                	ss pop %eax
  1065ea:	20 28                	and    %ch,(%eax)
  1065ec:	25 69 20 4b 42       	and    $0x424b2069,%eax
  1065f1:	29 20                	sub    %esp,(%eax)
  1065f3:	61                   	popa   
  1065f4:	73 20                	jae    106616 <__debug_baud_rate+0x542>
  1065f6:	6b 65 72 6e          	imul   $0x6e,0x72(%ebp),%esp
  1065fa:	65 6c                	gs insb (%dx),%es:(%edi)
  1065fc:	20 6d 65             	and    %ch,0x65(%ebp)
  1065ff:	6d                   	insl   (%dx),%es:(%edi)
  106600:	6f                   	outsl  %ds:(%esi),(%dx)
  106601:	72 79                	jb     10667c <__debug_baud_rate+0x5a8>
  106603:	0a 00                	or     (%eax),%al
  106605:	00 00                	add    %al,(%eax)
  106607:	00 4d 61             	add    %cl,0x61(%ebp)
  10660a:	72 6b                	jb     106677 <__debug_baud_rate+0x5a3>
  10660c:	65 64 20 76 61       	gs and %dh,%fs:0x61(%esi)
  106611:	6c                   	insb   (%dx),%es:(%edi)
  106612:	69 64 20 6d 65 6d 6f 	imul   $0x726f6d65,0x6d(%eax,%eiz,1),%esp
  106619:	72 
  10661a:	79 20                	jns    10663c <__debug_baud_rate+0x568>
  10661c:	2d 20 50 4d 4d       	sub    $0x4d4d5020,%eax
  106621:	20 68 61             	and    %ch,0x61(%eax)
  106624:	73 20                	jae    106646 <__debug_baud_rate+0x572>
  106626:	25 69 20 66 72       	and    $0x72662069,%eax
  10662b:	65 65 20 62 6c       	gs and %ah,%gs:0x6c(%edx)
  106630:	6f                   	outsl  %ds:(%esi),(%dx)
  106631:	63 6b 73             	arpl   %bp,0x73(%ebx)
  106634:	20 2f                	and    %ch,(%edi)
  106636:	20 25 69 20 6d 61    	and    %ah,0x616d2069
  10663c:	78 20                	js     10665e <__debug_baud_rate+0x58a>
  10663e:	62 6c 6f 63          	bound  %ebp,0x63(%edi,%ebp,2)
  106642:	6b 73 0a 00          	imul   $0x0,0xa(%ebx),%esi
  106646:	00 00                	add    %al,(%eax)
  106648:	0a 0a                	or     (%edx),%cl
  10664a:	00 61 72             	add    %ah,0x72(%ecx)
  10664d:	63 68 2f             	arpl   %bp,0x2f(%eax)
  106650:	69 33 38 36 2f 69    	imul   $0x692f3638,(%ebx),%esi
  106656:	6e                   	outsb  %ds:(%esi),(%dx)
  106657:	74 65                	je     1066be <__debug_baud_rate+0x5ea>
  106659:	72 72                	jb     1066cd <__debug_baud_rate+0x5f9>
  10665b:	75 70                	jne    1066cd <__debug_baud_rate+0x5f9>
  10665d:	74 2e                	je     10668d <__debug_baud_rate+0x5b9>
  10665f:	63 00                	arpl   %ax,(%eax)
  106661:	00 00                	add    %al,(%eax)
  106663:	00 21                	add    %ah,(%ecx)
  106665:	21 21                	and    %esp,(%ecx)
  106667:	20 46 41             	and    %al,0x41(%esi)
  10666a:	54                   	push   %esp
  10666b:	41                   	inc    %ecx
  10666c:	4c                   	dec    %esp
  10666d:	3a 20                	cmp    (%eax),%ah
  10666f:	43                   	inc    %ebx
  106670:	50                   	push   %eax
  106671:	55                   	push   %ebp
  106672:	20 65 78             	and    %ah,0x78(%ebp)
  106675:	63 65 70             	arpl   %sp,0x70(%ebp)
  106678:	74 69                	je     1066e3 <__debug_baud_rate+0x60f>
  10667a:	6f                   	outsl  %ds:(%esi),(%dx)
  10667b:	6e                   	outsb  %ds:(%esi),(%dx)
  10667c:	20 25 69 20 77 61    	and    %ah,0x61772069
  106682:	73 20                	jae    1066a4 <__debug_baud_rate+0x5d0>
  106684:	66 6f                	outsw  %ds:(%esi),(%dx)
  106686:	75 6e                	jne    1066f6 <__debug_baud_rate+0x622>
  106688:	64 0a 0a             	or     %fs:(%edx),%cl
  10668b:	00 45 44             	add    %al,0x44(%ebp)
  10668e:	49                   	dec    %ecx
  10668f:	20 25 30 38 78 20    	and    %ah,0x20783830
  106695:	45                   	inc    %ebp
  106696:	53                   	push   %ebx
  106697:	49                   	dec    %ecx
  106698:	20 25 30 38 78 20    	and    %ah,0x20783830
  10669e:	45                   	inc    %ebp
  10669f:	42                   	inc    %edx
  1066a0:	50                   	push   %eax
  1066a1:	20 25 30 38 78 20    	and    %ah,0x20783830
  1066a7:	45                   	inc    %ebp
  1066a8:	53                   	push   %ebx
  1066a9:	50                   	push   %eax
  1066aa:	20 25 30 38 78 0a    	and    %ah,0xa783830
  1066b0:	00 00                	add    %al,(%eax)
  1066b2:	00 00                	add    %al,(%eax)
  1066b4:	45                   	inc    %ebp
  1066b5:	42                   	inc    %edx
  1066b6:	58                   	pop    %eax
  1066b7:	20 25 30 38 78 20    	and    %ah,0x20783830
  1066bd:	45                   	inc    %ebp
  1066be:	44                   	inc    %esp
  1066bf:	58                   	pop    %eax
  1066c0:	20 25 30 38 78 20    	and    %ah,0x20783830
  1066c6:	45                   	inc    %ebp
  1066c7:	43                   	inc    %ebx
  1066c8:	58                   	pop    %eax
  1066c9:	20 25 30 38 78 20    	and    %ah,0x20783830
  1066cf:	45                   	inc    %ebp
  1066d0:	41                   	inc    %ecx
  1066d1:	58                   	pop    %eax
  1066d2:	20 25 30 38 78 0a    	and    %ah,0xa783830
  1066d8:	00 45 52             	add    %al,0x52(%ebp)
  1066db:	52                   	push   %edx
  1066dc:	20 25 30 38 78 20    	and    %ah,0x20783830
  1066e2:	45                   	inc    %ebp
  1066e3:	49                   	dec    %ecx
  1066e4:	50                   	push   %eax
  1066e5:	20 25 30 38 78 0a    	and    %ah,0xa783830
  1066eb:	0a 00                	or     (%eax),%al
  1066ed:	00 00                	add    %al,(%eax)
  1066ef:	00 43 53             	add    %al,0x53(%ebx)
  1066f2:	20 25 30 34 78 20    	and    %ah,0x20783430
  1066f8:	44                   	inc    %esp
  1066f9:	53                   	push   %ebx
  1066fa:	20 25 30 34 78 20    	and    %ah,0x20783430
  106700:	45                   	inc    %ebp
  106701:	53                   	push   %ebx
  106702:	20 25 30 34 78 20    	and    %ah,0x20783430
  106708:	47                   	inc    %edi
  106709:	53                   	push   %ebx
  10670a:	20 25 30 34 78 0a    	and    %ah,0xa783430
  106710:	00 00                	add    %al,(%eax)
  106712:	00 00                	add    %al,(%eax)
  106714:	47                   	inc    %edi
  106715:	44                   	inc    %esp
  106716:	54                   	push   %esp
  106717:	52                   	push   %edx
  106718:	20 25 30 38 78 20    	and    %ah,0x20783830
  10671e:	25 30 34 78 20       	and    $0x20783430,%eax
  106723:	49                   	dec    %ecx
  106724:	44                   	inc    %esp
  106725:	54                   	push   %esp
  106726:	52                   	push   %edx
  106727:	20 25 30 38 78 20    	and    %ah,0x20783830
  10672d:	25 30 34 78 0a       	and    $0xa783430,%eax
  106732:	00 46 41             	add    %al,0x41(%esi)
  106735:	55                   	push   %ebp
  106736:	4c                   	dec    %esp
  106737:	54                   	push   %esp
  106738:	20 4d 45             	and    %cl,0x45(%ebp)
  10673b:	21 21                	and    %esp,(%ecx)
  10673d:	21 21                	and    %esp,(%ecx)
  10673f:	21 0a                	and    %ecx,(%edx)
  106741:	00 00                	add    %al,(%eax)
  106743:	00 49 6e             	add    %cl,0x6e(%ecx)
  106746:	74 65                	je     1067ad <__debug_baud_rate+0x6d9>
  106748:	72 72                	jb     1067bc <__debug_baud_rate+0x6e8>
  10674a:	75 70                	jne    1067bc <__debug_baud_rate+0x6e8>
  10674c:	74 73                	je     1067c1 <__debug_baud_rate+0x6ed>
  10674e:	20 65 6e             	and    %ah,0x6e(%ebp)
  106751:	61                   	popa   
  106752:	62 6c 65 64          	bound  %ebp,0x64(%ebp,%eiz,2)
  106756:	20 73 75             	and    %dh,0x75(%ebx)
  106759:	63 63 65             	arpl   %sp,0x65(%ebx)
  10675c:	73 73                	jae    1067d1 <__debug_baud_rate+0x6fd>
  10675e:	66 75 6c             	data16 jne 1067cd <__debug_baud_rate+0x6f9>
  106761:	6c                   	insb   (%dx),%es:(%edi)
  106762:	79 0a                	jns    10676e <__debug_baud_rate+0x69a>
  106764:	00 00                	add    %al,(%eax)
  106766:	00 00                	add    %al,(%eax)
  106768:	2a 2a                	sub    (%edx),%ch
  10676a:	2a 20                	sub    (%eax),%ah
  10676c:	54                   	push   %esp
  10676d:	68 65 20 6d 65       	push   $0x656d2065
  106772:	6d                   	insl   (%dx),%es:(%edi)
  106773:	6f                   	outsl  %ds:(%esi),(%dx)
  106774:	72 79                	jb     1067ef <__debug_baud_rate+0x71b>
  106776:	20 6d 61             	and    %ch,0x61(%ebp)
  106779:	6e                   	outsb  %ds:(%esi),(%dx)
  10677a:	61                   	popa   
  10677b:	67 65 72 20          	addr16 gs jb 10679f <__debug_baud_rate+0x6cb>
  10677f:	66 61                	popaw  
  106781:	69 6c 65 64 20 74 6f 	imul   $0x206f7420,0x64(%ebp,%eiz,2),%ebp
  106788:	20 
  106789:	61                   	popa   
  10678a:	6c                   	insb   (%dx),%es:(%edi)
  10678b:	6c                   	insb   (%dx),%es:(%edi)
  10678c:	6f                   	outsl  %ds:(%esi),(%dx)
  10678d:	63 61 74             	arpl   %sp,0x74(%ecx)
  106790:	65 20 65 6e          	and    %ah,%gs:0x6e(%ebp)
  106794:	6f                   	outsl  %ds:(%esi),(%dx)
  106795:	75 67                	jne    1067fe <__debug_baud_rate+0x72a>
  106797:	68 20 6d 65 6d       	push   $0x6d656d20
  10679c:	6f                   	outsl  %ds:(%esi),(%dx)
  10679d:	72 79                	jb     106818 <__debug_baud_rate+0x744>
  10679f:	2e 0a 00             	or     %cs:(%eax),%al
  1067a2:	61                   	popa   
  1067a3:	72 63                	jb     106808 <__debug_baud_rate+0x734>
  1067a5:	68 2f 69 33 38       	push   $0x3833692f
  1067aa:	36 2f                	ss das 
  1067ac:	6d                   	insl   (%dx),%es:(%edi)
  1067ad:	65 6d                	gs insl (%dx),%es:(%edi)
  1067af:	2e 63 00             	arpl   %ax,%cs:(%eax)
  1067b2:	00 00                	add    %al,(%eax)
  1067b4:	2a 2a                	sub    (%edx),%ch
  1067b6:	2a 20                	sub    (%eax),%ah
  1067b8:	46                   	inc    %esi
  1067b9:	61                   	popa   
  1067ba:	69 6c 65 64 20 74 6f 	imul   $0x206f7420,0x64(%ebp,%eiz,2),%ebp
  1067c1:	20 
  1067c2:	61                   	popa   
  1067c3:	6c                   	insb   (%dx),%es:(%edi)
  1067c4:	6c                   	insb   (%dx),%es:(%edi)
  1067c5:	6f                   	outsl  %ds:(%esi),(%dx)
  1067c6:	63 61 74             	arpl   %sp,0x74(%ecx)
  1067c9:	65 20 25 69 20 62 79 	and    %ah,%gs:0x79622069
  1067d0:	74 65                	je     106837 <__debug_baud_rate+0x763>
  1067d2:	73 20                	jae    1067f4 <__debug_baud_rate+0x720>
  1067d4:	28 73 65             	sub    %dh,0x65(%ebx)
  1067d7:	71 75                	jno    10684e <__debug_baud_rate+0x77a>
  1067d9:	65 6e                	outsb  %gs:(%esi),(%dx)
  1067db:	63 65 3a             	arpl   %sp,0x3a(%ebp)
  1067de:	20 25 73 29 0a 00    	and    %ah,0xa2973
  1067e4:	2a 2a                	sub    (%edx),%ch
  1067e6:	2a 20                	sub    (%eax),%ah
  1067e8:	54                   	push   %esp
  1067e9:	6f                   	outsl  %ds:(%esi),(%dx)
  1067ea:	6f                   	outsl  %ds:(%esi),(%dx)
  1067eb:	20 6d 75             	and    %ch,0x75(%ebp)
  1067ee:	63 68 20             	arpl   %bp,0x20(%eax)
  1067f1:	70 68                	jo     10685b <__debug_baud_rate+0x787>
  1067f3:	79 73                	jns    106868 <__debug_baud_rate+0x794>
  1067f5:	69 63 61 6c 20 6d 65 	imul   $0x656d206c,0x61(%ebx),%esp
  1067fc:	6d                   	insl   (%dx),%es:(%edi)
  1067fd:	6f                   	outsl  %ds:(%esi),(%dx)
  1067fe:	72 79                	jb     106879 <__debug_baud_rate+0x7a5>
  106800:	20 69 73             	and    %ch,0x73(%ecx)
  106803:	20 69 6e             	and    %ch,0x6e(%ecx)
  106806:	20 75 73             	and    %dh,0x73(%ebp)
  106809:	65 2e 20 52 65       	gs and %dl,%cs:0x65(%edx)
  10680e:	61                   	popa   
  10680f:	63 68 65             	arpl   %bp,0x65(%eax)
  106812:	64 20 74 68 65       	and    %dh,%fs:0x65(%eax,%ebp,2)
  106817:	20 6d 61             	and    %ch,0x61(%ebp)
  10681a:	78 69                	js     106885 <__debug_baud_rate+0x7b1>
  10681c:	6d                   	insl   (%dx),%es:(%edi)
  10681d:	75 6d                	jne    10688c <__debug_baud_rate+0x7b8>
  10681f:	20 73 69             	and    %dh,0x69(%ebx)
  106822:	7a 65                	jp     106889 <__debug_baud_rate+0x7b5>
  106824:	20 6f 66             	and    %ch,0x66(%edi)
  106827:	20 74 68 65          	and    %dh,0x65(%eax,%ebp,2)
  10682b:	20 69 64             	and    %ch,0x64(%ecx)
  10682e:	65 6e                	outsb  %gs:(%esi),(%dx)
  106830:	74 69                	je     10689b <__debug_baud_rate+0x7c7>
  106832:	74 79                	je     1068ad <__debug_baud_rate+0x7d9>
  106834:	20 6d 61             	and    %ch,0x61(%ebp)
  106837:	70 70                	jo     1068a9 <__debug_baud_rate+0x7d5>
  106839:	65 64 20 72 65       	gs and %dh,%fs:0x65(%edx)
  10683e:	67 69 6f 6e 2e 00 6d 	imul   $0x656d002e,0x6e(%bx),%ebp
  106845:	65 
  106846:	6d                   	insl   (%dx),%es:(%edi)
  106847:	00 43 72             	add    %al,0x72(%ebx)
  10684a:	65 61                	gs popa 
  10684c:	74 69                	je     1068b7 <__debug_baud_rate+0x7e3>
  10684e:	6e                   	outsb  %ds:(%esi),(%dx)
  10684f:	67 20 61 20          	and    %ah,0x20(%bx,%di)
  106853:	50                   	push   %eax
  106854:	44                   	inc    %esp
  106855:	45                   	inc    %ebp
  106856:	20 61 74             	and    %ah,0x74(%ecx)
  106859:	20 30                	and    %dh,(%eax)
  10685b:	78 25                	js     106882 <__debug_baud_rate+0x7ae>
  10685d:	78 0a                	js     106869 <__debug_baud_rate+0x795>
  10685f:	00 54 6f 6f          	add    %dl,0x6f(%edi,%ebp,2)
  106863:	20 6d 75             	and    %ch,0x75(%ebp)
  106866:	63 68 20             	arpl   %bp,0x20(%eax)
  106869:	6d                   	insl   (%dx),%es:(%edi)
  10686a:	65 6d                	gs insl (%dx),%es:(%edi)
  10686c:	6f                   	outsl  %ds:(%esi),(%dx)
  10686d:	72 79                	jb     1068e8 <__debug_baud_rate+0x814>
  10686f:	20 69 6e             	and    %ch,0x6e(%ecx)
  106872:	20 50 4d             	and    %dl,0x4d(%eax)
  106875:	4d                   	dec    %ebp
  106876:	20 62 69             	and    %ah,0x69(%edx)
  106879:	74 6d                	je     1068e8 <__debug_baud_rate+0x814>
  10687b:	61                   	popa   
  10687c:	70 2e                	jo     1068ac <__debug_baud_rate+0x7d8>
  10687e:	20 4d 61             	and    %cl,0x61(%ebp)
  106881:	78 69                	js     1068ec <__debug_baud_rate+0x818>
  106883:	6d                   	insl   (%dx),%es:(%edi)
  106884:	75 6d                	jne    1068f3 <__debug_baud_rate+0x81f>
  106886:	20 61 6c             	and    %ah,0x6c(%ecx)
  106889:	6c                   	insb   (%dx),%es:(%edi)
  10688a:	6f                   	outsl  %ds:(%esi),(%dx)
  10688b:	77 65                	ja     1068f2 <__debug_baud_rate+0x81e>
  10688d:	64 20 6d 65          	and    %ch,%fs:0x65(%ebp)
  106891:	6d                   	insl   (%dx),%es:(%edi)
  106892:	6f                   	outsl  %ds:(%esi),(%dx)
  106893:	72 79                	jb     10690e <__debug_baud_rate+0x83a>
  106895:	20 73 69             	and    %dh,0x69(%ebx)
  106898:	7a 65                	jp     1068ff <__debug_baud_rate+0x82b>
  10689a:	20 69 73             	and    %ch,0x73(%ecx)
  10689d:	20 25 69 20 4b 42    	and    %ah,0x424b2069
  1068a3:	20 61 6e             	and    %ah,0x6e(%ecx)
  1068a6:	64 20 66 6f          	and    %ah,%fs:0x6f(%esi)
  1068aa:	75 6e                	jne    10691a <__debug_baud_rate+0x846>
  1068ac:	64 20 25 69 20 4b 42 	and    %ah,%fs:0x424b2069
  1068b3:	20 2d 20 6c 69 6d    	and    %ch,0x6d696c20
  1068b9:	69 74 69 6e 67 20 73 	imul   $0x69732067,0x6e(%ecx,%ebp,2),%esi
  1068c0:	69 
  1068c1:	7a 65                	jp     106928 <__debug_baud_rate+0x854>
  1068c3:	0a 00                	or     (%eax),%al
  1068c5:	00 00                	add    %al,(%eax)
  1068c7:	00 46 69             	add    %al,0x69(%esi)
  1068ca:	6e                   	outsb  %ds:(%esi),(%dx)
  1068cb:	69 73 68 65 64 20 63 	imul   $0x63206465,0x68(%ebx),%esi
  1068d2:	72 65                	jb     106939 <__debug_baud_rate+0x865>
  1068d4:	61                   	popa   
  1068d5:	74 69                	je     106940 <__debug_baud_rate+0x86c>
  1068d7:	6e                   	outsb  %ds:(%esi),(%dx)
  1068d8:	67 20 6d 65          	and    %ch,0x65(%di)
  1068dc:	6d                   	insl   (%dx),%es:(%edi)
  1068dd:	6f                   	outsl  %ds:(%esi),(%dx)
  1068de:	72 79                	jb     106959 <__debug_baud_rate+0x885>
  1068e0:	20 6d 61             	and    %ch,0x61(%ebp)
  1068e3:	70 2e                	jo     106913 <__debug_baud_rate+0x83f>
  1068e5:	0a 00                	or     (%eax),%al
  1068e7:	59                   	pop    %ecx
  1068e8:	6f                   	outsl  %ds:(%esi),(%dx)
  1068e9:	2c 20                	sub    $0x20,%al
  1068eb:	77 65                	ja     106952 <__debug_baud_rate+0x87e>
  1068ed:	27                   	daa    
  1068ee:	72 65                	jb     106955 <__debug_baud_rate+0x881>
  1068f0:	20 6e 6f             	and    %ch,0x6f(%esi)
  1068f3:	74 20                	je     106915 <__debug_baud_rate+0x841>
  1068f5:	64 65 61             	fs gs popa 
  1068f8:	64 20 79 65          	and    %bh,%fs:0x65(%ecx)
  1068fc:	74 3f                	je     10693d <__debug_baud_rate+0x869>
  1068fe:	00 00                	add    %al,(%eax)
  106900:	25 73 0a 00 61       	and    $0x61000a73,%eax
  106905:	72 63                	jb     10696a <__debug_baud_rate+0x896>
  106907:	68 2f 69 33 38       	push   $0x3833692f
  10690c:	36 2f                	ss das 
  10690e:	61                   	popa   
  10690f:	72 63                	jb     106974 <__debug_baud_rate+0x8a0>
  106911:	68 2e 63 00 00       	push   $0x632e
  106916:	00 00                	add    %al,(%eax)
  106918:	48                   	dec    %eax
  106919:	65 78 61             	gs js  10697d <__debug_baud_rate+0x8a9>
  10691c:	68 65 64 72 6f       	push   $0x6f726465
  106921:	6e                   	outsb  %ds:(%esi),(%dx)
  106922:	20 25 64 2e 25 64    	and    %ah,0x64252e64
  106928:	2e 25 64 2d 25 73    	cs and $0x73252d64,%eax
  10692e:	2d 25 73 20 28       	sub    $0x28207325,%eax
  106933:	63 6f 64             	arpl   %bp,0x64(%edi)
  106936:	65 6e                	outsb  %gs:(%esi),(%dx)
  106938:	61                   	popa   
  106939:	6d                   	insl   (%dx),%es:(%edi)
  10693a:	65 20 22             	and    %ah,%gs:(%edx)
  10693d:	25 73 22 29 0a       	and    $0xa292273,%eax
  106942:	00 09                	add    %cl,(%ecx)
  106944:	43                   	inc    %ebx
  106945:	6f                   	outsl  %ds:(%esi),(%dx)
  106946:	6d                   	insl   (%dx),%es:(%edi)
  106947:	70 69                	jo     1069b2 <__debug_baud_rate+0x8de>
  106949:	6c                   	insb   (%dx),%es:(%edi)
  10694a:	65 64 20 62 79       	gs and %ah,%fs:0x79(%edx)
  10694f:	20 25 73 20 6f 6e    	and    %ah,0x6e6f2073
  106955:	20 25 73 20 25 73    	and    %ah,0x73252073
  10695b:	0a 0a                	or     (%edx),%cl
  10695d:	00 46 6f             	add    %al,0x6f(%esi)
  106960:	75 6e                	jne    1069d0 <__debug_baud_rate+0x8fc>
  106962:	64 20 61 20          	and    %ah,%fs:0x20(%ecx)
  106966:	4d                   	dec    %ebp
  106967:	75 6c                	jne    1069d5 <__debug_baud_rate+0x901>
  106969:	74 69                	je     1069d4 <__debug_baud_rate+0x900>
  10696b:	62 6f 6f             	bound  %ebp,0x6f(%edi)
  10696e:	74 31                	je     1069a1 <__debug_baud_rate+0x8cd>
  106970:	20 73 74             	and    %dh,0x74(%ebx)
  106973:	72 75                	jb     1069ea <__debug_baud_rate+0x916>
  106975:	63 74 75 72          	arpl   %si,0x72(%ebp,%esi,2)
  106979:	65 0a 00             	or     %gs:(%eax),%al
  10697c:	46                   	inc    %esi
  10697d:	6f                   	outsl  %ds:(%esi),(%dx)
  10697e:	75 6e                	jne    1069ee <__debug_baud_rate+0x91a>
  106980:	64 20 61 20          	and    %ah,%fs:0x20(%ecx)
  106984:	4d                   	dec    %ebp
  106985:	75 6c                	jne    1069f3 <__debug_baud_rate+0x91f>
  106987:	74 69                	je     1069f2 <__debug_baud_rate+0x91e>
  106989:	62 6f 6f             	bound  %ebp,0x6f(%edi)
  10698c:	74 32                	je     1069c0 <__debug_baud_rate+0x8ec>
  10698e:	20 73 74             	and    %dh,0x74(%ebx)
  106991:	72 75                	jb     106a08 <__debug_baud_rate+0x934>
  106993:	63 74 75 72          	arpl   %si,0x72(%ebp,%esi,2)
  106997:	65 0a 00             	or     %gs:(%eax),%al
  10699a:	61                   	popa   
  10699b:	72 63                	jb     106a00 <__debug_baud_rate+0x92c>
  10699d:	68 00 00 2a 2a       	push   $0x2a2a0000
  1069a2:	2a 20                	sub    (%eax),%ah
  1069a4:	55                   	push   %ebp
  1069a5:	6e                   	outsb  %ds:(%esi),(%dx)
  1069a6:	6b 6e 6f 77          	imul   $0x77,0x6f(%esi),%ebp
  1069aa:	6e                   	outsb  %ds:(%esi),(%dx)
  1069ab:	20 6d 75             	and    %ch,0x75(%ebp)
  1069ae:	6c                   	insb   (%dx),%es:(%edi)
  1069af:	74 69                	je     106a1a <__debug_baud_rate+0x946>
  1069b1:	62 6f 6f             	bound  %ebp,0x6f(%edi)
  1069b4:	74 20                	je     1069d6 <__debug_baud_rate+0x902>
  1069b6:	73 74                	jae    106a2c <__debug_baud_rate+0x958>
  1069b8:	72 75                	jb     106a2f <__debug_baud_rate+0x95b>
  1069ba:	63 74 75 72          	arpl   %si,0x72(%ebp,%esi,2)
  1069be:	65 20 77 68          	and    %dh,%gs:0x68(%edi)
  1069c2:	65 6e                	outsb  %gs:(%esi),(%dx)
  1069c4:	20 63 68             	and    %ah,0x68(%ebx)
  1069c7:	65 63 6b 69          	arpl   %bp,%gs:0x69(%ebx)
  1069cb:	6e                   	outsb  %ds:(%esi),(%dx)
  1069cc:	67 20 6b 65          	and    %ch,0x65(%bp,%di)
  1069d0:	72 6e                	jb     106a40 <__debug_baud_rate+0x96c>
  1069d2:	65 6c                	gs insb (%dx),%es:(%edi)
  1069d4:	2e 0a 00             	or     %cs:(%eax),%al
  1069d7:	00 4c 6f 61          	add    %cl,0x61(%edi,%ebp,2)
  1069db:	64 65 64 20 62 79    	fs gs and %ah,%fs:0x79(%edx)
  1069e1:	20 27                	and    %ah,(%edi)
  1069e3:	25 73 27 20 77       	and    $0x77202773,%eax
  1069e8:	69 74 68 20 63 6f 6d 	imul   $0x6d6d6f63,0x20(%eax,%ebp,2),%esi
  1069ef:	6d 
  1069f0:	61                   	popa   
  1069f1:	6e                   	outsb  %ds:(%esi),(%dx)
  1069f2:	64 20 6c 69 6e       	and    %ch,%fs:0x6e(%ecx,%ebp,2)
  1069f7:	65 20 27             	and    %ah,%gs:(%edi)
  1069fa:	25 73 27 0a 00       	and    $0xa2773,%eax
  1069ff:	00 41 76             	add    %al,0x76(%ecx)
  106a02:	61                   	popa   
  106a03:	69 6c 61 62 6c 65 20 	imul   $0x7020656c,0x62(%ecx,%eiz,2),%ebp
  106a0a:	70 
  106a0b:	68 79 73 69 63       	push   $0x63697379
  106a10:	61                   	popa   
  106a11:	6c                   	insb   (%dx),%es:(%edi)
  106a12:	20 6d 65             	and    %ch,0x65(%ebp)
  106a15:	6d                   	insl   (%dx),%es:(%edi)
  106a16:	6f                   	outsl  %ds:(%esi),(%dx)
  106a17:	72 79                	jb     106a92 <__debug_baud_rate+0x9be>
  106a19:	20 74 6f 20          	and    %dh,0x20(%edi,%ebp,2)
  106a1d:	6d                   	insl   (%dx),%es:(%edi)
  106a1e:	61                   	popa   
  106a1f:	63 68 69             	arpl   %bp,0x69(%eax)
  106a22:	6e                   	outsb  %ds:(%esi),(%dx)
  106a23:	65 3a 20             	cmp    %gs:(%eax),%ah
  106a26:	25 69 20 4b 42       	and    $0x424b2069,%eax
  106a2b:	0a 00                	or     (%eax),%al
  106a2d:	00 00                	add    %al,(%eax)
  106a2f:	00 4b 65             	add    %cl,0x65(%ebx)
  106a32:	72 6e                	jb     106aa2 <__debug_baud_rate+0x9ce>
  106a34:	65 6c                	gs insb (%dx),%es:(%edi)
  106a36:	20 69 73             	and    %ch,0x73(%ecx)
  106a39:	20 75 73             	and    %dh,0x73(%ebp)
  106a3c:	69 6e 67 20 25 69 20 	imul   $0x20692520,0x67(%esi),%ebp
  106a43:	4b                   	dec    %ebx
  106a44:	42                   	inc    %edx
  106a45:	20 69 6e             	and    %ch,0x6e(%ecx)
  106a48:	20 6d 65             	and    %ch,0x65(%ebp)
  106a4b:	6d                   	insl   (%dx),%es:(%edi)
  106a4c:	6f                   	outsl  %ds:(%esi),(%dx)
  106a4d:	72 79                	jb     106ac8 <__debug_baud_rate+0x9f4>
  106a4f:	20 2d 20 65 78 74    	and    %ch,0x74786520
  106a55:	72 61                	jb     106ab8 <__debug_baud_rate+0x9e4>
  106a57:	20 64 61 74          	and    %ah,0x74(%ecx,%eiz,2)
  106a5b:	61                   	popa   
  106a5c:	73 74                	jae    106ad2 <__debug_baud_rate+0x9fe>
  106a5e:	72 75                	jb     106ad5 <__debug_baud_rate+0xa01>
  106a60:	63 74 75 72          	arpl   %si,0x72(%ebp,%esi,2)
  106a64:	65 73 20             	gs jae 106a87 <__debug_baud_rate+0x9b3>
  106a67:	61                   	popa   
  106a68:	72 65                	jb     106acf <__debug_baud_rate+0x9fb>
  106a6a:	20 75 73             	and    %dh,0x73(%ebp)
  106a6d:	69 6e 67 20 25 69 20 	imul   $0x20692520,0x67(%esi),%ebp
  106a74:	4b                   	dec    %ebx
  106a75:	42                   	inc    %edx
  106a76:	0a 00                	or     (%eax),%al
  106a78:	45                   	inc    %ebp
  106a79:	25 10 00 db 24       	and    $0x24db0010,%eax
  106a7e:	10 00                	adc    %al,(%eax)
  106a80:	e2 24                	loop   106aa6 <__debug_baud_rate+0x9d2>
  106a82:	10 00                	adc    %al,(%eax)
  106a84:	ff 24 10             	jmp    *(%eax,%edx,1)
  106a87:	00 06                	add    %al,(%esi)
  106a89:	25 10 00 0d 25       	and    $0x250d0010,%eax
  106a8e:	10 00                	adc    %al,(%eax)
  106a90:	14 25                	adc    $0x25,%al
  106a92:	10 00                	adc    %al,(%eax)
  106a94:	1b 25 10 00 22 25    	sbb    0x25220010,%esp
  106a9a:	10 00                	adc    %al,(%eax)
  106a9c:	29 25 10 00 30 25    	sub    %esp,0x25300010
  106aa2:	10 00                	adc    %al,(%eax)
  106aa4:	37                   	aaa    
  106aa5:	25 10 00 3e 25       	and    $0x253e0010,%eax
  106aaa:	10 00                	adc    %al,(%eax)
  106aac:	63 6c 6f 63          	arpl   %bp,0x63(%edi,%ebp,2)
  106ab0:	6b 3a 20             	imul   $0x20,(%edx),%edi
  106ab3:	46                   	inc    %esi
  106ab4:	61                   	popa   
  106ab5:	69 6c 65 64 20 74 6f 	imul   $0x206f7420,0x64(%ebp,%eiz,2),%ebp
  106abc:	20 
  106abd:	63 61 6c             	arpl   %sp,0x6c(%ecx)
  106ac0:	63 75 6c             	arpl   %si,0x6c(%ebp)
  106ac3:	61                   	popa   
  106ac4:	74 65                	je     106b2b <__debug_baud_rate+0xa57>
  106ac6:	20 74 68 65          	and    %dh,0x65(%eax,%ebp,2)
  106aca:	20 54 53 43          	and    %dl,0x43(%ebx,%edx,2)
  106ace:	20 4d 48             	and    %cl,0x48(%ebp)
  106ad1:	7a 20                	jp     106af3 <__debug_baud_rate+0xa1f>
  106ad3:	2d 20 64 65 66       	sub    $0x66656420,%eax
  106ad8:	61                   	popa   
  106ad9:	75 6c                	jne    106b47 <__debug_baud_rate+0xa73>
  106adb:	74 69                	je     106b46 <__debug_baud_rate+0xa72>
  106add:	6e                   	outsb  %ds:(%esi),(%dx)
  106ade:	67 20 74 6f          	and    %dh,0x6f(%si)
  106ae2:	20 32                	and    %dh,(%edx)
  106ae4:	30 30                	xor    %dh,(%eax)
  106ae6:	30 0a                	xor    %cl,(%edx)
  106ae8:	00 64 72 69          	add    %ah,0x69(%edx,%esi,2)
  106aec:	76 65                	jbe    106b53 <__debug_baud_rate+0xa7f>
  106aee:	72 73                	jb     106b63 <__debug_baud_rate+0xa8f>
  106af0:	2f                   	das    
  106af1:	78 38                	js     106b2b <__debug_baud_rate+0xa57>
  106af3:	36 2f                	ss das 
  106af5:	63 6c 6f 63          	arpl   %bp,0x63(%edi,%ebp,2)
  106af9:	6b 2e 63             	imul   $0x63,(%esi),%ebp
  106afc:	00 00                	add    %al,(%eax)
  106afe:	00 00                	add    %al,(%eax)
  106b00:	63 6c 6f 63          	arpl   %bp,0x63(%edi,%ebp,2)
  106b04:	6b 3a 20             	imul   $0x20,(%edx),%edi
  106b07:	54                   	push   %esp
  106b08:	53                   	push   %ebx
  106b09:	43                   	inc    %ebx
  106b0a:	20 63 61             	and    %ah,0x61(%ebx)
  106b0d:	6c                   	insb   (%dx),%es:(%edi)
  106b0e:	63 75 6c             	arpl   %si,0x6c(%ebp)
  106b11:	61                   	popa   
  106b12:	74 65                	je     106b79 <__debug_baud_rate+0xaa5>
  106b14:	64 20 73 70          	and    %dh,%fs:0x70(%ebx)
  106b18:	65 65 64 20 69 73    	gs gs and %ch,%fs:0x73(%ecx)
  106b1e:	20 25 6c 75 20 4d    	and    %ah,0x4d20756c
  106b24:	48                   	dec    %eax
  106b25:	7a 0a                	jp     106b31 <__debug_baud_rate+0xa5d>
  106b27:	00 63 6c             	add    %ah,0x6c(%ebx)
  106b2a:	6f                   	outsl  %ds:(%esi),(%dx)
  106b2b:	63 6b 3a             	arpl   %bp,0x3a(%ebx)
  106b2e:	20 49 6e             	and    %cl,0x6e(%ecx)
  106b31:	69 74 69 61 6c 20 62 	imul   $0x6f62206c,0x61(%ecx,%ebp,2),%esi
  106b38:	6f 
  106b39:	6f                   	outsl  %ds:(%esi),(%dx)
  106b3a:	74 20                	je     106b5c <__debug_baud_rate+0xa88>
  106b3c:	74 69                	je     106ba7 <__debug_baud_rate+0xad3>
  106b3e:	6d                   	insl   (%dx),%es:(%edi)
  106b3f:	65 20 69 73          	and    %ch,%gs:0x73(%ecx)
  106b43:	20 25 6c 75 20 28    	and    %ah,0x2820756c
  106b49:	55                   	push   %ebp
  106b4a:	4e                   	dec    %esi
  106b4b:	49                   	dec    %ecx
  106b4c:	58                   	pop    %eax
  106b4d:	20 74 69 6d          	and    %dh,0x6d(%ecx,%ebp,2)
  106b51:	65 73 74             	gs jae 106bc8 <__debug_baud_rate+0xaf4>
  106b54:	61                   	popa   
  106b55:	6d                   	insl   (%dx),%es:(%edi)
  106b56:	70 29                	jo     106b81 <__debug_baud_rate+0xaad>
  106b58:	0a 00                	or     (%eax),%al
  106b5a:	63 6c 6f 63          	arpl   %bp,0x63(%edi,%ebp,2)
  106b5e:	6b 3a 20             	imul   $0x20,(%edx),%edi
  106b61:	54                   	push   %esp
  106b62:	53                   	push   %ebx
  106b63:	43                   	inc    %ebx
  106b64:	20 62 61             	and    %ah,0x61(%edx)
  106b67:	73 65                	jae    106bce <__debug_baud_rate+0xafa>
  106b69:	6c                   	insb   (%dx),%es:(%edi)
  106b6a:	69 6e 65 20 69 73 20 	imul   $0x20736920,0x65(%esi),%ebp
  106b71:	25 6c 75 75 73       	and    $0x7375756c,%eax
  106b76:	0a 00                	or     (%eax),%al
  106b78:	50                   	push   %eax
  106b79:	72 6f                	jb     106bea <__debug_baud_rate+0xb16>
  106b7b:	67 72 61             	addr16 jb 106bdf <__debug_baud_rate+0xb0b>
  106b7e:	6d                   	insl   (%dx),%es:(%edi)
  106b7f:	6d                   	insl   (%dx),%es:(%edi)
  106b80:	61                   	popa   
  106b81:	62 6c 65 20          	bound  %ebp,0x20(%ebp,%eiz,2)
  106b85:	69 6e 74 65 72 76 61 	imul   $0x61767265,0x74(%esi),%ebp
  106b8c:	6c                   	insb   (%dx),%es:(%edi)
  106b8d:	20 74 69 6d          	and    %dh,0x6d(%ecx,%ebp,2)
  106b91:	65 72 20             	gs jb  106bb4 <__debug_baud_rate+0xae0>
  106b94:	69 6e 69 74 69 61 6c 	imul   $0x6c616974,0x69(%esi),%ebp
  106b9b:	69 7a 65 64 0a 00 64 	imul   $0x64000a64,0x65(%edx),%edi
  106ba2:	72 69                	jb     106c0d <__debug_baud_rate+0xb39>
  106ba4:	76 65                	jbe    106c0b <__debug_baud_rate+0xb37>
  106ba6:	72 73                	jb     106c1b <__debug_baud_rate+0xb47>
  106ba8:	2f                   	das    
  106ba9:	78 38                	js     106be3 <__debug_baud_rate+0xb0f>
  106bab:	36 2f                	ss das 
  106bad:	70 69                	jo     106c18 <__debug_baud_rate+0xb44>
  106baf:	74 2e                	je     106bdf <__debug_baud_rate+0xb0b>
  106bb1:	63 00                	arpl   %ax,(%eax)
	...
  106bbf:	00 30                	add    %dh,(%eax)
  106bc1:	31 32                	xor    %esi,(%edx)
  106bc3:	33 34 35 36 37 38 39 	xor    0x39383736(,%esi,1),%esi
  106bca:	41                   	inc    %ecx
  106bcb:	42                   	inc    %edx
  106bcc:	43                   	inc    %ebx
  106bcd:	44                   	inc    %esp
  106bce:	45                   	inc    %ebp
  106bcf:	46                   	inc    %esi
  106bd0:	00 30                	add    %dh,(%eax)
  106bd2:	31 32                	xor    %esi,(%edx)
  106bd4:	33 34 35 36 37 38 39 	xor    0x39383736(,%esi,1),%esi
  106bdb:	61                   	popa   
  106bdc:	62 63 64             	bound  %esp,0x64(%ebx)
  106bdf:	65 66 00 28          	data16 add %ch,%gs:(%eax)
  106be3:	6e                   	outsb  %ds:(%esi),(%dx)
  106be4:	75 6c                	jne    106c52 <__debug_baud_rate+0xb7e>
  106be6:	6c                   	insb   (%dx),%es:(%edi)
  106be7:	29 00                	sub    %eax,(%eax)
  106be9:	00 00                	add    %al,(%eax)
  106beb:	00 7e 44             	add    %bh,0x44(%esi)
  106bee:	10 00                	adc    %al,(%eax)
  106bf0:	94                   	xchg   %eax,%esp
  106bf1:	44                   	inc    %esp
  106bf2:	10 00                	adc    %al,(%eax)
  106bf4:	94                   	xchg   %eax,%esp
  106bf5:	44                   	inc    %esp
  106bf6:	10 00                	adc    %al,(%eax)
  106bf8:	94                   	xchg   %eax,%esp
  106bf9:	44                   	inc    %esp
  106bfa:	10 00                	adc    %al,(%eax)
  106bfc:	94                   	xchg   %eax,%esp
  106bfd:	44                   	inc    %esp
  106bfe:	10 00                	adc    %al,(%eax)
  106c00:	94                   	xchg   %eax,%esp
  106c01:	44                   	inc    %esp
  106c02:	10 00                	adc    %al,(%eax)
  106c04:	94                   	xchg   %eax,%esp
  106c05:	44                   	inc    %esp
  106c06:	10 00                	adc    %al,(%eax)
  106c08:	94                   	xchg   %eax,%esp
  106c09:	44                   	inc    %esp
  106c0a:	10 00                	adc    %al,(%eax)
  106c0c:	94                   	xchg   %eax,%esp
  106c0d:	44                   	inc    %esp
  106c0e:	10 00                	adc    %al,(%eax)
  106c10:	94                   	xchg   %eax,%esp
  106c11:	44                   	inc    %esp
  106c12:	10 00                	adc    %al,(%eax)
  106c14:	94                   	xchg   %eax,%esp
  106c15:	44                   	inc    %esp
  106c16:	10 00                	adc    %al,(%eax)
  106c18:	94                   	xchg   %eax,%esp
  106c19:	44                   	inc    %esp
  106c1a:	10 00                	adc    %al,(%eax)
  106c1c:	94                   	xchg   %eax,%esp
  106c1d:	44                   	inc    %esp
  106c1e:	10 00                	adc    %al,(%eax)
  106c20:	94                   	xchg   %eax,%esp
  106c21:	44                   	inc    %esp
  106c22:	10 00                	adc    %al,(%eax)
  106c24:	94                   	xchg   %eax,%esp
  106c25:	44                   	inc    %esp
  106c26:	10 00                	adc    %al,(%eax)
  106c28:	94                   	xchg   %eax,%esp
  106c29:	44                   	inc    %esp
  106c2a:	10 00                	adc    %al,(%eax)
  106c2c:	94                   	xchg   %eax,%esp
  106c2d:	44                   	inc    %esp
  106c2e:	10 00                	adc    %al,(%eax)
  106c30:	94                   	xchg   %eax,%esp
  106c31:	44                   	inc    %esp
  106c32:	10 00                	adc    %al,(%eax)
  106c34:	94                   	xchg   %eax,%esp
  106c35:	44                   	inc    %esp
  106c36:	10 00                	adc    %al,(%eax)
  106c38:	94                   	xchg   %eax,%esp
  106c39:	44                   	inc    %esp
  106c3a:	10 00                	adc    %al,(%eax)
  106c3c:	94                   	xchg   %eax,%esp
  106c3d:	44                   	inc    %esp
  106c3e:	10 00                	adc    %al,(%eax)
  106c40:	94                   	xchg   %eax,%esp
  106c41:	44                   	inc    %esp
  106c42:	10 00                	adc    %al,(%eax)
  106c44:	94                   	xchg   %eax,%esp
  106c45:	44                   	inc    %esp
  106c46:	10 00                	adc    %al,(%eax)
  106c48:	94                   	xchg   %eax,%esp
  106c49:	44                   	inc    %esp
  106c4a:	10 00                	adc    %al,(%eax)
  106c4c:	94                   	xchg   %eax,%esp
  106c4d:	44                   	inc    %esp
  106c4e:	10 00                	adc    %al,(%eax)
  106c50:	94                   	xchg   %eax,%esp
  106c51:	44                   	inc    %esp
  106c52:	10 00                	adc    %al,(%eax)
  106c54:	94                   	xchg   %eax,%esp
  106c55:	44                   	inc    %esp
  106c56:	10 00                	adc    %al,(%eax)
  106c58:	94                   	xchg   %eax,%esp
  106c59:	44                   	inc    %esp
  106c5a:	10 00                	adc    %al,(%eax)
  106c5c:	94                   	xchg   %eax,%esp
  106c5d:	44                   	inc    %esp
  106c5e:	10 00                	adc    %al,(%eax)
  106c60:	94                   	xchg   %eax,%esp
  106c61:	44                   	inc    %esp
  106c62:	10 00                	adc    %al,(%eax)
  106c64:	94                   	xchg   %eax,%esp
  106c65:	44                   	inc    %esp
  106c66:	10 00                	adc    %al,(%eax)
  106c68:	94                   	xchg   %eax,%esp
  106c69:	44                   	inc    %esp
  106c6a:	10 00                	adc    %al,(%eax)
  106c6c:	94                   	xchg   %eax,%esp
  106c6d:	44                   	inc    %esp
  106c6e:	10 00                	adc    %al,(%eax)
  106c70:	f6 3d 10 00 f6 3d    	idivb  0x3df60010
  106c76:	10 00                	adc    %al,(%eax)
  106c78:	94                   	xchg   %eax,%esp
  106c79:	44                   	inc    %esp
  106c7a:	10 00                	adc    %al,(%eax)
  106c7c:	94                   	xchg   %eax,%esp
  106c7d:	44                   	inc    %esp
  106c7e:	10 00                	adc    %al,(%eax)
  106c80:	94                   	xchg   %eax,%esp
  106c81:	44                   	inc    %esp
  106c82:	10 00                	adc    %al,(%eax)
  106c84:	94                   	xchg   %eax,%esp
  106c85:	44                   	inc    %esp
  106c86:	10 00                	adc    %al,(%eax)
  106c88:	94                   	xchg   %eax,%esp
  106c89:	44                   	inc    %esp
  106c8a:	10 00                	adc    %al,(%eax)
  106c8c:	94                   	xchg   %eax,%esp
  106c8d:	44                   	inc    %esp
  106c8e:	10 00                	adc    %al,(%eax)
  106c90:	94                   	xchg   %eax,%esp
  106c91:	44                   	inc    %esp
  106c92:	10 00                	adc    %al,(%eax)
  106c94:	94                   	xchg   %eax,%esp
  106c95:	44                   	inc    %esp
  106c96:	10 00                	adc    %al,(%eax)
  106c98:	94                   	xchg   %eax,%esp
  106c99:	44                   	inc    %esp
  106c9a:	10 00                	adc    %al,(%eax)
  106c9c:	94                   	xchg   %eax,%esp
  106c9d:	44                   	inc    %esp
  106c9e:	10 00                	adc    %al,(%eax)
  106ca0:	94                   	xchg   %eax,%esp
  106ca1:	44                   	inc    %esp
  106ca2:	10 00                	adc    %al,(%eax)
  106ca4:	94                   	xchg   %eax,%esp
  106ca5:	44                   	inc    %esp
  106ca6:	10 00                	adc    %al,(%eax)
  106ca8:	94                   	xchg   %eax,%esp
  106ca9:	44                   	inc    %esp
  106caa:	10 00                	adc    %al,(%eax)
  106cac:	94                   	xchg   %eax,%esp
  106cad:	44                   	inc    %esp
  106cae:	10 00                	adc    %al,(%eax)
  106cb0:	94                   	xchg   %eax,%esp
  106cb1:	44                   	inc    %esp
  106cb2:	10 00                	adc    %al,(%eax)
  106cb4:	94                   	xchg   %eax,%esp
  106cb5:	44                   	inc    %esp
  106cb6:	10 00                	adc    %al,(%eax)
  106cb8:	2f                   	das    
  106cb9:	3c 10                	cmp    $0x10,%al
  106cbb:	00 94 44 10 00 94 44 	add    %dl,0x44940010(%esp,%eax,2)
  106cc2:	10 00                	adc    %al,(%eax)
  106cc4:	94                   	xchg   %eax,%esp
  106cc5:	44                   	inc    %esp
  106cc6:	10 00                	adc    %al,(%eax)
  106cc8:	94                   	xchg   %eax,%esp
  106cc9:	44                   	inc    %esp
  106cca:	10 00                	adc    %al,(%eax)
  106ccc:	94                   	xchg   %eax,%esp
  106ccd:	44                   	inc    %esp
  106cce:	10 00                	adc    %al,(%eax)
  106cd0:	94                   	xchg   %eax,%esp
  106cd1:	44                   	inc    %esp
  106cd2:	10 00                	adc    %al,(%eax)
  106cd4:	94                   	xchg   %eax,%esp
  106cd5:	44                   	inc    %esp
  106cd6:	10 00                	adc    %al,(%eax)
  106cd8:	94                   	xchg   %eax,%esp
  106cd9:	44                   	inc    %esp
  106cda:	10 00                	adc    %al,(%eax)
  106cdc:	94                   	xchg   %eax,%esp
  106cdd:	44                   	inc    %esp
  106cde:	10 00                	adc    %al,(%eax)
  106ce0:	94                   	xchg   %eax,%esp
  106ce1:	44                   	inc    %esp
  106ce2:	10 00                	adc    %al,(%eax)
  106ce4:	02 3c 10             	add    (%eax,%edx,1),%bh
  106ce7:	00 bd 3c 10 00 94    	add    %bh,-0x6bffefc4(%ebp)
  106ced:	44                   	inc    %esp
  106cee:	10 00                	adc    %al,(%eax)
  106cf0:	f6 3d 10 00 f6 3d    	idivb  0x3df60010
  106cf6:	10 00                	adc    %al,(%eax)
  106cf8:	94                   	xchg   %eax,%esp
  106cf9:	44                   	inc    %esp
  106cfa:	10 00                	adc    %al,(%eax)
  106cfc:	bd 3c 10 00 94       	mov    $0x9400103c,%ebp
  106d01:	44                   	inc    %esp
  106d02:	10 00                	adc    %al,(%eax)
  106d04:	94                   	xchg   %eax,%esp
  106d05:	44                   	inc    %esp
  106d06:	10 00                	adc    %al,(%eax)
  106d08:	94                   	xchg   %eax,%esp
  106d09:	44                   	inc    %esp
  106d0a:	10 00                	adc    %al,(%eax)
  106d0c:	94                   	xchg   %eax,%esp
  106d0d:	44                   	inc    %esp
  106d0e:	10 00                	adc    %al,(%eax)
  106d10:	94                   	xchg   %eax,%esp
  106d11:	44                   	inc    %esp
  106d12:	10 00                	adc    %al,(%eax)
  106d14:	94                   	xchg   %eax,%esp
  106d15:	44                   	inc    %esp
  106d16:	10 00                	adc    %al,(%eax)
  106d18:	28 3c 10             	sub    %bh,(%eax,%edx,1)
  106d1b:	00 94 44 10 00 94 44 	add    %dl,0x44940010(%esp,%eax,2)
  106d22:	10 00                	adc    %al,(%eax)
  106d24:	11 3b                	adc    %edi,(%ebx)
  106d26:	10 00                	adc    %al,(%eax)
  106d28:	94                   	xchg   %eax,%esp
  106d29:	44                   	inc    %esp
  106d2a:	10 00                	adc    %al,(%eax)
  106d2c:	80 3d 10 00 94 44 10 	cmpb   $0x10,0x44940010
  106d33:	00 94 44 10 00 2f 3c 	add    %dl,0x3c2f0010(%esp,%eax,2)
  106d3a:	10 00                	adc    %al,(%eax)
	...
  106d44:	00 00                	add    %al,(%eax)
  106d46:	e0 43                	loopne 106d8b <__debug_baud_rate+0xcb7>
  106d48:	00 00                	add    %al,(%eax)
  106d4a:	00 00                	add    %al,(%eax)
  106d4c:	00 6a f8             	add    %ch,-0x8(%edx)
  106d4f:	40                   	inc    %eax
  106d50:	00 00                	add    %al,(%eax)
  106d52:	00 00                	add    %al,(%eax)
  106d54:	00 00                	add    %al,(%eax)
  106d56:	00 80 3f 40 00 00    	add    %al,0x403f(%eax)
	...
  106d64:	00 00                	add    %al,(%eax)
  106d66:	24 40                	and    $0x40,%al
  106d68:	1d 77 4a 07 eb       	sbb    $0xeb074a77,%eax
  106d6d:	ff                   	(bad)  
  106d6e:	ef                   	out    %eax,(%dx)
  106d6f:	3f                   	aas    
  106d70:	f1                   	int1   
  106d71:	68 e3 88 b5 f8       	push   $0xf8b588e3
  106d76:	e4 3e                	in     $0x3e,%al
  106d78:	f1                   	int1   
  106d79:	68 e3 88 b5 f8       	push   $0xf8b588e3
  106d7e:	e4 be                	in     $0xbe,%al
  106d80:	7a 48                	jp     106dca <__debug_baud_rate+0xcf6>
  106d82:	10 00                	adc    %al,(%eax)
  106d84:	10 48 10             	adc    %cl,0x10(%eax)
  106d87:	00 17                	add    %dl,(%edi)
  106d89:	48                   	dec    %eax
  106d8a:	10 00                	adc    %al,(%eax)
  106d8c:	34 48                	xor    $0x48,%al
  106d8e:	10 00                	adc    %al,(%eax)
  106d90:	3b 48 10             	cmp    0x10(%eax),%ecx
  106d93:	00 42 48             	add    %al,0x48(%edx)
  106d96:	10 00                	adc    %al,(%eax)
  106d98:	49                   	dec    %ecx
  106d99:	48                   	dec    %eax
  106d9a:	10 00                	adc    %al,(%eax)
  106d9c:	50                   	push   %eax
  106d9d:	48                   	dec    %eax
  106d9e:	10 00                	adc    %al,(%eax)
  106da0:	57                   	push   %edi
  106da1:	48                   	dec    %eax
  106da2:	10 00                	adc    %al,(%eax)
  106da4:	5e                   	pop    %esi
  106da5:	48                   	dec    %eax
  106da6:	10 00                	adc    %al,(%eax)
  106da8:	65 48                	gs dec %eax
  106daa:	10 00                	adc    %al,(%eax)
  106dac:	6c                   	insb   (%dx),%es:(%edi)
  106dad:	48                   	dec    %eax
  106dae:	10 00                	adc    %al,(%eax)
  106db0:	73 48                	jae    106dfa <__debug_baud_rate+0xd26>
  106db2:	10 00                	adc    %al,(%eax)
  106db4:	55                   	push   %ebp
  106db5:	54                   	push   %esp
  106db6:	43                   	inc    %ebx
  106db7:	00 53 75             	add    %dl,0x75(%ebx)
  106dba:	6e                   	outsb  %ds:(%esi),(%dx)
  106dbb:	64 61                	fs popa 
  106dbd:	79 00                	jns    106dbf <__debug_baud_rate+0xceb>
  106dbf:	4d                   	dec    %ebp
  106dc0:	6f                   	outsl  %ds:(%esi),(%dx)
  106dc1:	6e                   	outsb  %ds:(%esi),(%dx)
  106dc2:	64 61                	fs popa 
  106dc4:	79 00                	jns    106dc6 <__debug_baud_rate+0xcf2>
  106dc6:	54                   	push   %esp
  106dc7:	75 65                	jne    106e2e <__debug_baud_rate+0xd5a>
  106dc9:	73 64                	jae    106e2f <__debug_baud_rate+0xd5b>
  106dcb:	61                   	popa   
  106dcc:	79 00                	jns    106dce <__debug_baud_rate+0xcfa>
  106dce:	57                   	push   %edi
  106dcf:	65 64 6e             	gs outsb %fs:(%esi),(%dx)
  106dd2:	65 73 64             	gs jae 106e39 <__debug_baud_rate+0xd65>
  106dd5:	61                   	popa   
  106dd6:	79 00                	jns    106dd8 <__debug_baud_rate+0xd04>
  106dd8:	54                   	push   %esp
  106dd9:	68 75 72 73 64       	push   $0x64737275
  106dde:	61                   	popa   
  106ddf:	79 00                	jns    106de1 <__debug_baud_rate+0xd0d>
  106de1:	46                   	inc    %esi
  106de2:	72 69                	jb     106e4d <__debug_baud_rate+0xd79>
  106de4:	64 61                	fs popa 
  106de6:	79 00                	jns    106de8 <__debug_baud_rate+0xd14>
  106de8:	53                   	push   %ebx
  106de9:	61                   	popa   
  106dea:	74 75                	je     106e61 <__debug_baud_rate+0xd8d>
  106dec:	72 64                	jb     106e52 <__debug_baud_rate+0xd7e>
  106dee:	61                   	popa   
  106def:	79 00                	jns    106df1 <__debug_baud_rate+0xd1d>
  106df1:	53                   	push   %ebx
  106df2:	75 6e                	jne    106e62 <__debug_baud_rate+0xd8e>
  106df4:	00 4d 6f             	add    %cl,0x6f(%ebp)
  106df7:	6e                   	outsb  %ds:(%esi),(%dx)
  106df8:	00 54 75 65          	add    %dl,0x65(%ebp,%esi,2)
  106dfc:	00 57 65             	add    %dl,0x65(%edi)
  106dff:	64 00 54 68 75       	add    %dl,%fs:0x75(%eax,%ebp,2)
  106e04:	00 46 72             	add    %al,0x72(%esi)
  106e07:	69 00 53 61 74 00    	imul   $0x746153,(%eax),%eax
  106e0d:	4a                   	dec    %edx
  106e0e:	61                   	popa   
  106e0f:	6e                   	outsb  %ds:(%esi),(%dx)
  106e10:	75 61                	jne    106e73 <__debug_baud_rate+0xd9f>
  106e12:	72 79                	jb     106e8d <__debug_baud_rate+0xdb9>
  106e14:	00 46 65             	add    %al,0x65(%esi)
  106e17:	62 72 75             	bound  %esi,0x75(%edx)
  106e1a:	61                   	popa   
  106e1b:	72 79                	jb     106e96 <__debug_baud_rate+0xdc2>
  106e1d:	00 4d 61             	add    %cl,0x61(%ebp)
  106e20:	72 63                	jb     106e85 <__debug_baud_rate+0xdb1>
  106e22:	68 00 41 70 72       	push   $0x72704100
  106e27:	69 6c 00 4d 61 79 00 	imul   $0x4a007961,0x4d(%eax,%eax,1),%ebp
  106e2e:	4a 
  106e2f:	75 6e                	jne    106e9f <__debug_baud_rate+0xdcb>
  106e31:	65 00 4a 75          	add    %cl,%gs:0x75(%edx)
  106e35:	6c                   	insb   (%dx),%es:(%edi)
  106e36:	79 00                	jns    106e38 <__debug_baud_rate+0xd64>
  106e38:	41                   	inc    %ecx
  106e39:	75 67                	jne    106ea2 <__debug_baud_rate+0xdce>
  106e3b:	75 73                	jne    106eb0 <__debug_baud_rate+0xddc>
  106e3d:	74 00                	je     106e3f <__debug_baud_rate+0xd6b>
  106e3f:	53                   	push   %ebx
  106e40:	65 70 74             	gs jo  106eb7 <__debug_baud_rate+0xde3>
  106e43:	65 6d                	gs insl (%dx),%es:(%edi)
  106e45:	62 65 72             	bound  %esp,0x72(%ebp)
  106e48:	00 4f 63             	add    %cl,0x63(%edi)
  106e4b:	74 6f                	je     106ebc <__debug_baud_rate+0xde8>
  106e4d:	62 65 72             	bound  %esp,0x72(%ebp)
  106e50:	00 4e 6f             	add    %cl,0x6f(%esi)
  106e53:	76 65                	jbe    106eba <__debug_baud_rate+0xde6>
  106e55:	6d                   	insl   (%dx),%es:(%edi)
  106e56:	62 65 72             	bound  %esp,0x72(%ebp)
  106e59:	00 44 65 63          	add    %al,0x63(%ebp,%eiz,2)
  106e5d:	65 6d                	gs insl (%dx),%es:(%edi)
  106e5f:	62 65 72             	bound  %esp,0x72(%ebp)
  106e62:	00 4a 61             	add    %cl,0x61(%edx)
  106e65:	6e                   	outsb  %ds:(%esi),(%dx)
  106e66:	00 46 65             	add    %al,0x65(%esi)
  106e69:	62 00                	bound  %eax,(%eax)
  106e6b:	4d                   	dec    %ebp
  106e6c:	61                   	popa   
  106e6d:	72 00                	jb     106e6f <__debug_baud_rate+0xd9b>
  106e6f:	41                   	inc    %ecx
  106e70:	70 72                	jo     106ee4 <__debug_baud_rate+0xe10>
  106e72:	00 4a 75             	add    %cl,0x75(%edx)
  106e75:	6e                   	outsb  %ds:(%esi),(%dx)
  106e76:	00 4a 75             	add    %cl,0x75(%edx)
  106e79:	6c                   	insb   (%dx),%es:(%edi)
  106e7a:	00 41 75             	add    %al,0x75(%ecx)
  106e7d:	67 00 53 65          	add    %dl,0x65(%bp,%di)
  106e81:	70 00                	jo     106e83 <__debug_baud_rate+0xdaf>
  106e83:	4f                   	dec    %edi
  106e84:	63 74 00 4e          	arpl   %si,0x4e(%eax,%eax,1)
  106e88:	6f                   	outsl  %ds:(%esi),(%dx)
  106e89:	76 00                	jbe    106e8b <__debug_baud_rate+0xdb7>
  106e8b:	44                   	inc    %esp
  106e8c:	65 63 00             	arpl   %ax,%gs:(%eax)
  106e8f:	5b                   	pop    %ebx
  106e90:	74 6d                	je     106eff <__debug_baud_rate+0xe2b>
  106e92:	20 69 73             	and    %ch,0x73(%ecx)
  106e95:	20 6e 75             	and    %ch,0x75(%esi)
  106e98:	6c                   	insb   (%dx),%es:(%edi)
  106e99:	6c                   	insb   (%dx),%es:(%edi)
  106e9a:	5d                   	pop    %ebp
  106e9b:	00 25 73 00 00 25    	add    %ah,0x25000073
  106ea1:	73 20                	jae    106ec3 <__debug_baud_rate+0xdef>
  106ea3:	25 73 20 25 30       	and    $0x30252073,%eax
  106ea8:	32 64 20 25          	xor    0x25(%eax,%eiz,1),%ah
  106eac:	30 32                	xor    %dh,(%edx)
  106eae:	64 3a 25 30 32 64 3a 	cmp    %fs:0x3a643230,%ah
  106eb5:	25 30 32 64 20       	and    $0x20643230,%eax
  106eba:	25 30 34 64 00       	and    $0x643430,%eax
  106ebf:	25 30 32 64 00       	and    $0x643230,%eax
  106ec4:	25 30 32 64 2f       	and    $0x2f643230,%eax
  106ec9:	25 30 32 64 2f       	and    $0x2f643230,%eax
  106ece:	25 30 32 64 00       	and    $0x643230,%eax
  106ed3:	25 32 64 00 25       	and    $0x25006432,%eax
  106ed8:	30 34 64             	xor    %dh,(%esp,%eiz,2)
  106edb:	2d 25 30 32 64       	sub    $0x64323025,%eax
  106ee0:	2d 25 30 32 64       	sub    $0x64323025,%eax
  106ee5:	00 25 30 33 64 00    	add    %ah,0x643330
  106eeb:	0a 00                	or     (%eax),%al
  106eed:	41                   	inc    %ecx
  106eee:	4d                   	dec    %ebp
  106eef:	00 50 4d             	add    %dl,0x4d(%eax)
  106ef2:	00 61 6d             	add    %ah,0x6d(%ecx)
  106ef5:	00 70 6d             	add    %dh,0x6d(%eax)
  106ef8:	00 25 30 32 64 3a    	add    %ah,0x3a643230
  106efe:	25 30 32 64 3a       	and    $0x3a643230,%eax
  106f03:	25 30 32 64 20       	and    $0x20643230,%eax
  106f08:	25 73 00 25 30       	and    $0x30250073,%eax
  106f0d:	32 64 3a 25          	xor    0x25(%edx,%edi,1),%ah
  106f11:	30 32                	xor    %dh,(%edx)
  106f13:	64 00 25 6c 64 00 09 	add    %ah,%fs:0x900646c
  106f1a:	00 25 30 32 64 3a    	add    %ah,0x3a643230
  106f20:	25 30 32 64 3a       	and    $0x3a643230,%eax
  106f25:	25 30 32 64 00       	and    $0x643230,%eax
  106f2a:	25 64 00 25 30       	and    $0x30250064,%eax
  106f2f:	34 64                	xor    $0x64,%al
  106f31:	00 25 63 25 30 32    	add    %ah,0x32302563
  106f37:	64 25 30 32 64 00    	fs and $0x643230,%eax
  106f3d:	25 63 00 3c 25       	and    $0x253c0063,%eax
  106f42:	63 20                	arpl   %sp,(%eax)
  106f44:	75 6e                	jne    106fb4 <__debug_baud_rate+0xee0>
  106f46:	73 75                	jae    106fbd <__debug_baud_rate+0xee9>
  106f48:	70 70                	jo     106fba <__debug_baud_rate+0xee6>
  106f4a:	6f                   	outsl  %ds:(%esi),(%dx)
  106f4b:	72 74                	jb     106fc1 <__debug_baud_rate+0xeed>
  106f4d:	65 64 3e 00 00       	gs fs add %al,%ds:(%eax)
  106f52:	00 00                	add    %al,(%eax)
  106f54:	e4 54                	in     $0x54,%al
  106f56:	10 00                	adc    %al,(%eax)
  106f58:	1f                   	pop    %ds
  106f59:	55                   	push   %ebp
  106f5a:	10 00                	adc    %al,(%eax)
  106f5c:	1f                   	pop    %ds
  106f5d:	55                   	push   %ebp
  106f5e:	10 00                	adc    %al,(%eax)
  106f60:	1f                   	pop    %ds
  106f61:	55                   	push   %ebp
  106f62:	10 00                	adc    %al,(%eax)
  106f64:	1f                   	pop    %ds
  106f65:	55                   	push   %ebp
  106f66:	10 00                	adc    %al,(%eax)
  106f68:	1f                   	pop    %ds
  106f69:	55                   	push   %ebp
  106f6a:	10 00                	adc    %al,(%eax)
  106f6c:	1f                   	pop    %ds
  106f6d:	55                   	push   %ebp
  106f6e:	10 00                	adc    %al,(%eax)
  106f70:	1f                   	pop    %ds
  106f71:	55                   	push   %ebp
  106f72:	10 00                	adc    %al,(%eax)
  106f74:	1f                   	pop    %ds
  106f75:	55                   	push   %ebp
  106f76:	10 00                	adc    %al,(%eax)
  106f78:	1f                   	pop    %ds
  106f79:	55                   	push   %ebp
  106f7a:	10 00                	adc    %al,(%eax)
  106f7c:	1f                   	pop    %ds
  106f7d:	55                   	push   %ebp
  106f7e:	10 00                	adc    %al,(%eax)
  106f80:	1f                   	pop    %ds
  106f81:	55                   	push   %ebp
  106f82:	10 00                	adc    %al,(%eax)
  106f84:	1f                   	pop    %ds
  106f85:	55                   	push   %ebp
  106f86:	10 00                	adc    %al,(%eax)
  106f88:	1f                   	pop    %ds
  106f89:	55                   	push   %ebp
  106f8a:	10 00                	adc    %al,(%eax)
  106f8c:	1f                   	pop    %ds
  106f8d:	55                   	push   %ebp
  106f8e:	10 00                	adc    %al,(%eax)
  106f90:	1f                   	pop    %ds
  106f91:	55                   	push   %ebp
  106f92:	10 00                	adc    %al,(%eax)
  106f94:	1f                   	pop    %ds
  106f95:	55                   	push   %ebp
  106f96:	10 00                	adc    %al,(%eax)
  106f98:	1f                   	pop    %ds
  106f99:	55                   	push   %ebp
  106f9a:	10 00                	adc    %al,(%eax)
  106f9c:	1f                   	pop    %ds
  106f9d:	55                   	push   %ebp
  106f9e:	10 00                	adc    %al,(%eax)
  106fa0:	1f                   	pop    %ds
  106fa1:	55                   	push   %ebp
  106fa2:	10 00                	adc    %al,(%eax)
  106fa4:	1f                   	pop    %ds
  106fa5:	55                   	push   %ebp
  106fa6:	10 00                	adc    %al,(%eax)
  106fa8:	1f                   	pop    %ds
  106fa9:	55                   	push   %ebp
  106faa:	10 00                	adc    %al,(%eax)
  106fac:	1f                   	pop    %ds
  106fad:	55                   	push   %ebp
  106fae:	10 00                	adc    %al,(%eax)
  106fb0:	1f                   	pop    %ds
  106fb1:	55                   	push   %ebp
  106fb2:	10 00                	adc    %al,(%eax)
  106fb4:	1f                   	pop    %ds
  106fb5:	55                   	push   %ebp
  106fb6:	10 00                	adc    %al,(%eax)
  106fb8:	1f                   	pop    %ds
  106fb9:	55                   	push   %ebp
  106fba:	10 00                	adc    %al,(%eax)
  106fbc:	1f                   	pop    %ds
  106fbd:	55                   	push   %ebp
  106fbe:	10 00                	adc    %al,(%eax)
  106fc0:	1f                   	pop    %ds
  106fc1:	55                   	push   %ebp
  106fc2:	10 00                	adc    %al,(%eax)
  106fc4:	9f                   	lahf   
  106fc5:	4d                   	dec    %ebp
  106fc6:	10 00                	adc    %al,(%eax)
  106fc8:	f1                   	int1   
  106fc9:	4d                   	dec    %ebp
  106fca:	10 00                	adc    %al,(%eax)
  106fcc:	80 4e 10 00          	orb    $0x0,0x10(%esi)
  106fd0:	df 4e 10             	fisttps 0x10(%esi)
  106fd3:	00 1f                	add    %bl,(%edi)
  106fd5:	55                   	push   %ebp
  106fd6:	10 00                	adc    %al,(%eax)
  106fd8:	53                   	push   %ebx
  106fd9:	4f                   	dec    %edi
  106fda:	10 00                	adc    %al,(%eax)
  106fdc:	fe                   	(bad)  
  106fdd:	54                   	push   %esp
  106fde:	10 00                	adc    %al,(%eax)
  106fe0:	8f                   	(bad)  
  106fe1:	4f                   	dec    %edi
  106fe2:	10 00                	adc    %al,(%eax)
  106fe4:	b1 4f                	mov    $0x4f,%cl
  106fe6:	10 00                	adc    %al,(%eax)
  106fe8:	1f                   	pop    %ds
  106fe9:	55                   	push   %ebp
  106fea:	10 00                	adc    %al,(%eax)
  106fec:	1f                   	pop    %ds
  106fed:	55                   	push   %ebp
  106fee:	10 00                	adc    %al,(%eax)
  106ff0:	1f                   	pop    %ds
  106ff1:	55                   	push   %ebp
  106ff2:	10 00                	adc    %al,(%eax)
  106ff4:	e2 50                	loop   107046 <__debug_baud_rate+0xf72>
  106ff6:	10 00                	adc    %al,(%eax)
  106ff8:	1f                   	pop    %ds
  106ff9:	55                   	push   %ebp
  106ffa:	10 00                	adc    %al,(%eax)
  106ffc:	1f                   	pop    %ds
  106ffd:	55                   	push   %ebp
  106ffe:	10 00                	adc    %al,(%eax)
  107000:	55                   	push   %ebp
  107001:	51                   	push   %ecx
  107002:	10 00                	adc    %al,(%eax)
  107004:	1f                   	pop    %ds
  107005:	55                   	push   %ebp
  107006:	10 00                	adc    %al,(%eax)
  107008:	14 52                	adc    $0x52,%al
  10700a:	10 00                	adc    %al,(%eax)
  10700c:	6a 52                	push   $0x52
  10700e:	10 00                	adc    %al,(%eax)
  107010:	a9 52 10 00 fe       	test   $0xfe001052,%eax
  107015:	54                   	push   %esp
  107016:	10 00                	adc    %al,(%eax)
  107018:	fe                   	(bad)  
  107019:	54                   	push   %esp
  10701a:	10 00                	adc    %al,(%eax)
  10701c:	fe                   	(bad)  
  10701d:	54                   	push   %esp
  10701e:	10 00                	adc    %al,(%eax)
  107020:	82 53 10 00          	adcb   $0x0,0x10(%ebx)
  107024:	f2 53                	repnz push %ebx
  107026:	10 00                	adc    %al,(%eax)
  107028:	c7                   	(bad)  
  107029:	54                   	push   %esp
  10702a:	10 00                	adc    %al,(%eax)
  10702c:	1f                   	pop    %ds
  10702d:	55                   	push   %ebp
  10702e:	10 00                	adc    %al,(%eax)
  107030:	1f                   	pop    %ds
  107031:	55                   	push   %ebp
  107032:	10 00                	adc    %al,(%eax)
  107034:	1f                   	pop    %ds
  107035:	55                   	push   %ebp
  107036:	10 00                	adc    %al,(%eax)
  107038:	1f                   	pop    %ds
  107039:	55                   	push   %ebp
  10703a:	10 00                	adc    %al,(%eax)
  10703c:	1f                   	pop    %ds
  10703d:	55                   	push   %ebp
  10703e:	10 00                	adc    %al,(%eax)
  107040:	1f                   	pop    %ds
  107041:	55                   	push   %ebp
  107042:	10 00                	adc    %al,(%eax)
  107044:	76 4d                	jbe    107093 <__debug_baud_rate+0xfbf>
  107046:	10 00                	adc    %al,(%eax)
  107048:	c8 4d 10 00          	enter  $0x104d,$0x0
  10704c:	1a 4e 10             	sbb    0x10(%esi),%cl
  10704f:	00 bd 4e 10 00 31    	add    %bh,0x3100104e(%ebp)
  107055:	4f                   	dec    %edi
  107056:	10 00                	adc    %al,(%eax)
  107058:	1f                   	pop    %ds
  107059:	55                   	push   %ebp
  10705a:	10 00                	adc    %al,(%eax)
  10705c:	fe                   	(bad)  
  10705d:	54                   	push   %esp
  10705e:	10 00                	adc    %al,(%eax)
  107060:	c8 4d 10 00          	enter  $0x104d,$0x0
  107064:	1f                   	pop    %ds
  107065:	55                   	push   %ebp
  107066:	10 00                	adc    %al,(%eax)
  107068:	15 50 10 00 37       	adc    $0x37001050,%eax
  10706d:	50                   	push   %eax
  10706e:	10 00                	adc    %al,(%eax)
  107070:	59                   	pop    %ecx
  107071:	50                   	push   %eax
  107072:	10 00                	adc    %al,(%eax)
  107074:	bd 50 10 00 04       	mov    $0x4001050,%ebp
  107079:	51                   	push   %ecx
  10707a:	10 00                	adc    %al,(%eax)
  10707c:	1f                   	pop    %ds
  10707d:	55                   	push   %ebp
  10707e:	10 00                	adc    %al,(%eax)
  107080:	22 51 10             	and    0x10(%ecx),%dl
  107083:	00 1f                	add    %bl,(%edi)
  107085:	55                   	push   %ebp
  107086:	10 00                	adc    %al,(%eax)
  107088:	88 51 10             	mov    %dl,0x10(%ecx)
  10708b:	00 40 52             	add    %al,0x52(%eax)
  10708e:	10 00                	adc    %al,(%eax)
  107090:	8b 52 10             	mov    0x10(%edx),%edx
  107093:	00 db                	add    %bl,%bl
  107095:	52                   	push   %edx
  107096:	10 00                	adc    %al,(%eax)
  107098:	1f                   	pop    %ds
  107099:	55                   	push   %ebp
  10709a:	10 00                	adc    %al,(%eax)
  10709c:	0e                   	push   %cs
  10709d:	53                   	push   %ebx
  10709e:	10 00                	adc    %al,(%eax)
  1070a0:	30 53 10             	xor    %dl,0x10(%ebx)
  1070a3:	00 b4 53 10 00 19 54 	add    %dh,0x54190010(%ebx,%edx,2)
  1070aa:	10 00                	adc    %al,(%eax)
  1070ac:	25 61 20 25 62       	and    $0x62252061,%eax
  1070b1:	20 25 64 20 25 54    	and    %ah,0x54252064
  1070b7:	20                   	.byte 0x20
  1070b8:	25                   	.byte 0x25
  1070b9:	59                   	pop    %ecx
	...

Disassembly of section .eh_frame:

001070bc <.eh_frame>:
  1070bc:	14 00                	adc    $0x0,%al
  1070be:	00 00                	add    %al,(%eax)
  1070c0:	00 00                	add    %al,(%eax)
  1070c2:	00 00                	add    %al,(%eax)
  1070c4:	01 7a 52             	add    %edi,0x52(%edx)
  1070c7:	00 01                	add    %al,(%ecx)
  1070c9:	7c 08                	jl     1070d3 <__rodata_end+0x18>
  1070cb:	01 1b                	add    %ebx,(%ebx)
  1070cd:	0c 04                	or     $0x4,%al
  1070cf:	04 88                	add    $0x88,%al
  1070d1:	01 00                	add    %eax,(%eax)
  1070d3:	00 48 00             	add    %cl,0x0(%eax)
  1070d6:	00 00                	add    %al,(%eax)
  1070d8:	1c 00                	sbb    $0x0,%al
  1070da:	00 00                	add    %al,(%eax)
  1070dc:	34 e5                	xor    $0xe5,%al
  1070de:	ff                   	(bad)  
  1070df:	ff 1a                	lcall  *(%edx)
  1070e1:	01 00                	add    %eax,(%eax)
  1070e3:	00 00                	add    %al,(%eax)
  1070e5:	41                   	inc    %ecx
  1070e6:	0e                   	push   %cs
  1070e7:	08 85 02 42 0d 05    	or     %al,0x50d4202(%ebp)
  1070ed:	46                   	inc    %esi
  1070ee:	87 03                	xchg   %eax,(%ebx)
  1070f0:	86 04 83             	xchg   %al,(%ebx,%eax,4)
  1070f3:	05 65 0a c3 41       	add    $0x41c30a65,%eax
  1070f8:	c6 41 c7 41          	movb   $0x41,-0x39(%ecx)
  1070fc:	c5 0c 04             	lds    (%esp,%eax,1),%ecx
  1070ff:	04 47                	add    $0x47,%al
  107101:	0b 4e 0a             	or     0xa(%esi),%ecx
  107104:	c3                   	ret    
  107105:	41                   	inc    %ecx
  107106:	c6 41 c7 41          	movb   $0x41,-0x39(%ecx)
  10710a:	c5 0c 04             	lds    (%esp,%eax,1),%ecx
  10710d:	04 47                	add    $0x47,%al
  10710f:	0b 02                	or     (%edx),%eax
  107111:	46                   	inc    %esi
  107112:	0a c3                	or     %bl,%al
  107114:	41                   	inc    %ecx
  107115:	c6 41 c7 41          	movb   $0x41,-0x39(%ecx)
  107119:	c5 0c 04             	lds    (%esp,%eax,1),%ecx
  10711c:	04 47                	add    $0x47,%al
  10711e:	0b 00                	or     (%eax),%eax
  107120:	58                   	pop    %eax
  107121:	00 00                	add    %al,(%eax)
  107123:	00 68 00             	add    %ch,0x0(%eax)
  107126:	00 00                	add    %al,(%eax)
  107128:	08 e6                	or     %ah,%dh
  10712a:	ff                   	(bad)  
  10712b:	ff                   	(bad)  
  10712c:	3e 01 00             	add    %eax,%ds:(%eax)
  10712f:	00 00                	add    %al,(%eax)
  107131:	41                   	inc    %ecx
  107132:	0e                   	push   %cs
  107133:	08 85 02 42 0d 05    	or     %al,0x50d4202(%ebp)
  107139:	46                   	inc    %esi
  10713a:	87 03                	xchg   %eax,(%ebx)
  10713c:	86 04 83             	xchg   %al,(%ebx,%eax,4)
  10713f:	05 62 0a c3 41       	add    $0x41c30a62,%eax
  107144:	c6 41 c7 41          	movb   $0x41,-0x39(%ecx)
  107148:	c5 0c 04             	lds    (%esp,%eax,1),%ecx
  10714b:	04 42                	add    $0x42,%al
  10714d:	0b 4d 0a             	or     0xa(%ebp),%ecx
  107150:	c3                   	ret    
  107151:	41                   	inc    %ecx
  107152:	c6 41 c7 41          	movb   $0x41,-0x39(%ecx)
  107156:	c5 0c 04             	lds    (%esp,%eax,1),%ecx
  107159:	04 48                	add    $0x48,%al
  10715b:	0b 62 0a             	or     0xa(%edx),%esp
  10715e:	c3                   	ret    
  10715f:	41                   	inc    %ecx
  107160:	c6 41 c7 41          	movb   $0x41,-0x39(%ecx)
  107164:	c5 0c 04             	lds    (%esp,%eax,1),%ecx
  107167:	04 43                	add    $0x43,%al
  107169:	0b 02                	or     (%edx),%eax
  10716b:	b5 0a                	mov    $0xa,%ch
  10716d:	c3                   	ret    
  10716e:	41                   	inc    %ecx
  10716f:	c6 41 c7 41          	movb   $0x41,-0x39(%ecx)
  107173:	c5 0c 04             	lds    (%esp,%eax,1),%ecx
  107176:	04 48                	add    $0x48,%al
  107178:	0b 00                	or     (%eax),%eax
	...

Disassembly of section .data:

00108000 <__kernel_version_format>:
  108000:	00 60 10             	add    %ah,0x10(%eax)
	...

00108004 <__kernel_build_date>:
  108004:	0f 60 10             	punpcklbw (%eax),%mm2
	...

00108008 <__kernel_build_time>:
  108008:	1b 60 10             	sbb    0x10(%eax),%esp
	...

0010800c <__kernel_version_codename>:
  10800c:	30 60 10             	xor    %ah,0x10(%eax)
	...

00108010 <__kernel_ascii_art_formatted>:
  108010:	38 60 10             	cmp    %ah,0x10(%eax)
	...

00108014 <__kernel_build_configuration>:
  108014:	d8 60 10             	fsubs  0x10(%eax)
	...

00108018 <__kernel_architecture>:
  108018:	de 60 10             	fisubs 0x10(%eax)
	...

0010801c <__kernel_compiler>:
  10801c:	e3 60                	jecxz  10807e <weekdays_short+0x2>
  10801e:	10 00                	adc    %al,(%eax)

00108020 <__kernel_stop_codes>:
  108020:	04 00                	add    $0x0,%al
	...

00108024 <kernel_bugcode_strings>:
  108024:	2c 61                	sub    $0x61,%al
  108026:	10 00                	adc    %al,(%eax)
  108028:	3e 61                	ds popa 
  10802a:	10 00                	adc    %al,(%eax)
  10802c:	56                   	push   %esi
  10802d:	61                   	popa   
  10802e:	10 00                	adc    %al,(%eax)
  108030:	70 61                	jo     108093 <weekdays_short+0x17>
  108032:	10 00                	adc    %al,(%eax)

00108034 <kernel_panic_messages>:
  108034:	80 61 10 00          	andb   $0x0,0x10(%ecx)
  108038:	ac                   	lods   %ds:(%esi),%al
  108039:	61                   	popa   
  10803a:	10 00                	adc    %al,(%eax)
  10803c:	f4                   	hlt    
  10803d:	61                   	popa   
  10803e:	10 00                	adc    %al,(%eax)
  108040:	64 62 10             	bound  %edx,%fs:(%eax)
	...

00108044 <highest_kernel_address>:
  108044:	e6 de                	out    %al,$0xde
  108046:	10 00                	adc    %al,(%eax)

00108048 <serial_currentPort>:
  108048:	f8                   	clc    
  108049:	03         	add    0x25(%eax),%eax

0010804a <serial_currentBaud>:
  10804a:	80 25 00 00 00 00 00 	andb   $0x0,0x0
	...

00108060 <weekdays>:
  108060:	b8 6d 10 00 bf       	mov    $0xbf00106d,%eax
  108065:	6d                   	insl   (%dx),%es:(%edi)
  108066:	10 00                	adc    %al,(%eax)
  108068:	c6                   	(bad)  
  108069:	6d                   	insl   (%dx),%es:(%edi)
  10806a:	10 00                	adc    %al,(%eax)
  10806c:	ce                   	into   
  10806d:	6d                   	insl   (%dx),%es:(%edi)
  10806e:	10 00                	adc    %al,(%eax)
  108070:	d8 6d 10             	fsubrs 0x10(%ebp)
  108073:	00 e1                	add    %ah,%cl
  108075:	6d                   	insl   (%dx),%es:(%edi)
  108076:	10 00                	adc    %al,(%eax)
  108078:	e8 6d 10 00        	call   f11090ea <MULTIBOOT2_MAGIC+0x8be4014>

0010807c <weekdays_short>:
  10807c:	f1                   	int1   
  10807d:	6d                   	insl   (%dx),%es:(%edi)
  10807e:	10 00                	adc    %al,(%eax)
  108080:	f5                   	cmc    
  108081:	6d                   	insl   (%dx),%es:(%edi)
  108082:	10 00                	adc    %al,(%eax)
  108084:	f9                   	stc    
  108085:	6d                   	insl   (%dx),%es:(%edi)
  108086:	10 00                	adc    %al,(%eax)
  108088:	fd                   	std    
  108089:	6d                   	insl   (%dx),%es:(%edi)
  10808a:	10 00                	adc    %al,(%eax)
  10808c:	01 6e 10             	add    %ebp,0x10(%esi)
  10808f:	00 05 6e 10 00 09    	add    %al,0x900106e
  108095:	6e                   	outsb  %ds:(%esi),(%dx)
  108096:	10 00                	adc    %al,(%eax)
	...

001080a0 <months>:
  1080a0:	0d 6e 10 00 15       	or     $0x1500106e,%eax
  1080a5:	6e                   	outsb  %ds:(%esi),(%dx)
  1080a6:	10 00                	adc    %al,(%eax)
  1080a8:	1e                   	push   %ds
  1080a9:	6e                   	outsb  %ds:(%esi),(%dx)
  1080aa:	10 00                	adc    %al,(%eax)
  1080ac:	24 6e                	and    $0x6e,%al
  1080ae:	10 00                	adc    %al,(%eax)
  1080b0:	2a 6e 10             	sub    0x10(%esi),%ch
  1080b3:	00 2e                	add    %ch,(%esi)
  1080b5:	6e                   	outsb  %ds:(%esi),(%dx)
  1080b6:	10 00                	adc    %al,(%eax)
  1080b8:	33 6e 10             	xor    0x10(%esi),%ebp
  1080bb:	00 38                	add    %bh,(%eax)
  1080bd:	6e                   	outsb  %ds:(%esi),(%dx)
  1080be:	10 00                	adc    %al,(%eax)
  1080c0:	3f                   	aas    
  1080c1:	6e                   	outsb  %ds:(%esi),(%dx)
  1080c2:	10 00                	adc    %al,(%eax)
  1080c4:	49                   	dec    %ecx
  1080c5:	6e                   	outsb  %ds:(%esi),(%dx)
  1080c6:	10 00                	adc    %al,(%eax)
  1080c8:	51                   	push   %ecx
  1080c9:	6e                   	outsb  %ds:(%esi),(%dx)
  1080ca:	10 00                	adc    %al,(%eax)
  1080cc:	5a                   	pop    %edx
  1080cd:	6e                   	outsb  %ds:(%esi),(%dx)
  1080ce:	10 00                	adc    %al,(%eax)
	...

001080e0 <months_short>:
  1080e0:	63 6e 10             	arpl   %bp,0x10(%esi)
  1080e3:	00 67 6e             	add    %ah,0x6e(%edi)
  1080e6:	10 00                	adc    %al,(%eax)
  1080e8:	6b 6e 10 00          	imul   $0x0,0x10(%esi),%ebp
  1080ec:	6f                   	outsl  %ds:(%esi),(%dx)
  1080ed:	6e                   	outsb  %ds:(%esi),(%dx)
  1080ee:	10 00                	adc    %al,(%eax)
  1080f0:	2a 6e 10             	sub    0x10(%esi),%ch
  1080f3:	00 73 6e             	add    %dh,0x6e(%ebx)
  1080f6:	10 00                	adc    %al,(%eax)
  1080f8:	77 6e                	ja     108168 <__data_end+0x58>
  1080fa:	10 00                	adc    %al,(%eax)
  1080fc:	7b 6e                	jnp    10816c <__data_end+0x5c>
  1080fe:	10 00                	adc    %al,(%eax)
  108100:	7f 6e                	jg     108170 <__data_end+0x60>
  108102:	10 00                	adc    %al,(%eax)
  108104:	83 6e 10 00          	subl   $0x0,0x10(%esi)
  108108:	87 6e 10             	xchg   %ebp,0x10(%esi)
  10810b:	00                   	.byte 0x0
  10810c:	8b 6e 10             	mov    0x10(%esi),%ebp
	...

Disassembly of section .bss:

00109000 <clock_device>:
	...

00109018 <tick_count>:
	...

00109020 <is_ready>:
	...

00109040 <clock_callback_table>:
	...

00109240 <generic_serial_write_character>:
  109240:	00 00                	add    %al,(%eax)
	...

00109244 <debug_putchar_method>:
  109244:	00 00                	add    %al,(%eax)
	...

00109248 <frames>:
  109248:	00 00                	add    %al,(%eax)
	...

0010924c <nframes>:
  10924c:	00 00                	add    %al,(%eax)
	...

00109250 <pmm_memorySize>:
  109250:	00 00                	add    %al,(%eax)
	...

00109254 <pmm_usedBlocks>:
  109254:	00 00                	add    %al,(%eax)
	...

00109258 <pmm_maxBlocks>:
	...

00109260 <hal_idt_table>:
	...

00109a60 <hal_handler_table>:
	...

00109e5c <mem_currentDirectory>:
  109e5c:	00 00                	add    %al,(%eax)
	...

00109e60 <mem_kernelDirectory>:
  109e60:	00 00                	add    %al,(%eax)
	...

00109e64 <mem_kernelHeap>:
  109e64:	00 00                	add    %al,(%eax)
	...

00109e68 <boottime>:
	...

00109e70 <tsc_baseline>:
	...

00109e78 <tsc_mhz>:
	...

00109e80 <pit_ticks>:
	...

00109e90 <__stack_bottom>:
	...

0010de90 <__stack_top>:
	...

0010dea0 <_timevalue>:
	...

0010decc <output>:
	...

Disassembly of section .comment:

00000000 <.comment>:
   0:	47                   	inc    %edi
   1:	43                   	inc    %ebx
   2:	43                   	inc    %ebx
   3:	3a 20                	cmp    (%eax),%ah
   5:	28 47 4e             	sub    %al,0x4e(%edi)
   8:	55                   	push   %ebp
   9:	29 20                	sub    %esp,(%eax)
   b:	31 34 2e             	xor    %esi,(%esi,%ebp,1)
   e:	31 2e                	xor    %ebp,(%esi)
  10:	30 00                	xor    %al,(%eax)
