
build-output/sysroot/boot/hexahedron-kernel.elf:     file format elf32-i386


Disassembly of section .text:

00100000 <__kernel_start>:
  100000:	02 b0 ad 1b 07 00    	add    0x71bad(%eax),%dh
  100006:	00 00                	add    %al,(%eax)
  100008:	f7 4f 52 e4 00 00 10 	testl  $0x100000e4,0x52(%edi)
  10000f:	00 00                	add    %al,(%eax)
  100011:	00 10                	add    %dl,(%eax)
  100013:	00 00                	add    %al,(%eax)
  100015:	b0 10                	mov    $0x10,%al
  100017:	00 a6 ff 10 00 96    	add    %ah,-0x69ffef01(%esi)
  10001d:	4e                   	dec    %esi
  10001e:	10 00                	adc    %al,(%eax)
  100020:	00 00                	add    %al,(%eax)
  100022:	00 00                	add    %al,(%eax)
  100024:	00 04 00             	add    %al,(%eax,%eax,1)
  100027:	00 00                	add    %al,(%eax)
  100029:	03 00                	add    (%eax),%eax
  10002b:	00 20                	add    %ah,(%eax)
  10002d:	00 00                	add    %al,(%eax)
	...

00100030 <multiboot2_header_start>:
  100030:	d6                   	(bad)  
  100031:	50                   	push   %eax
  100032:	52                   	push   %edx
  100033:	e8 00 00 00 00       	call   100038 <multiboot2_header_start+0x8>
  100038:	80 00 00             	addb   $0x0,(%eax)
  10003b:	00 aa ae ad 17     	add    %ch,0x217adae(%edx)

00100040 <multiboot2_address_tag>:
  100040:	02 00                	add    (%eax),%al
  100042:	00 00                	add    %al,(%eax)
  100044:	18 00                	sbb    %al,(%eax)
  100046:	00 00                	add    %al,(%eax)
  100048:	30 00                	xor    %al,(%eax)
  10004a:	10 00                	adc    %al,(%eax)
  10004c:	00 00                	add    %al,(%eax)
  10004e:	10 00                	adc    %al,(%eax)
  100050:	00 b0 10 00 a6 ff    	add    %dh,-0x59fff0(%eax)
  100056:	10 00                	adc    %al,(%eax)

00100058 <multiboot2_entry_tag>:
  100058:	03 00                	add    (%eax),%eax
  10005a:	00 00                	add    %al,(%eax)
  10005c:	0c 00                	or     $0x0,%al
  10005e:	00 00                	add    %al,(%eax)
  100060:	96                   	xchg   %eax,%esi
  100061:	4e                   	dec    %esi
  100062:	10 00                	adc    %al,(%eax)
  100064:	00 00                	add    %al,(%eax)
	...

00100068 <multiboot2_fb_tag>:
  100068:	05 00 00 00 14       	add    $0x14000000,%eax
  10006d:	00 00                	add    %al,(%eax)
  10006f:	00 00                	add    %al,(%eax)
  100071:	04 00                	add    $0x0,%al
  100073:	00 00                	add    %al,(%eax)
  100075:	03 00                	add    (%eax),%eax
  100077:	00 20                	add    %ah,(%eax)
  100079:	00 00                	add    %al,(%eax)
  10007b:	00 00                	add    %al,(%eax)
  10007d:	00 00                	add    %al,(%eax)
	...

00100080 <multiboot2_console_flags_tag>:
  100080:	04 00                	add    $0x0,%al
  100082:	00 00                	add    %al,(%eax)
  100084:	0c 00                	or     $0x0,%al
  100086:	00 00                	add    %al,(%eax)
  100088:	02 00                	add    (%eax),%al
  10008a:	00 00                	add    %al,(%eax)
  10008c:	00 00                	add    %al,(%eax)
	...

00100090 <mulitboot2_align_mods>:
  100090:	06                   	push   %es
  100091:	00 00                	add    %al,(%eax)
  100093:	00 08                	add    %cl,(%eax)
  100095:	00 00                	add    %al,(%eax)
	...

00100098 <mulitboot_relocatable_tag>:
  100098:	0a 00                	or     (%eax),%al
  10009a:	00 00                	add    %al,(%eax)
  10009c:	18 00                	sbb    %al,(%eax)
  10009e:	00 00                	add    %al,(%eax)
  1000a0:	00 00                	add    %al,(%eax)
  1000a2:	10 00                	adc    %al,(%eax)
  1000a4:	00 00                	add    %al,(%eax)
  1000a6:	20 00                	and    %al,(%eax)
  1000a8:	00 10                	add    %dl,(%eax)
  1000aa:	00 00                	add    %al,(%eax)
  1000ac:	01 00                	add    %eax,(%eax)
	...

001000b0 <clock_update>:
  1000b0:	55                   	push   %ebp
  1000b1:	89 e5                	mov    %esp,%ebp
  1000b3:	83 ec 28             	sub    $0x28,%esp
  1000b6:	8b 45 08             	mov    0x8(%ebp),%eax
  1000b9:	89 45 e0             	mov    %eax,-0x20(%ebp)
  1000bc:	8b 45 0c             	mov    0xc(%ebp),%eax
  1000bf:	89 45 e4             	mov    %eax,-0x1c(%ebp)
  1000c2:	8b 45 e0             	mov    -0x20(%ebp),%eax
  1000c5:	8b 55 e4             	mov    -0x1c(%ebp),%edx
  1000c8:	a3 18 b0 10 00       	mov    %eax,0x10b018
  1000cd:	89 15 1c b0 10 00    	mov    %edx,0x10b01c
  1000d3:	c7 45 f4 00 00 00 00 	movl   $0x0,-0xc(%ebp)
  1000da:	eb 30                	jmp    10010c <clock_update+0x5c>
  1000dc:	8b 45 f4             	mov    -0xc(%ebp),%eax
  1000df:	8b 04 85 40 b0 10 00 	mov    0x10b040(,%eax,4),%eax
  1000e6:	85 c0                	test   %eax,%eax
  1000e8:	74 1e                	je     100108 <clock_update+0x58>
  1000ea:	8b 45 f4             	mov    -0xc(%ebp),%eax
  1000ed:	8b 04 85 40 b0 10 00 	mov    0x10b040(,%eax,4),%eax
  1000f4:	89 45 f0             	mov    %eax,-0x10(%ebp)
  1000f7:	83 ec 08             	sub    $0x8,%esp
  1000fa:	ff 75 e4             	push   -0x1c(%ebp)
  1000fd:	ff 75 e0             	push   -0x20(%ebp)
  100100:	8b 45 f0             	mov    -0x10(%ebp),%eax
  100103:	ff d0                	call   *%eax
  100105:	83 c4 10             	add    $0x10,%esp
  100108:	83 45 f4 01          	addl   $0x1,-0xc(%ebp)
  10010c:	83 7d f4 7f          	cmpl   $0x7f,-0xc(%ebp)
  100110:	7e ca                	jle    1000dc <clock_update+0x2c>
  100112:	90                   	nop
  100113:	90                   	nop
  100114:	c9                   	leave  
  100115:	c3                   	ret    

00100116 <clock_gettimeofday>:
  100116:	55                   	push   %ebp
  100117:	89 e5                	mov    %esp,%ebp
  100119:	83 ec 28             	sub    $0x28,%esp
  10011c:	a1 00 b0 10 00       	mov    0x10b000,%eax
  100121:	ff d0                	call   *%eax
  100123:	89 45 f0             	mov    %eax,-0x10(%ebp)
  100126:	89 55 f4             	mov    %edx,-0xc(%ebp)
  100129:	a1 08 b0 10 00       	mov    0x10b008,%eax
  10012e:	8d 55 e0             	lea    -0x20(%ebp),%edx
  100131:	52                   	push   %edx
  100132:	8d 55 e8             	lea    -0x18(%ebp),%edx
  100135:	52                   	push   %edx
  100136:	ff 75 f4             	push   -0xc(%ebp)
  100139:	ff 75 f0             	push   -0x10(%ebp)
  10013c:	ff d0                	call   *%eax
  10013e:	83 c4 10             	add    $0x10,%esp
  100141:	a1 10 b0 10 00       	mov    0x10b010,%eax
  100146:	8b 15 14 b0 10 00    	mov    0x10b014,%edx
  10014c:	89 c1                	mov    %eax,%ecx
  10014e:	8b 45 e8             	mov    -0x18(%ebp),%eax
  100151:	8b 55 ec             	mov    -0x14(%ebp),%edx
  100154:	01 c8                	add    %ecx,%eax
  100156:	89 c2                	mov    %eax,%edx
  100158:	8b 45 08             	mov    0x8(%ebp),%eax
  10015b:	89 10                	mov    %edx,(%eax)
  10015d:	8b 45 e0             	mov    -0x20(%ebp),%eax
  100160:	8b 55 e4             	mov    -0x1c(%ebp),%edx
  100163:	89 c2                	mov    %eax,%edx
  100165:	8b 45 08             	mov    0x8(%ebp),%eax
  100168:	89 50 04             	mov    %edx,0x4(%eax)
  10016b:	b8 00 00 00 00       	mov    $0x0,%eax
  100170:	c9                   	leave  
  100171:	c3                   	ret    

00100172 <clock_settimeofday>:
  100172:	55                   	push   %ebp
  100173:	89 e5                	mov    %esp,%ebp
  100175:	53                   	push   %ebx
  100176:	83 ec 14             	sub    $0x14,%esp
  100179:	83 7d 08 00          	cmpl   $0x0,0x8(%ebp)
  10017d:	75 07                	jne    100186 <clock_settimeofday+0x14>
  10017f:	b8 ea ff ff ff       	mov    $0xffffffea,%eax
  100184:	eb 66                	jmp    1001ec <clock_settimeofday+0x7a>
  100186:	8b 45 08             	mov    0x8(%ebp),%eax
  100189:	8b 40 04             	mov    0x4(%eax),%eax
  10018c:	3d 40 42 0f 00       	cmp    $0xf4240,%eax
  100191:	7e 07                	jle    10019a <clock_settimeofday+0x28>
  100193:	b8 ea ff ff ff       	mov    $0xffffffea,%eax
  100198:	eb 52                	jmp    1001ec <clock_settimeofday+0x7a>
  10019a:	e8 50 6f 00 00       	call   1070ef <now>
  10019f:	89 45 f0             	mov    %eax,-0x10(%ebp)
  1001a2:	89 55 f4             	mov    %edx,-0xc(%ebp)
  1001a5:	8b 0d 10 b0 10 00    	mov    0x10b010,%ecx
  1001ab:	8b 1d 14 b0 10 00    	mov    0x10b014,%ebx
  1001b1:	8b 45 08             	mov    0x8(%ebp),%eax
  1001b4:	8b 00                	mov    (%eax),%eax
  1001b6:	99                   	cltd   
  1001b7:	2b 45 f0             	sub    -0x10(%ebp),%eax
  1001ba:	1b 55 f4             	sbb    -0xc(%ebp),%edx
  1001bd:	01 c8                	add    %ecx,%eax
  1001bf:	11 da                	adc    %ebx,%edx
  1001c1:	a3 10 b0 10 00       	mov    %eax,0x10b010
  1001c6:	89 15 14 b0 10 00    	mov    %edx,0x10b014
  1001cc:	8b 0d 0c b0 10 00    	mov    0x10b00c,%ecx
  1001d2:	a1 10 b0 10 00       	mov    0x10b010,%eax
  1001d7:	8b 15 14 b0 10 00    	mov    0x10b014,%edx
  1001dd:	83 ec 08             	sub    $0x8,%esp
  1001e0:	52                   	push   %edx
  1001e1:	50                   	push   %eax
  1001e2:	ff d1                	call   *%ecx
  1001e4:	83 c4 10             	add    $0x10,%esp
  1001e7:	b8 00 00 00 00       	mov    $0x0,%eax
  1001ec:	8b 5d fc             	mov    -0x4(%ebp),%ebx
  1001ef:	c9                   	leave  
  1001f0:	c3                   	ret    

001001f1 <clock_relative>:
  1001f1:	55                   	push   %ebp
  1001f2:	89 e5                	mov    %esp,%ebp
  1001f4:	56                   	push   %esi
  1001f5:	53                   	push   %ebx
  1001f6:	83 ec 20             	sub    $0x20,%esp
  1001f9:	a1 00 b0 10 00       	mov    0x10b000,%eax
  1001fe:	ff d0                	call   *%eax
  100200:	89 45 f0             	mov    %eax,-0x10(%ebp)
  100203:	89 55 f4             	mov    %edx,-0xc(%ebp)
  100206:	a1 08 b0 10 00       	mov    0x10b008,%eax
  10020b:	8d 55 e0             	lea    -0x20(%ebp),%edx
  10020e:	52                   	push   %edx
  10020f:	8d 55 e8             	lea    -0x18(%ebp),%edx
  100212:	52                   	push   %edx
  100213:	ff 75 f4             	push   -0xc(%ebp)
  100216:	ff 75 f0             	push   -0x10(%ebp)
  100219:	ff d0                	call   *%eax
  10021b:	83 c4 10             	add    $0x10,%esp
  10021e:	8b 4d 0c             	mov    0xc(%ebp),%ecx
  100221:	bb 00 00 00 00       	mov    $0x0,%ebx
  100226:	8b 45 e8             	mov    -0x18(%ebp),%eax
  100229:	8b 55 ec             	mov    -0x14(%ebp),%edx
  10022c:	01 c8                	add    %ecx,%eax
  10022e:	11 da                	adc    %ebx,%edx
  100230:	bb 3f 42 0f 00       	mov    $0xf423f,%ebx
  100235:	b9 00 00 00 00       	mov    $0x0,%ecx
  10023a:	39 c3                	cmp    %eax,%ebx
  10023c:	19 d1                	sbb    %edx,%ecx
  10023e:	73 65                	jae    1002a5 <clock_relative+0xb4>
  100240:	8b 45 e8             	mov    -0x18(%ebp),%eax
  100243:	8b 55 ec             	mov    -0x14(%ebp),%edx
  100246:	89 c2                	mov    %eax,%edx
  100248:	8b 45 08             	mov    0x8(%ebp),%eax
  10024b:	8d 34 02             	lea    (%edx,%eax,1),%esi
  10024e:	8b 4d 0c             	mov    0xc(%ebp),%ecx
  100251:	bb 00 00 00 00       	mov    $0x0,%ebx
  100256:	8b 45 e0             	mov    -0x20(%ebp),%eax
  100259:	8b 55 e4             	mov    -0x1c(%ebp),%edx
  10025c:	01 c8                	add    %ecx,%eax
  10025e:	11 da                	adc    %ebx,%edx
  100260:	6a 00                	push   $0x0
  100262:	68 40 42 0f 00       	push   $0xf4240
  100267:	52                   	push   %edx
  100268:	50                   	push   %eax
  100269:	e8 c2 6e 00 00       	call   107130 <__udivdi3>
  10026e:	83 c4 10             	add    $0x10,%esp
  100271:	8d 14 06             	lea    (%esi,%eax,1),%edx
  100274:	8b 45 10             	mov    0x10(%ebp),%eax
  100277:	89 10                	mov    %edx,(%eax)
  100279:	8b 4d 0c             	mov    0xc(%ebp),%ecx
  10027c:	bb 00 00 00 00       	mov    $0x0,%ebx
  100281:	8b 45 e0             	mov    -0x20(%ebp),%eax
  100284:	8b 55 e4             	mov    -0x1c(%ebp),%edx
  100287:	01 c8                	add    %ecx,%eax
  100289:	11 da                	adc    %ebx,%edx
  10028b:	6a 00                	push   $0x0
  10028d:	68 40 42 0f 00       	push   $0xf4240
  100292:	52                   	push   %edx
  100293:	50                   	push   %eax
  100294:	e8 b7 6f 00 00       	call   107250 <__umoddi3>
  100299:	83 c4 10             	add    $0x10,%esp
  10029c:	89 c2                	mov    %eax,%edx
  10029e:	8b 45 14             	mov    0x14(%ebp),%eax
  1002a1:	89 10                	mov    %edx,(%eax)
  1002a3:	eb 24                	jmp    1002c9 <clock_relative+0xd8>
  1002a5:	8b 45 e8             	mov    -0x18(%ebp),%eax
  1002a8:	8b 55 ec             	mov    -0x14(%ebp),%edx
  1002ab:	89 c2                	mov    %eax,%edx
  1002ad:	8b 45 08             	mov    0x8(%ebp),%eax
  1002b0:	01 c2                	add    %eax,%edx
  1002b2:	8b 45 10             	mov    0x10(%ebp),%eax
  1002b5:	89 10                	mov    %edx,(%eax)
  1002b7:	8b 45 e0             	mov    -0x20(%ebp),%eax
  1002ba:	8b 55 e4             	mov    -0x1c(%ebp),%edx
  1002bd:	89 c2                	mov    %eax,%edx
  1002bf:	8b 45 0c             	mov    0xc(%ebp),%eax
  1002c2:	01 c2                	add    %eax,%edx
  1002c4:	8b 45 14             	mov    0x14(%ebp),%eax
  1002c7:	89 10                	mov    %edx,(%eax)
  1002c9:	90                   	nop
  1002ca:	8d 65 f8             	lea    -0x8(%ebp),%esp
  1002cd:	5b                   	pop    %ebx
  1002ce:	5e                   	pop    %esi
  1002cf:	5d                   	pop    %ebp
  1002d0:	c3                   	ret    

001002d1 <clock_registerUpdateCallback>:
  1002d1:	55                   	push   %ebp
  1002d2:	89 e5                	mov    %esp,%ebp
  1002d4:	83 ec 10             	sub    $0x10,%esp
  1002d7:	c7 45 fc ff ff ff ff 	movl   $0xffffffff,-0x4(%ebp)
  1002de:	c7 45 f8 00 00 00 00 	movl   $0x0,-0x8(%ebp)
  1002e5:	eb 1a                	jmp    100301 <clock_registerUpdateCallback+0x30>
  1002e7:	8b 45 f8             	mov    -0x8(%ebp),%eax
  1002ea:	8b 04 85 40 b0 10 00 	mov    0x10b040(,%eax,4),%eax
  1002f1:	85 c0                	test   %eax,%eax
  1002f3:	74 08                	je     1002fd <clock_registerUpdateCallback+0x2c>
  1002f5:	8b 45 f8             	mov    -0x8(%ebp),%eax
  1002f8:	89 45 fc             	mov    %eax,-0x4(%ebp)
  1002fb:	eb 0a                	jmp    100307 <clock_registerUpdateCallback+0x36>
  1002fd:	83 45 f8 01          	addl   $0x1,-0x8(%ebp)
  100301:	83 7d f8 7f          	cmpl   $0x7f,-0x8(%ebp)
  100305:	7e e0                	jle    1002e7 <clock_registerUpdateCallback+0x16>
  100307:	83 7d fc ff          	cmpl   $0xffffffff,-0x4(%ebp)
  10030b:	75 07                	jne    100314 <clock_registerUpdateCallback+0x43>
  10030d:	b8 ea ff ff ff       	mov    $0xffffffea,%eax
  100312:	eb 10                	jmp    100324 <clock_registerUpdateCallback+0x53>
  100314:	8b 45 fc             	mov    -0x4(%ebp),%eax
  100317:	8b 55 08             	mov    0x8(%ebp),%edx
  10031a:	89 14 85 40 b0 10 00 	mov    %edx,0x10b040(,%eax,4)
  100321:	8b 45 fc             	mov    -0x4(%ebp),%eax
  100324:	c9                   	leave  
  100325:	c3                   	ret    

00100326 <clock_unregisterUpdateCallback>:
  100326:	55                   	push   %ebp
  100327:	89 e5                	mov    %esp,%ebp
  100329:	83 7d 08 00          	cmpl   $0x0,0x8(%ebp)
  10032d:	78 10                	js     10033f <clock_unregisterUpdateCallback+0x19>
  10032f:	8b 45 08             	mov    0x8(%ebp),%eax
  100332:	c7 04 85 40 b0 10 00 	movl   $0x0,0x10b040(,%eax,4)
  100339:	00 00 00 00 
  10033d:	eb 01                	jmp    100340 <clock_unregisterUpdateCallback+0x1a>
  10033f:	90                   	nop
  100340:	5d                   	pop    %ebp
  100341:	c3                   	ret    

00100342 <clock_getBoottime>:
  100342:	55                   	push   %ebp
  100343:	89 e5                	mov    %esp,%ebp
  100345:	a1 10 b0 10 00       	mov    0x10b010,%eax
  10034a:	8b 15 14 b0 10 00    	mov    0x10b014,%edx
  100350:	5d                   	pop    %ebp
  100351:	c3                   	ret    

00100352 <clock_setDevice>:
  100352:	55                   	push   %ebp
  100353:	89 e5                	mov    %esp,%ebp
  100355:	8b 45 08             	mov    0x8(%ebp),%eax
  100358:	a3 00 b0 10 00       	mov    %eax,0x10b000
  10035d:	8b 45 0c             	mov    0xc(%ebp),%eax
  100360:	a3 04 b0 10 00       	mov    %eax,0x10b004
  100365:	8b 45 10             	mov    0x10(%ebp),%eax
  100368:	a3 08 b0 10 00       	mov    %eax,0x10b008
  10036d:	8b 45 14             	mov    0x14(%ebp),%eax
  100370:	a3 0c b0 10 00       	mov    %eax,0x10b00c
  100375:	8b 45 18             	mov    0x18(%ebp),%eax
  100378:	a3 10 b0 10 00       	mov    %eax,0x10b010
  10037d:	8b 45 1c             	mov    0x1c(%ebp),%eax
  100380:	a3 14 b0 10 00       	mov    %eax,0x10b014
  100385:	c7 05 20 b0 10 00 01 	movl   $0x1,0x10b020
  10038c:	00 00 00 
  10038f:	90                   	nop
  100390:	5d                   	pop    %ebp
  100391:	c3                   	ret    

00100392 <clock_isReady>:
  100392:	55                   	push   %ebp
  100393:	89 e5                	mov    %esp,%ebp
  100395:	a1 20 b0 10 00       	mov    0x10b020,%eax
  10039a:	5d                   	pop    %ebp
  10039b:	c3                   	ret    

0010039c <serial_print>:
  10039c:	55                   	push   %ebp
  10039d:	89 e5                	mov    %esp,%ebp
  10039f:	83 ec 18             	sub    $0x18,%esp
  1003a2:	8b 45 0c             	mov    0xc(%ebp),%eax
  1003a5:	88 45 f4             	mov    %al,-0xc(%ebp)
  1003a8:	a1 40 b2 10 00       	mov    0x10b240,%eax
  1003ad:	85 c0                	test   %eax,%eax
  1003af:	75 07                	jne    1003b8 <serial_print+0x1c>
  1003b1:	b8 00 00 00 00       	mov    $0x0,%eax
  1003b6:	eb 27                	jmp    1003df <serial_print+0x43>
  1003b8:	80 7d f4 0a          	cmpb   $0xa,-0xc(%ebp)
  1003bc:	75 0f                	jne    1003cd <serial_print+0x31>
  1003be:	a1 40 b2 10 00       	mov    0x10b240,%eax
  1003c3:	83 ec 0c             	sub    $0xc,%esp
  1003c6:	6a 0d                	push   $0xd
  1003c8:	ff d0                	call   *%eax
  1003ca:	83 c4 10             	add    $0x10,%esp
  1003cd:	a1 40 b2 10 00       	mov    0x10b240,%eax
  1003d2:	0f be 55 f4          	movsbl -0xc(%ebp),%edx
  1003d6:	83 ec 0c             	sub    $0xc,%esp
  1003d9:	52                   	push   %edx
  1003da:	ff d0                	call   *%eax
  1003dc:	83 c4 10             	add    $0x10,%esp
  1003df:	c9                   	leave  
  1003e0:	c3                   	ret    

001003e1 <serial_setWriteMethod>:
  1003e1:	55                   	push   %ebp
  1003e2:	89 e5                	mov    %esp,%ebp
  1003e4:	83 7d 08 00          	cmpl   $0x0,0x8(%ebp)
  1003e8:	74 08                	je     1003f2 <serial_setWriteMethod+0x11>
  1003ea:	8b 45 08             	mov    0x8(%ebp),%eax
  1003ed:	a3 40 b2 10 00       	mov    %eax,0x10b240
  1003f2:	90                   	nop
  1003f3:	5d                   	pop    %ebp
  1003f4:	c3                   	ret    

001003f5 <serial_printf>:
  1003f5:	55                   	push   %ebp
  1003f6:	89 e5                	mov    %esp,%ebp
  1003f8:	83 ec 18             	sub    $0x18,%esp
  1003fb:	8d 45 0c             	lea    0xc(%ebp),%eax
  1003fe:	89 45 f0             	mov    %eax,-0x10(%ebp)
  100401:	8b 45 f0             	mov    -0x10(%ebp),%eax
  100404:	50                   	push   %eax
  100405:	ff 75 08             	push   0x8(%ebp)
  100408:	6a 00                	push   $0x0
  10040a:	68 9c 03 10 00       	push   $0x10039c
  10040f:	e8 e0 4f 00 00       	call   1053f4 <xvasprintf>
  100414:	83 c4 10             	add    $0x10,%esp
  100417:	89 45 f4             	mov    %eax,-0xc(%ebp)
  10041a:	8b 45 f4             	mov    -0xc(%ebp),%eax
  10041d:	c9                   	leave  
  10041e:	c3                   	ret    

0010041f <debug_print>:
  10041f:	55                   	push   %ebp
  100420:	89 e5                	mov    %esp,%ebp
  100422:	83 ec 18             	sub    $0x18,%esp
  100425:	8b 45 0c             	mov    0xc(%ebp),%eax
  100428:	88 45 f4             	mov    %al,-0xc(%ebp)
  10042b:	a1 44 b2 10 00       	mov    0x10b244,%eax
  100430:	85 c0                	test   %eax,%eax
  100432:	75 07                	jne    10043b <debug_print+0x1c>
  100434:	b8 00 00 00 00       	mov    $0x0,%eax
  100439:	eb 27                	jmp    100462 <debug_print+0x43>
  10043b:	80 7d f4 0a          	cmpb   $0xa,-0xc(%ebp)
  10043f:	75 0f                	jne    100450 <debug_print+0x31>
  100441:	a1 44 b2 10 00       	mov    0x10b244,%eax
  100446:	83 ec 0c             	sub    $0xc,%esp
  100449:	6a 0d                	push   $0xd
  10044b:	ff d0                	call   *%eax
  10044d:	83 c4 10             	add    $0x10,%esp
  100450:	a1 44 b2 10 00       	mov    0x10b244,%eax
  100455:	0f be 55 f4          	movsbl -0xc(%ebp),%edx
  100459:	83 ec 0c             	sub    $0xc,%esp
  10045c:	52                   	push   %edx
  10045d:	ff d0                	call   *%eax
  10045f:	83 c4 10             	add    $0x10,%esp
  100462:	c9                   	leave  
  100463:	c3                   	ret    

00100464 <debug_write>:
  100464:	55                   	push   %ebp
  100465:	89 e5                	mov    %esp,%ebp
  100467:	83 ec 18             	sub    $0x18,%esp
  10046a:	c7 45 f4 00 00 00 00 	movl   $0x0,-0xc(%ebp)
  100471:	eb 20                	jmp    100493 <debug_write+0x2f>
  100473:	8b 55 0c             	mov    0xc(%ebp),%edx
  100476:	8b 45 f4             	mov    -0xc(%ebp),%eax
  100479:	01 d0                	add    %edx,%eax
  10047b:	0f b6 00             	movzbl (%eax),%eax
  10047e:	0f be c0             	movsbl %al,%eax
  100481:	83 ec 08             	sub    $0x8,%esp
  100484:	50                   	push   %eax
  100485:	6a 00                	push   $0x0
  100487:	e8 93 ff ff ff       	call   10041f <debug_print>
  10048c:	83 c4 10             	add    $0x10,%esp
  10048f:	83 45 f4 01          	addl   $0x1,-0xc(%ebp)
  100493:	8b 45 f4             	mov    -0xc(%ebp),%eax
  100496:	3b 45 08             	cmp    0x8(%ebp),%eax
  100499:	72 d8                	jb     100473 <debug_write+0xf>
  10049b:	b8 00 00 00 00       	mov    $0x0,%eax
  1004a0:	c9                   	leave  
  1004a1:	c3                   	ret    

001004a2 <dprintf_internal>:
  1004a2:	55                   	push   %ebp
  1004a3:	89 e5                	mov    %esp,%ebp
  1004a5:	81 ec a8 00 00 00    	sub    $0xa8,%esp
  1004ab:	83 7d 10 00          	cmpl   $0x0,0x10(%ebp)
  1004af:	0f 84 42 01 00 00    	je     1005f7 <dprintf_internal+0x155>
  1004b5:	83 7d 10 04          	cmpl   $0x4,0x10(%ebp)
  1004b9:	74 68                	je     100523 <dprintf_internal+0x81>
  1004bb:	83 7d 10 04          	cmpl   $0x4,0x10(%ebp)
  1004bf:	77 7a                	ja     10053b <dprintf_internal+0x99>
  1004c1:	83 7d 10 03          	cmpl   $0x3,0x10(%ebp)
  1004c5:	74 44                	je     10050b <dprintf_internal+0x69>
  1004c7:	83 7d 10 03          	cmpl   $0x3,0x10(%ebp)
  1004cb:	77 6e                	ja     10053b <dprintf_internal+0x99>
  1004cd:	83 7d 10 01          	cmpl   $0x1,0x10(%ebp)
  1004d1:	74 08                	je     1004db <dprintf_internal+0x39>
  1004d3:	83 7d 10 02          	cmpl   $0x2,0x10(%ebp)
  1004d7:	74 1a                	je     1004f3 <dprintf_internal+0x51>
  1004d9:	eb 60                	jmp    10053b <dprintf_internal+0x99>
  1004db:	83 ec 04             	sub    $0x4,%esp
  1004de:	6a 04                	push   $0x4
  1004e0:	68 ee 80 10 00       	push   $0x1080ee
  1004e5:	8d 45 e7             	lea    -0x19(%ebp),%eax
  1004e8:	50                   	push   %eax
  1004e9:	e8 38 5d 00 00       	call   106226 <strncpy>
  1004ee:	83 c4 10             	add    $0x10,%esp
  1004f1:	eb 5e                	jmp    100551 <dprintf_internal+0xaf>
  1004f3:	83 ec 04             	sub    $0x4,%esp
  1004f6:	6a 04                	push   $0x4
  1004f8:	68 f3 80 10 00       	push   $0x1080f3
  1004fd:	8d 45 e7             	lea    -0x19(%ebp),%eax
  100500:	50                   	push   %eax
  100501:	e8 20 5d 00 00       	call   106226 <strncpy>
  100506:	83 c4 10             	add    $0x10,%esp
  100509:	eb 46                	jmp    100551 <dprintf_internal+0xaf>
  10050b:	83 ec 04             	sub    $0x4,%esp
  10050e:	6a 04                	push   $0x4
  100510:	68 f8 80 10 00       	push   $0x1080f8
  100515:	8d 45 e7             	lea    -0x19(%ebp),%eax
  100518:	50                   	push   %eax
  100519:	e8 08 5d 00 00       	call   106226 <strncpy>
  10051e:	83 c4 10             	add    $0x10,%esp
  100521:	eb 2e                	jmp    100551 <dprintf_internal+0xaf>
  100523:	83 ec 04             	sub    $0x4,%esp
  100526:	6a 04                	push   $0x4
  100528:	68 fd 80 10 00       	push   $0x1080fd
  10052d:	8d 45 e7             	lea    -0x19(%ebp),%eax
  100530:	50                   	push   %eax
  100531:	e8 f0 5c 00 00       	call   106226 <strncpy>
  100536:	83 c4 10             	add    $0x10,%esp
  100539:	eb 16                	jmp    100551 <dprintf_internal+0xaf>
  10053b:	83 ec 04             	sub    $0x4,%esp
  10053e:	6a 04                	push   $0x4
  100540:	68 02 81 10 00       	push   $0x108102
  100545:	8d 45 e7             	lea    -0x19(%ebp),%eax
  100548:	50                   	push   %eax
  100549:	e8 d8 5c 00 00       	call   106226 <strncpy>
  10054e:	83 c4 10             	add    $0x10,%esp
  100551:	c6 45 eb 00          	movb   $0x0,-0x15(%ebp)
  100555:	c7 45 f4 00 00 00 00 	movl   $0x0,-0xc(%ebp)
  10055c:	e8 31 fe ff ff       	call   100392 <clock_isReady>
  100561:	85 c0                	test   %eax,%eax
  100563:	75 22                	jne    100587 <dprintf_internal+0xe5>
  100565:	8d 45 e7             	lea    -0x19(%ebp),%eax
  100568:	50                   	push   %eax
  100569:	68 07 81 10 00       	push   $0x108107
  10056e:	68 80 00 00 00       	push   $0x80
  100573:	8d 85 67 ff ff ff    	lea    -0x99(%ebp),%eax
  100579:	50                   	push   %eax
  10057a:	e8 20 5b 00 00       	call   10609f <snprintf>
  10057f:	83 c4 10             	add    $0x10,%esp
  100582:	89 45 f4             	mov    %eax,-0xc(%ebp)
  100585:	eb 59                	jmp    1005e0 <dprintf_internal+0x13e>
  100587:	83 ec 0c             	sub    $0xc,%esp
  10058a:	8d 85 5c ff ff ff    	lea    -0xa4(%ebp),%eax
  100590:	50                   	push   %eax
  100591:	e8 1b 6b 00 00       	call   1070b1 <time>
  100596:	83 c4 10             	add    $0x10,%esp
  100599:	83 ec 0c             	sub    $0xc,%esp
  10059c:	8d 85 5c ff ff ff    	lea    -0xa4(%ebp),%eax
  1005a2:	50                   	push   %eax
  1005a3:	e8 57 61 00 00       	call   1066ff <localtime>
  1005a8:	83 c4 10             	add    $0x10,%esp
  1005ab:	89 45 f0             	mov    %eax,-0x10(%ebp)
  1005ae:	83 ec 0c             	sub    $0xc,%esp
  1005b1:	ff 75 f0             	push   -0x10(%ebp)
  1005b4:	e8 d4 6a 00 00       	call   10708d <asctime>
  1005b9:	83 c4 10             	add    $0x10,%esp
  1005bc:	83 ec 0c             	sub    $0xc,%esp
  1005bf:	8d 55 e7             	lea    -0x19(%ebp),%edx
  1005c2:	52                   	push   %edx
  1005c3:	50                   	push   %eax
  1005c4:	68 1e 81 10 00       	push   $0x10811e
  1005c9:	68 80 00 00 00       	push   $0x80
  1005ce:	8d 85 67 ff ff ff    	lea    -0x99(%ebp),%eax
  1005d4:	50                   	push   %eax
  1005d5:	e8 c5 5a 00 00       	call   10609f <snprintf>
  1005da:	83 c4 20             	add    $0x20,%esp
  1005dd:	89 45 f4             	mov    %eax,-0xc(%ebp)
  1005e0:	83 ec 08             	sub    $0x8,%esp
  1005e3:	8d 85 67 ff ff ff    	lea    -0x99(%ebp),%eax
  1005e9:	50                   	push   %eax
  1005ea:	ff 75 f4             	push   -0xc(%ebp)
  1005ed:	e8 72 fe ff ff       	call   100464 <debug_write>
  1005f2:	83 c4 10             	add    $0x10,%esp
  1005f5:	eb 01                	jmp    1005f8 <dprintf_internal+0x156>
  1005f7:	90                   	nop
  1005f8:	8d 45 18             	lea    0x18(%ebp),%eax
  1005fb:	89 85 60 ff ff ff    	mov    %eax,-0xa0(%ebp)
  100601:	8b 85 60 ff ff ff    	mov    -0xa0(%ebp),%eax
  100607:	50                   	push   %eax
  100608:	ff 75 14             	push   0x14(%ebp)
  10060b:	6a 00                	push   $0x0
  10060d:	68 1f 04 10 00       	push   $0x10041f
  100612:	e8 dd 4d 00 00       	call   1053f4 <xvasprintf>
  100617:	83 c4 10             	add    $0x10,%esp
  10061a:	89 45 ec             	mov    %eax,-0x14(%ebp)
  10061d:	8b 45 ec             	mov    -0x14(%ebp),%eax
  100620:	c9                   	leave  
  100621:	c3                   	ret    

00100622 <debug_setOutput>:
  100622:	55                   	push   %ebp
  100623:	89 e5                	mov    %esp,%ebp
  100625:	8b 45 08             	mov    0x8(%ebp),%eax
  100628:	a3 44 b2 10 00       	mov    %eax,0x10b244
  10062d:	90                   	nop
  10062e:	5d                   	pop    %ebp
  10062f:	c3                   	ret    

00100630 <kernel_panic_putchar>:
  100630:	55                   	push   %ebp
  100631:	89 e5                	mov    %esp,%ebp
  100633:	83 ec 18             	sub    $0x18,%esp
  100636:	8b 45 0c             	mov    0xc(%ebp),%eax
  100639:	88 45 f4             	mov    %al,-0xc(%ebp)
  10063c:	0f be 45 f4          	movsbl -0xc(%ebp),%eax
  100640:	83 ec 0c             	sub    $0xc,%esp
  100643:	50                   	push   %eax
  100644:	68 24 84 10 00       	push   $0x108424
  100649:	6a 00                	push   $0x0
  10064b:	6a 2a                	push   $0x2a
  10064d:	68 27 84 10 00       	push   $0x108427
  100652:	e8 4b fe ff ff       	call   1004a2 <dprintf_internal>
  100657:	83 c4 20             	add    $0x20,%esp
  10065a:	b8 00 00 00 00       	mov    $0x0,%eax
  10065f:	c9                   	leave  
  100660:	c3                   	ret    

00100661 <kernel_panic_extended>:
  100661:	55                   	push   %ebp
  100662:	89 e5                	mov    %esp,%ebp
  100664:	83 ec 18             	sub    $0x18,%esp
  100667:	8b 55 08             	mov    0x8(%ebp),%edx
  10066a:	a1 20 a0 10 00       	mov    0x10a020,%eax
  10066f:	39 c2                	cmp    %eax,%edx
  100671:	7c 15                	jl     100688 <kernel_panic_extended+0x27>
  100673:	ff 75 08             	push   0x8(%ebp)
  100676:	68 3c 84 10 00       	push   $0x10843c
  10067b:	ff 75 0c             	push   0xc(%ebp)
  10067e:	6a 02                	push   $0x2
  100680:	e8 dc ff ff ff       	call   100661 <kernel_panic_extended>
  100685:	83 c4 10             	add    $0x10,%esp
  100688:	e8 5e 36 00 00       	call   103ceb <arch_panic_prepare>
  10068d:	68 7c 84 10 00       	push   $0x10847c
  100692:	6a 00                	push   $0x0
  100694:	6a 3f                	push   $0x3f
  100696:	68 27 84 10 00       	push   $0x108427
  10069b:	e8 02 fe ff ff       	call   1004a2 <dprintf_internal>
  1006a0:	83 c4 10             	add    $0x10,%esp
  1006a3:	68 ac 84 10 00       	push   $0x1084ac
  1006a8:	6a 00                	push   $0x0
  1006aa:	6a 40                	push   $0x40
  1006ac:	68 27 84 10 00       	push   $0x108427
  1006b1:	e8 ec fd ff ff       	call   1004a2 <dprintf_internal>
  1006b6:	83 c4 10             	add    $0x10,%esp
  1006b9:	68 f4 84 10 00       	push   $0x1084f4
  1006be:	6a 00                	push   $0x0
  1006c0:	6a 41                	push   $0x41
  1006c2:	68 27 84 10 00       	push   $0x108427
  1006c7:	e8 d6 fd ff ff       	call   1004a2 <dprintf_internal>
  1006cc:	83 c4 10             	add    $0x10,%esp
  1006cf:	68 38 85 10 00       	push   $0x108538
  1006d4:	6a 00                	push   $0x0
  1006d6:	6a 42                	push   $0x42
  1006d8:	68 27 84 10 00       	push   $0x108427
  1006dd:	e8 c0 fd ff ff       	call   1004a2 <dprintf_internal>
  1006e2:	83 c4 10             	add    $0x10,%esp
  1006e5:	8b 45 08             	mov    0x8(%ebp),%eax
  1006e8:	8b 04 85 24 a0 10 00 	mov    0x10a024(,%eax,4),%eax
  1006ef:	83 ec 08             	sub    $0x8,%esp
  1006f2:	ff 75 0c             	push   0xc(%ebp)
  1006f5:	50                   	push   %eax
  1006f6:	68 71 85 10 00       	push   $0x108571
  1006fb:	6a 00                	push   $0x0
  1006fd:	6a 44                	push   $0x44
  1006ff:	68 27 84 10 00       	push   $0x108427
  100704:	e8 99 fd ff ff       	call   1004a2 <dprintf_internal>
  100709:	83 c4 20             	add    $0x20,%esp
  10070c:	8d 45 14             	lea    0x14(%ebp),%eax
  10070f:	89 45 f4             	mov    %eax,-0xc(%ebp)
  100712:	8b 45 f4             	mov    -0xc(%ebp),%eax
  100715:	50                   	push   %eax
  100716:	ff 75 10             	push   0x10(%ebp)
  100719:	6a 00                	push   $0x0
  10071b:	68 30 06 10 00       	push   $0x100630
  100720:	e8 cf 4c 00 00       	call   1053f4 <xvasprintf>
  100725:	83 c4 10             	add    $0x10,%esp
  100728:	8b 45 08             	mov    0x8(%ebp),%eax
  10072b:	8b 04 85 40 a0 10 00 	mov    0x10a040(,%eax,4),%eax
  100732:	83 ec 0c             	sub    $0xc,%esp
  100735:	50                   	push   %eax
  100736:	68 8d 85 10 00       	push   $0x10858d
  10073b:	6a 00                	push   $0x0
  10073d:	6a 4c                	push   $0x4c
  10073f:	68 27 84 10 00       	push   $0x108427
  100744:	e8 59 fd ff ff       	call   1004a2 <dprintf_internal>
  100749:	83 c4 20             	add    $0x20,%esp
  10074c:	68 94 85 10 00       	push   $0x108594
  100751:	6a 00                	push   $0x0
  100753:	6a 4f                	push   $0x4f
  100755:	68 27 84 10 00       	push   $0x108427
  10075a:	e8 43 fd ff ff       	call   1004a2 <dprintf_internal>
  10075f:	83 c4 10             	add    $0x10,%esp
  100762:	e8 8a 35 00 00       	call   103cf1 <arch_panic_finalize>
  100767:	90                   	nop
  100768:	c9                   	leave  
  100769:	c3                   	ret    

0010076a <kernel_panic>:
  10076a:	55                   	push   %ebp
  10076b:	89 e5                	mov    %esp,%ebp
  10076d:	83 ec 08             	sub    $0x8,%esp
  100770:	8b 55 08             	mov    0x8(%ebp),%edx
  100773:	a1 20 a0 10 00       	mov    0x10a020,%eax
  100778:	39 c2                	cmp    %eax,%edx
  10077a:	7c 15                	jl     100791 <kernel_panic+0x27>
  10077c:	ff 75 08             	push   0x8(%ebp)
  10077f:	68 e8 85 10 00       	push   $0x1085e8
  100784:	ff 75 0c             	push   0xc(%ebp)
  100787:	6a 02                	push   $0x2
  100789:	e8 d3 fe ff ff       	call   100661 <kernel_panic_extended>
  10078e:	83 c4 10             	add    $0x10,%esp
  100791:	e8 55 35 00 00       	call   103ceb <arch_panic_prepare>
  100796:	68 7c 84 10 00       	push   $0x10847c
  10079b:	6a 00                	push   $0x0
  10079d:	6a 62                	push   $0x62
  10079f:	68 27 84 10 00       	push   $0x108427
  1007a4:	e8 f9 fc ff ff       	call   1004a2 <dprintf_internal>
  1007a9:	83 c4 10             	add    $0x10,%esp
  1007ac:	68 ac 84 10 00       	push   $0x1084ac
  1007b1:	6a 00                	push   $0x0
  1007b3:	6a 63                	push   $0x63
  1007b5:	68 27 84 10 00       	push   $0x108427
  1007ba:	e8 e3 fc ff ff       	call   1004a2 <dprintf_internal>
  1007bf:	83 c4 10             	add    $0x10,%esp
  1007c2:	68 f4 84 10 00       	push   $0x1084f4
  1007c7:	6a 00                	push   $0x0
  1007c9:	6a 64                	push   $0x64
  1007cb:	68 27 84 10 00       	push   $0x108427
  1007d0:	e8 cd fc ff ff       	call   1004a2 <dprintf_internal>
  1007d5:	83 c4 10             	add    $0x10,%esp
  1007d8:	68 38 85 10 00       	push   $0x108538
  1007dd:	6a 00                	push   $0x0
  1007df:	6a 65                	push   $0x65
  1007e1:	68 27 84 10 00       	push   $0x108427
  1007e6:	e8 b7 fc ff ff       	call   1004a2 <dprintf_internal>
  1007eb:	83 c4 10             	add    $0x10,%esp
  1007ee:	8b 45 08             	mov    0x8(%ebp),%eax
  1007f1:	8b 04 85 24 a0 10 00 	mov    0x10a024(,%eax,4),%eax
  1007f8:	83 ec 08             	sub    $0x8,%esp
  1007fb:	ff 75 0c             	push   0xc(%ebp)
  1007fe:	50                   	push   %eax
  1007ff:	68 71 85 10 00       	push   $0x108571
  100804:	6a 00                	push   $0x0
  100806:	6a 66                	push   $0x66
  100808:	68 27 84 10 00       	push   $0x108427
  10080d:	e8 90 fc ff ff       	call   1004a2 <dprintf_internal>
  100812:	83 c4 20             	add    $0x20,%esp
  100815:	8b 45 08             	mov    0x8(%ebp),%eax
  100818:	8b 04 85 40 a0 10 00 	mov    0x10a040(,%eax,4),%eax
  10081f:	83 ec 0c             	sub    $0xc,%esp
  100822:	50                   	push   %eax
  100823:	68 1f 86 10 00       	push   $0x10861f
  100828:	6a 00                	push   $0x0
  10082a:	6a 67                	push   $0x67
  10082c:	68 27 84 10 00       	push   $0x108427
  100831:	e8 6c fc ff ff       	call   1004a2 <dprintf_internal>
  100836:	83 c4 20             	add    $0x20,%esp
  100839:	68 94 85 10 00       	push   $0x108594
  10083e:	6a 00                	push   $0x0
  100840:	6a 6a                	push   $0x6a
  100842:	68 27 84 10 00       	push   $0x108427
  100847:	e8 56 fc ff ff       	call   1004a2 <dprintf_internal>
  10084c:	83 c4 10             	add    $0x10,%esp
  10084f:	e8 9d 34 00 00       	call   103cf1 <arch_panic_finalize>
  100854:	90                   	nop
  100855:	c9                   	leave  
  100856:	c3                   	ret    

00100857 <kernel_panic_prepare>:
  100857:	55                   	push   %ebp
  100858:	89 e5                	mov    %esp,%ebp
  10085a:	83 ec 08             	sub    $0x8,%esp
  10085d:	e8 89 34 00 00       	call   103ceb <arch_panic_prepare>
  100862:	68 7c 84 10 00       	push   $0x10847c
  100867:	6a 00                	push   $0x0
  100869:	6a 76                	push   $0x76
  10086b:	68 27 84 10 00       	push   $0x108427
  100870:	e8 2d fc ff ff       	call   1004a2 <dprintf_internal>
  100875:	83 c4 10             	add    $0x10,%esp
  100878:	68 ac 84 10 00       	push   $0x1084ac
  10087d:	6a 00                	push   $0x0
  10087f:	6a 77                	push   $0x77
  100881:	68 27 84 10 00       	push   $0x108427
  100886:	e8 17 fc ff ff       	call   1004a2 <dprintf_internal>
  10088b:	83 c4 10             	add    $0x10,%esp
  10088e:	68 f4 84 10 00       	push   $0x1084f4
  100893:	6a 00                	push   $0x0
  100895:	6a 78                	push   $0x78
  100897:	68 27 84 10 00       	push   $0x108427
  10089c:	e8 01 fc ff ff       	call   1004a2 <dprintf_internal>
  1008a1:	83 c4 10             	add    $0x10,%esp
  1008a4:	68 38 85 10 00       	push   $0x108538
  1008a9:	6a 00                	push   $0x0
  1008ab:	6a 79                	push   $0x79
  1008ad:	68 27 84 10 00       	push   $0x108427
  1008b2:	e8 eb fb ff ff       	call   1004a2 <dprintf_internal>
  1008b7:	83 c4 10             	add    $0x10,%esp
  1008ba:	83 7d 08 00          	cmpl   $0x0,0x8(%ebp)
  1008be:	74 24                	je     1008e4 <kernel_panic_prepare+0x8d>
  1008c0:	8b 45 08             	mov    0x8(%ebp),%eax
  1008c3:	8b 04 85 24 a0 10 00 	mov    0x10a024(,%eax,4),%eax
  1008ca:	83 ec 0c             	sub    $0xc,%esp
  1008cd:	50                   	push   %eax
  1008ce:	68 26 86 10 00       	push   $0x108626
  1008d3:	6a 00                	push   $0x0
  1008d5:	6a 7c                	push   $0x7c
  1008d7:	68 27 84 10 00       	push   $0x108427
  1008dc:	e8 c1 fb ff ff       	call   1004a2 <dprintf_internal>
  1008e1:	83 c4 20             	add    $0x20,%esp
  1008e4:	90                   	nop
  1008e5:	c9                   	leave  
  1008e6:	c3                   	ret    

001008e7 <kernel_panic_finalize>:
  1008e7:	55                   	push   %ebp
  1008e8:	89 e5                	mov    %esp,%ebp
  1008ea:	83 ec 08             	sub    $0x8,%esp
  1008ed:	68 94 85 10 00       	push   $0x108594
  1008f2:	6a 00                	push   $0x0
  1008f4:	68 84 00 00 00       	push   $0x84
  1008f9:	68 27 84 10 00       	push   $0x108427
  1008fe:	e8 9f fb ff ff       	call   1004a2 <dprintf_internal>
  100903:	83 c4 10             	add    $0x10,%esp
  100906:	e8 e6 33 00 00       	call   103cf1 <arch_panic_finalize>
  10090b:	90                   	nop
  10090c:	c9                   	leave  
  10090d:	c3                   	ret    

0010090e <kmalloc>:
  10090e:	55                   	push   %ebp
  10090f:	89 e5                	mov    %esp,%ebp
  100911:	83 ec 18             	sub    $0x18,%esp
  100914:	a1 4c b2 10 00       	mov    0x10b24c,%eax
  100919:	85 c0                	test   %eax,%eax
  10091b:	74 53                	je     100970 <kmalloc+0x62>
  10091d:	a1 4c b2 10 00       	mov    0x10b24c,%eax
  100922:	8b 50 0c             	mov    0xc(%eax),%edx
  100925:	83 c2 01             	add    $0x1,%edx
  100928:	89 50 0c             	mov    %edx,0xc(%eax)
  10092b:	a1 4c b2 10 00       	mov    0x10b24c,%eax
  100930:	8b 48 08             	mov    0x8(%eax),%ecx
  100933:	a1 4c b2 10 00       	mov    0x10b24c,%eax
  100938:	8b 55 08             	mov    0x8(%ebp),%edx
  10093b:	01 ca                	add    %ecx,%edx
  10093d:	89 50 08             	mov    %edx,0x8(%eax)
  100940:	a1 4c b2 10 00       	mov    0x10b24c,%eax
  100945:	8b 40 14             	mov    0x14(%eax),%eax
  100948:	3b 45 08             	cmp    0x8(%ebp),%eax
  10094b:	73 0b                	jae    100958 <kmalloc+0x4a>
  10094d:	a1 4c b2 10 00       	mov    0x10b24c,%eax
  100952:	8b 55 08             	mov    0x8(%ebp),%edx
  100955:	89 50 14             	mov    %edx,0x14(%eax)
  100958:	a1 4c b2 10 00       	mov    0x10b24c,%eax
  10095d:	8b 40 10             	mov    0x10(%eax),%eax
  100960:	39 45 08             	cmp    %eax,0x8(%ebp)
  100963:	73 0b                	jae    100970 <kmalloc+0x62>
  100965:	a1 4c b2 10 00       	mov    0x10b24c,%eax
  10096a:	8b 55 08             	mov    0x8(%ebp),%edx
  10096d:	89 50 10             	mov    %edx,0x10(%eax)
  100970:	83 ec 0c             	sub    $0xc,%esp
  100973:	ff 75 08             	push   0x8(%ebp)
  100976:	e8 b4 09 00 00       	call   10132f <alloc_malloc>
  10097b:	83 c4 10             	add    $0x10,%esp
  10097e:	89 45 f4             	mov    %eax,-0xc(%ebp)
  100981:	8b 45 f4             	mov    -0xc(%ebp),%eax
  100984:	c9                   	leave  
  100985:	c3                   	ret    

00100986 <krealloc>:
  100986:	55                   	push   %ebp
  100987:	89 e5                	mov    %esp,%ebp
  100989:	83 ec 18             	sub    $0x18,%esp
  10098c:	a1 4c b2 10 00       	mov    0x10b24c,%eax
  100991:	85 c0                	test   %eax,%eax
  100993:	74 53                	je     1009e8 <krealloc+0x62>
  100995:	a1 4c b2 10 00       	mov    0x10b24c,%eax
  10099a:	8b 50 0c             	mov    0xc(%eax),%edx
  10099d:	83 c2 01             	add    $0x1,%edx
  1009a0:	89 50 0c             	mov    %edx,0xc(%eax)
  1009a3:	a1 4c b2 10 00       	mov    0x10b24c,%eax
  1009a8:	8b 48 08             	mov    0x8(%eax),%ecx
  1009ab:	a1 4c b2 10 00       	mov    0x10b24c,%eax
  1009b0:	8b 55 0c             	mov    0xc(%ebp),%edx
  1009b3:	01 ca                	add    %ecx,%edx
  1009b5:	89 50 08             	mov    %edx,0x8(%eax)
  1009b8:	a1 4c b2 10 00       	mov    0x10b24c,%eax
  1009bd:	8b 40 14             	mov    0x14(%eax),%eax
  1009c0:	3b 45 0c             	cmp    0xc(%ebp),%eax
  1009c3:	73 0b                	jae    1009d0 <krealloc+0x4a>
  1009c5:	a1 4c b2 10 00       	mov    0x10b24c,%eax
  1009ca:	8b 55 0c             	mov    0xc(%ebp),%edx
  1009cd:	89 50 14             	mov    %edx,0x14(%eax)
  1009d0:	a1 4c b2 10 00       	mov    0x10b24c,%eax
  1009d5:	8b 40 10             	mov    0x10(%eax),%eax
  1009d8:	39 45 0c             	cmp    %eax,0xc(%ebp)
  1009db:	73 0b                	jae    1009e8 <krealloc+0x62>
  1009dd:	a1 4c b2 10 00       	mov    0x10b24c,%eax
  1009e2:	8b 55 0c             	mov    0xc(%ebp),%edx
  1009e5:	89 50 10             	mov    %edx,0x10(%eax)
  1009e8:	83 ec 08             	sub    $0x8,%esp
  1009eb:	ff 75 0c             	push   0xc(%ebp)
  1009ee:	ff 75 08             	push   0x8(%ebp)
  1009f1:	e8 55 09 00 00       	call   10134b <alloc_realloc>
  1009f6:	83 c4 10             	add    $0x10,%esp
  1009f9:	89 45 f4             	mov    %eax,-0xc(%ebp)
  1009fc:	8b 45 f4             	mov    -0xc(%ebp),%eax
  1009ff:	c9                   	leave  
  100a00:	c3                   	ret    

00100a01 <kcalloc>:
  100a01:	55                   	push   %ebp
  100a02:	89 e5                	mov    %esp,%ebp
  100a04:	83 ec 18             	sub    $0x18,%esp
  100a07:	a1 4c b2 10 00       	mov    0x10b24c,%eax
  100a0c:	85 c0                	test   %eax,%eax
  100a0e:	74 70                	je     100a80 <kcalloc+0x7f>
  100a10:	a1 4c b2 10 00       	mov    0x10b24c,%eax
  100a15:	8b 50 0c             	mov    0xc(%eax),%edx
  100a18:	83 c2 01             	add    $0x1,%edx
  100a1b:	89 50 0c             	mov    %edx,0xc(%eax)
  100a1e:	a1 4c b2 10 00       	mov    0x10b24c,%eax
  100a23:	8b 48 08             	mov    0x8(%eax),%ecx
  100a26:	8b 45 08             	mov    0x8(%ebp),%eax
  100a29:	0f af 45 0c          	imul   0xc(%ebp),%eax
  100a2d:	89 c2                	mov    %eax,%edx
  100a2f:	a1 4c b2 10 00       	mov    0x10b24c,%eax
  100a34:	01 ca                	add    %ecx,%edx
  100a36:	89 50 08             	mov    %edx,0x8(%eax)
  100a39:	8b 45 08             	mov    0x8(%ebp),%eax
  100a3c:	0f af 45 0c          	imul   0xc(%ebp),%eax
  100a40:	8b 15 4c b2 10 00    	mov    0x10b24c,%edx
  100a46:	8b 52 14             	mov    0x14(%edx),%edx
  100a49:	39 c2                	cmp    %eax,%edx
  100a4b:	73 0f                	jae    100a5c <kcalloc+0x5b>
  100a4d:	a1 4c b2 10 00       	mov    0x10b24c,%eax
  100a52:	8b 55 08             	mov    0x8(%ebp),%edx
  100a55:	0f af 55 0c          	imul   0xc(%ebp),%edx
  100a59:	89 50 14             	mov    %edx,0x14(%eax)
  100a5c:	8b 45 08             	mov    0x8(%ebp),%eax
  100a5f:	0f af 45 0c          	imul   0xc(%ebp),%eax
  100a63:	89 c2                	mov    %eax,%edx
  100a65:	a1 4c b2 10 00       	mov    0x10b24c,%eax
  100a6a:	8b 40 10             	mov    0x10(%eax),%eax
  100a6d:	39 c2                	cmp    %eax,%edx
  100a6f:	73 0f                	jae    100a80 <kcalloc+0x7f>
  100a71:	a1 4c b2 10 00       	mov    0x10b24c,%eax
  100a76:	8b 55 08             	mov    0x8(%ebp),%edx
  100a79:	0f af 55 0c          	imul   0xc(%ebp),%edx
  100a7d:	89 50 10             	mov    %edx,0x10(%eax)
  100a80:	83 ec 08             	sub    $0x8,%esp
  100a83:	ff 75 0c             	push   0xc(%ebp)
  100a86:	ff 75 08             	push   0x8(%ebp)
  100a89:	e8 dc 08 00 00       	call   10136a <alloc_calloc>
  100a8e:	83 c4 10             	add    $0x10,%esp
  100a91:	89 45 f4             	mov    %eax,-0xc(%ebp)
  100a94:	8b 45 f4             	mov    -0xc(%ebp),%eax
  100a97:	c9                   	leave  
  100a98:	c3                   	ret    

00100a99 <kvalloc>:
  100a99:	55                   	push   %ebp
  100a9a:	89 e5                	mov    %esp,%ebp
  100a9c:	83 ec 18             	sub    $0x18,%esp
  100a9f:	e8 a6 00 00 00       	call   100b4a <alloc_canHasValloc>
  100aa4:	85 c0                	test   %eax,%eax
  100aa6:	74 72                	je     100b1a <kvalloc+0x81>
  100aa8:	a1 4c b2 10 00       	mov    0x10b24c,%eax
  100aad:	85 c0                	test   %eax,%eax
  100aaf:	74 53                	je     100b04 <kvalloc+0x6b>
  100ab1:	a1 4c b2 10 00       	mov    0x10b24c,%eax
  100ab6:	8b 50 0c             	mov    0xc(%eax),%edx
  100ab9:	83 c2 01             	add    $0x1,%edx
  100abc:	89 50 0c             	mov    %edx,0xc(%eax)
  100abf:	a1 4c b2 10 00       	mov    0x10b24c,%eax
  100ac4:	8b 48 08             	mov    0x8(%eax),%ecx
  100ac7:	a1 4c b2 10 00       	mov    0x10b24c,%eax
  100acc:	8b 55 08             	mov    0x8(%ebp),%edx
  100acf:	01 ca                	add    %ecx,%edx
  100ad1:	89 50 08             	mov    %edx,0x8(%eax)
  100ad4:	a1 4c b2 10 00       	mov    0x10b24c,%eax
  100ad9:	8b 40 14             	mov    0x14(%eax),%eax
  100adc:	3b 45 08             	cmp    0x8(%ebp),%eax
  100adf:	73 0b                	jae    100aec <kvalloc+0x53>
  100ae1:	a1 4c b2 10 00       	mov    0x10b24c,%eax
  100ae6:	8b 55 08             	mov    0x8(%ebp),%edx
  100ae9:	89 50 14             	mov    %edx,0x14(%eax)
  100aec:	a1 4c b2 10 00       	mov    0x10b24c,%eax
  100af1:	8b 40 10             	mov    0x10(%eax),%eax
  100af4:	39 45 08             	cmp    %eax,0x8(%ebp)
  100af7:	73 0b                	jae    100b04 <kvalloc+0x6b>
  100af9:	a1 4c b2 10 00       	mov    0x10b24c,%eax
  100afe:	8b 55 08             	mov    0x8(%ebp),%edx
  100b01:	89 50 10             	mov    %edx,0x10(%eax)
  100b04:	83 ec 0c             	sub    $0xc,%esp
  100b07:	ff 75 08             	push   0x8(%ebp)
  100b0a:	e8 7a 08 00 00       	call   101389 <alloc_valloc>
  100b0f:	83 c4 10             	add    $0x10,%esp
  100b12:	89 45 f4             	mov    %eax,-0xc(%ebp)
  100b15:	8b 45 f4             	mov    -0xc(%ebp),%eax
  100b18:	eb 17                	jmp    100b31 <kvalloc+0x98>
  100b1a:	83 ec 04             	sub    $0x4,%esp
  100b1d:	68 3c 86 10 00       	push   $0x10863c
  100b22:	68 68 86 10 00       	push   $0x108668
  100b27:	6a 06                	push   $0x6
  100b29:	e8 33 fb ff ff       	call   100661 <kernel_panic_extended>
  100b2e:	83 c4 10             	add    $0x10,%esp
  100b31:	c9                   	leave  
  100b32:	c3                   	ret    

00100b33 <kfree>:
  100b33:	55                   	push   %ebp
  100b34:	89 e5                	mov    %esp,%ebp
  100b36:	83 ec 08             	sub    $0x8,%esp
  100b39:	83 ec 0c             	sub    $0xc,%esp
  100b3c:	ff 75 08             	push   0x8(%ebp)
  100b3f:	e8 61 08 00 00       	call   1013a5 <alloc_free>
  100b44:	83 c4 10             	add    $0x10,%esp
  100b47:	90                   	nop
  100b48:	c9                   	leave  
  100b49:	c3                   	ret    

00100b4a <alloc_canHasValloc>:
  100b4a:	55                   	push   %ebp
  100b4b:	89 e5                	mov    %esp,%ebp
  100b4d:	83 ec 08             	sub    $0x8,%esp
  100b50:	a1 48 b2 10 00       	mov    0x10b248,%eax
  100b55:	85 c0                	test   %eax,%eax
  100b57:	75 0a                	jne    100b63 <alloc_canHasValloc+0x19>
  100b59:	e8 dc 06 00 00       	call   10123a <alloc_getInfo>
  100b5e:	a3 48 b2 10 00       	mov    %eax,0x10b248
  100b63:	a1 48 b2 10 00       	mov    0x10b248,%eax
  100b68:	8b 80 8c 00 00 00    	mov    0x8c(%eax),%eax
  100b6e:	c9                   	leave  
  100b6f:	c3                   	ret    

00100b70 <alloc_startProfiling>:
  100b70:	55                   	push   %ebp
  100b71:	89 e5                	mov    %esp,%ebp
  100b73:	83 ec 08             	sub    $0x8,%esp
  100b76:	e8 bf 06 00 00       	call   10123a <alloc_getInfo>
  100b7b:	8b 80 88 00 00 00    	mov    0x88(%eax),%eax
  100b81:	85 c0                	test   %eax,%eax
  100b83:	75 20                	jne    100ba5 <alloc_startProfiling+0x35>
  100b85:	68 70 86 10 00       	push   $0x108670
  100b8a:	6a 02                	push   $0x2
  100b8c:	68 ab 00 00 00       	push   $0xab
  100b91:	68 ab 86 10 00       	push   $0x1086ab
  100b96:	e8 07 f9 ff ff       	call   1004a2 <dprintf_internal>
  100b9b:	83 c4 10             	add    $0x10,%esp
  100b9e:	b8 7a ff ff ff       	mov    $0xffffff7a,%eax
  100ba3:	eb 7b                	jmp    100c20 <alloc_startProfiling+0xb0>
  100ba5:	a1 4c b2 10 00       	mov    0x10b24c,%eax
  100baa:	85 c0                	test   %eax,%eax
  100bac:	74 2d                	je     100bdb <alloc_startProfiling+0x6b>
  100bae:	83 7d 08 00          	cmpl   $0x0,0x8(%ebp)
  100bb2:	74 20                	je     100bd4 <alloc_startProfiling+0x64>
  100bb4:	68 b8 86 10 00       	push   $0x1086b8
  100bb9:	6a 02                	push   $0x2
  100bbb:	68 b2 00 00 00       	push   $0xb2
  100bc0:	68 ab 86 10 00       	push   $0x1086ab
  100bc5:	e8 d8 f8 ff ff       	call   1004a2 <dprintf_internal>
  100bca:	83 c4 10             	add    $0x10,%esp
  100bcd:	b8 7a ff ff ff       	mov    $0xffffff7a,%eax
  100bd2:	eb 4c                	jmp    100c20 <alloc_startProfiling+0xb0>
  100bd4:	b8 89 ff ff ff       	mov    $0xffffff89,%eax
  100bd9:	eb 45                	jmp    100c20 <alloc_startProfiling+0xb0>
  100bdb:	83 ec 0c             	sub    $0xc,%esp
  100bde:	6a 18                	push   $0x18
  100be0:	e8 29 fd ff ff       	call   10090e <kmalloc>
  100be5:	83 c4 10             	add    $0x10,%esp
  100be8:	a3 4c b2 10 00       	mov    %eax,0x10b24c
  100bed:	a1 4c b2 10 00       	mov    0x10b24c,%eax
  100bf2:	83 ec 04             	sub    $0x4,%esp
  100bf5:	6a 18                	push   $0x18
  100bf7:	6a 00                	push   $0x0
  100bf9:	50                   	push   %eax
  100bfa:	e8 fa 55 00 00       	call   1061f9 <memset>
  100bff:	83 c4 10             	add    $0x10,%esp
  100c02:	e8 e8 64 00 00       	call   1070ef <now>
  100c07:	8b 0d 4c b2 10 00    	mov    0x10b24c,%ecx
  100c0d:	89 01                	mov    %eax,(%ecx)
  100c0f:	a1 4c b2 10 00       	mov    0x10b24c,%eax
  100c14:	c7 40 10 ff ff ff ff 	movl   $0xffffffff,0x10(%eax)
  100c1b:	b8 00 00 00 00       	mov    $0x0,%eax
  100c20:	c9                   	leave  
  100c21:	c3                   	ret    

00100c22 <alloc_stopProfiling>:
  100c22:	55                   	push   %ebp
  100c23:	89 e5                	mov    %esp,%ebp
  100c25:	83 ec 18             	sub    $0x18,%esp
  100c28:	a1 4c b2 10 00       	mov    0x10b24c,%eax
  100c2d:	85 c0                	test   %eax,%eax
  100c2f:	75 07                	jne    100c38 <alloc_stopProfiling+0x16>
  100c31:	b8 00 00 00 00       	mov    $0x0,%eax
  100c36:	eb 23                	jmp    100c5b <alloc_stopProfiling+0x39>
  100c38:	e8 b2 64 00 00       	call   1070ef <now>
  100c3d:	8b 0d 4c b2 10 00    	mov    0x10b24c,%ecx
  100c43:	89 41 04             	mov    %eax,0x4(%ecx)
  100c46:	a1 4c b2 10 00       	mov    0x10b24c,%eax
  100c4b:	89 45 f4             	mov    %eax,-0xc(%ebp)
  100c4e:	c7 05 4c b2 10 00 00 	movl   $0x0,0x10b24c
  100c55:	00 00 00 
  100c58:	8b 45 f4             	mov    -0xc(%ebp),%eax
  100c5b:	c9                   	leave  
  100c5c:	c3                   	ret    

00100c5d <pmm_init>:
  100c5d:	55                   	push   %ebp
  100c5e:	89 e5                	mov    %esp,%ebp
  100c60:	83 ec 08             	sub    $0x8,%esp
  100c63:	83 7d 08 00          	cmpl   $0x0,0x8(%ebp)
  100c67:	74 06                	je     100c6f <pmm_init+0x12>
  100c69:	83 7d 0c 00          	cmpl   $0x0,0xc(%ebp)
  100c6d:	75 12                	jne    100c81 <pmm_init+0x24>
  100c6f:	83 ec 08             	sub    $0x8,%esp
  100c72:	68 f3 86 10 00       	push   $0x1086f3
  100c77:	6a 02                	push   $0x2
  100c79:	e8 ec fa ff ff       	call   10076a <kernel_panic>
  100c7e:	83 c4 10             	add    $0x10,%esp
  100c81:	8b 45 08             	mov    0x8(%ebp),%eax
  100c84:	a3 58 b2 10 00       	mov    %eax,0x10b258
  100c89:	a1 58 b2 10 00       	mov    0x10b258,%eax
  100c8e:	c1 e8 0c             	shr    $0xc,%eax
  100c91:	a3 60 b2 10 00       	mov    %eax,0x10b260
  100c96:	a1 60 b2 10 00       	mov    0x10b260,%eax
  100c9b:	a3 5c b2 10 00       	mov    %eax,0x10b25c
  100ca0:	8b 45 0c             	mov    0xc(%ebp),%eax
  100ca3:	a3 50 b2 10 00       	mov    %eax,0x10b250
  100ca8:	a1 60 b2 10 00       	mov    0x10b260,%eax
  100cad:	a3 54 b2 10 00       	mov    %eax,0x10b254
  100cb2:	a1 54 b2 10 00       	mov    0x10b254,%eax
  100cb7:	c1 e8 03             	shr    $0x3,%eax
  100cba:	89 c2                	mov    %eax,%edx
  100cbc:	a1 50 b2 10 00       	mov    0x10b250,%eax
  100cc1:	83 ec 04             	sub    $0x4,%esp
  100cc4:	52                   	push   %edx
  100cc5:	6a 0f                	push   $0xf
  100cc7:	50                   	push   %eax
  100cc8:	e8 2c 55 00 00       	call   1061f9 <memset>
  100ccd:	83 c4 10             	add    $0x10,%esp
  100cd0:	b8 00 00 00 00       	mov    $0x0,%eax
  100cd5:	c9                   	leave  
  100cd6:	c3                   	ret    

00100cd7 <pmm_setFrame>:
  100cd7:	55                   	push   %ebp
  100cd8:	89 e5                	mov    %esp,%ebp
  100cda:	56                   	push   %esi
  100cdb:	53                   	push   %ebx
  100cdc:	8b 15 50 b2 10 00    	mov    0x10b250,%edx
  100ce2:	8b 45 08             	mov    0x8(%ebp),%eax
  100ce5:	8d 48 1f             	lea    0x1f(%eax),%ecx
  100ce8:	85 c0                	test   %eax,%eax
  100cea:	0f 48 c1             	cmovs  %ecx,%eax
  100ced:	c1 f8 05             	sar    $0x5,%eax
  100cf0:	89 c3                	mov    %eax,%ebx
  100cf2:	89 d8                	mov    %ebx,%eax
  100cf4:	c1 e0 02             	shl    $0x2,%eax
  100cf7:	01 d0                	add    %edx,%eax
  100cf9:	8b 10                	mov    (%eax),%edx
  100cfb:	8b 45 08             	mov    0x8(%ebp),%eax
  100cfe:	83 e0 1f             	and    $0x1f,%eax
  100d01:	be 01 00 00 00       	mov    $0x1,%esi
  100d06:	89 c1                	mov    %eax,%ecx
  100d08:	d3 e6                	shl    %cl,%esi
  100d0a:	89 f0                	mov    %esi,%eax
  100d0c:	89 c6                	mov    %eax,%esi
  100d0e:	a1 50 b2 10 00       	mov    0x10b250,%eax
  100d13:	89 d9                	mov    %ebx,%ecx
  100d15:	c1 e1 02             	shl    $0x2,%ecx
  100d18:	01 c8                	add    %ecx,%eax
  100d1a:	09 f2                	or     %esi,%edx
  100d1c:	89 10                	mov    %edx,(%eax)
  100d1e:	90                   	nop
  100d1f:	5b                   	pop    %ebx
  100d20:	5e                   	pop    %esi
  100d21:	5d                   	pop    %ebp
  100d22:	c3                   	ret    

00100d23 <pmm_clearFrame>:
  100d23:	55                   	push   %ebp
  100d24:	89 e5                	mov    %esp,%ebp
  100d26:	56                   	push   %esi
  100d27:	53                   	push   %ebx
  100d28:	8b 15 50 b2 10 00    	mov    0x10b250,%edx
  100d2e:	8b 45 08             	mov    0x8(%ebp),%eax
  100d31:	8d 48 1f             	lea    0x1f(%eax),%ecx
  100d34:	85 c0                	test   %eax,%eax
  100d36:	0f 48 c1             	cmovs  %ecx,%eax
  100d39:	c1 f8 05             	sar    $0x5,%eax
  100d3c:	89 c3                	mov    %eax,%ebx
  100d3e:	89 d8                	mov    %ebx,%eax
  100d40:	c1 e0 02             	shl    $0x2,%eax
  100d43:	01 d0                	add    %edx,%eax
  100d45:	8b 10                	mov    (%eax),%edx
  100d47:	8b 45 08             	mov    0x8(%ebp),%eax
  100d4a:	83 e0 1f             	and    $0x1f,%eax
  100d4d:	be 01 00 00 00       	mov    $0x1,%esi
  100d52:	89 c1                	mov    %eax,%ecx
  100d54:	d3 e6                	shl    %cl,%esi
  100d56:	89 f0                	mov    %esi,%eax
  100d58:	f7 d0                	not    %eax
  100d5a:	89 c6                	mov    %eax,%esi
  100d5c:	a1 50 b2 10 00       	mov    0x10b250,%eax
  100d61:	89 d9                	mov    %ebx,%ecx
  100d63:	c1 e1 02             	shl    $0x2,%ecx
  100d66:	01 c8                	add    %ecx,%eax
  100d68:	21 f2                	and    %esi,%edx
  100d6a:	89 10                	mov    %edx,(%eax)
  100d6c:	90                   	nop
  100d6d:	5b                   	pop    %ebx
  100d6e:	5e                   	pop    %esi
  100d6f:	5d                   	pop    %ebp
  100d70:	c3                   	ret    

00100d71 <pmm_testFrame>:
  100d71:	55                   	push   %ebp
  100d72:	89 e5                	mov    %esp,%ebp
  100d74:	53                   	push   %ebx
  100d75:	8b 15 50 b2 10 00    	mov    0x10b250,%edx
  100d7b:	8b 45 08             	mov    0x8(%ebp),%eax
  100d7e:	8d 48 1f             	lea    0x1f(%eax),%ecx
  100d81:	85 c0                	test   %eax,%eax
  100d83:	0f 48 c1             	cmovs  %ecx,%eax
  100d86:	c1 f8 05             	sar    $0x5,%eax
  100d89:	c1 e0 02             	shl    $0x2,%eax
  100d8c:	01 d0                	add    %edx,%eax
  100d8e:	8b 00                	mov    (%eax),%eax
  100d90:	8b 55 08             	mov    0x8(%ebp),%edx
  100d93:	83 e2 1f             	and    $0x1f,%edx
  100d96:	bb 01 00 00 00       	mov    $0x1,%ebx
  100d9b:	89 d1                	mov    %edx,%ecx
  100d9d:	d3 e3                	shl    %cl,%ebx
  100d9f:	89 da                	mov    %ebx,%edx
  100da1:	21 d0                	and    %edx,%eax
  100da3:	8b 5d fc             	mov    -0x4(%ebp),%ebx
  100da6:	c9                   	leave  
  100da7:	c3                   	ret    

00100da8 <pmm_findFirstFrame>:
  100da8:	55                   	push   %ebp
  100da9:	89 e5                	mov    %esp,%ebp
  100dab:	53                   	push   %ebx
  100dac:	83 ec 10             	sub    $0x10,%esp
  100daf:	c7 45 f8 00 00 00 00 	movl   $0x0,-0x8(%ebp)
  100db6:	eb 5d                	jmp    100e15 <pmm_findFirstFrame+0x6d>
  100db8:	a1 50 b2 10 00       	mov    0x10b250,%eax
  100dbd:	8b 55 f8             	mov    -0x8(%ebp),%edx
  100dc0:	c1 e2 02             	shl    $0x2,%edx
  100dc3:	01 d0                	add    %edx,%eax
  100dc5:	8b 00                	mov    (%eax),%eax
  100dc7:	83 f8 ff             	cmp    $0xffffffff,%eax
  100dca:	74 45                	je     100e11 <pmm_findFirstFrame+0x69>
  100dcc:	c7 45 f4 00 00 00 00 	movl   $0x0,-0xc(%ebp)
  100dd3:	eb 36                	jmp    100e0b <pmm_findFirstFrame+0x63>
  100dd5:	a1 50 b2 10 00       	mov    0x10b250,%eax
  100dda:	8b 55 f8             	mov    -0x8(%ebp),%edx
  100ddd:	c1 e2 02             	shl    $0x2,%edx
  100de0:	01 d0                	add    %edx,%eax
  100de2:	8b 10                	mov    (%eax),%edx
  100de4:	8b 45 f4             	mov    -0xc(%ebp),%eax
  100de7:	bb 01 00 00 00       	mov    $0x1,%ebx
  100dec:	89 c1                	mov    %eax,%ecx
  100dee:	d3 e3                	shl    %cl,%ebx
  100df0:	89 d8                	mov    %ebx,%eax
  100df2:	21 d0                	and    %edx,%eax
  100df4:	85 c0                	test   %eax,%eax
  100df6:	75 0f                	jne    100e07 <pmm_findFirstFrame+0x5f>
  100df8:	8b 45 f8             	mov    -0x8(%ebp),%eax
  100dfb:	c1 e0 05             	shl    $0x5,%eax
  100dfe:	89 c2                	mov    %eax,%edx
  100e00:	8b 45 f4             	mov    -0xc(%ebp),%eax
  100e03:	01 d0                	add    %edx,%eax
  100e05:	eb 20                	jmp    100e27 <pmm_findFirstFrame+0x7f>
  100e07:	83 45 f4 01          	addl   $0x1,-0xc(%ebp)
  100e0b:	83 7d f4 1f          	cmpl   $0x1f,-0xc(%ebp)
  100e0f:	76 c4                	jbe    100dd5 <pmm_findFirstFrame+0x2d>
  100e11:	83 45 f8 01          	addl   $0x1,-0x8(%ebp)
  100e15:	a1 54 b2 10 00       	mov    0x10b254,%eax
  100e1a:	c1 e8 05             	shr    $0x5,%eax
  100e1d:	39 45 f8             	cmp    %eax,-0x8(%ebp)
  100e20:	72 96                	jb     100db8 <pmm_findFirstFrame+0x10>
  100e22:	b8 f4 ff ff ff       	mov    $0xfffffff4,%eax
  100e27:	8b 5d fc             	mov    -0x4(%ebp),%ebx
  100e2a:	c9                   	leave  
  100e2b:	c3                   	ret    

00100e2c <pmm_findFirstFrames>:
  100e2c:	55                   	push   %ebp
  100e2d:	89 e5                	mov    %esp,%ebp
  100e2f:	53                   	push   %ebx
  100e30:	83 ec 20             	sub    $0x20,%esp
  100e33:	83 7d 08 00          	cmpl   $0x0,0x8(%ebp)
  100e37:	75 0a                	jne    100e43 <pmm_findFirstFrames+0x17>
  100e39:	b8 00 00 00 00       	mov    $0x0,%eax
  100e3e:	e9 e7 00 00 00       	jmp    100f2a <pmm_findFirstFrames+0xfe>
  100e43:	83 7d 08 01          	cmpl   $0x1,0x8(%ebp)
  100e47:	75 0a                	jne    100e53 <pmm_findFirstFrames+0x27>
  100e49:	e8 5a ff ff ff       	call   100da8 <pmm_findFirstFrame>
  100e4e:	e9 d7 00 00 00       	jmp    100f2a <pmm_findFirstFrames+0xfe>
  100e53:	c7 45 f8 00 00 00 00 	movl   $0x0,-0x8(%ebp)
  100e5a:	e9 b5 00 00 00       	jmp    100f14 <pmm_findFirstFrames+0xe8>
  100e5f:	a1 50 b2 10 00       	mov    0x10b250,%eax
  100e64:	8b 55 f8             	mov    -0x8(%ebp),%edx
  100e67:	c1 e2 02             	shl    $0x2,%edx
  100e6a:	01 d0                	add    %edx,%eax
  100e6c:	8b 00                	mov    (%eax),%eax
  100e6e:	83 f8 ff             	cmp    $0xffffffff,%eax
  100e71:	0f 84 99 00 00 00    	je     100f10 <pmm_findFirstFrames+0xe4>
  100e77:	c7 45 f4 00 00 00 00 	movl   $0x0,-0xc(%ebp)
  100e7e:	e9 83 00 00 00       	jmp    100f06 <pmm_findFirstFrames+0xda>
  100e83:	a1 50 b2 10 00       	mov    0x10b250,%eax
  100e88:	8b 55 f8             	mov    -0x8(%ebp),%edx
  100e8b:	c1 e2 02             	shl    $0x2,%edx
  100e8e:	01 d0                	add    %edx,%eax
  100e90:	8b 10                	mov    (%eax),%edx
  100e92:	8b 45 f4             	mov    -0xc(%ebp),%eax
  100e95:	bb 01 00 00 00       	mov    $0x1,%ebx
  100e9a:	89 c1                	mov    %eax,%ecx
  100e9c:	d3 e3                	shl    %cl,%ebx
  100e9e:	89 d8                	mov    %ebx,%eax
  100ea0:	21 d0                	and    %edx,%eax
  100ea2:	85 c0                	test   %eax,%eax
  100ea4:	75 5c                	jne    100f02 <pmm_findFirstFrames+0xd6>
  100ea6:	8b 45 f8             	mov    -0x8(%ebp),%eax
  100ea9:	c1 e0 05             	shl    $0x5,%eax
  100eac:	89 c2                	mov    %eax,%edx
  100eae:	8b 45 f4             	mov    -0xc(%ebp),%eax
  100eb1:	01 d0                	add    %edx,%eax
  100eb3:	89 45 e8             	mov    %eax,-0x18(%ebp)
  100eb6:	c7 45 f0 00 00 00 00 	movl   $0x0,-0x10(%ebp)
  100ebd:	c7 45 ec 00 00 00 00 	movl   $0x0,-0x14(%ebp)
  100ec4:	eb 34                	jmp    100efa <pmm_findFirstFrames+0xce>
  100ec6:	8b 55 e8             	mov    -0x18(%ebp),%edx
  100ec9:	8b 45 ec             	mov    -0x14(%ebp),%eax
  100ecc:	01 d0                	add    %edx,%eax
  100ece:	50                   	push   %eax
  100ecf:	e8 9d fe ff ff       	call   100d71 <pmm_testFrame>
  100ed4:	83 c4 04             	add    $0x4,%esp
  100ed7:	85 c0                	test   %eax,%eax
  100ed9:	75 04                	jne    100edf <pmm_findFirstFrames+0xb3>
  100edb:	83 45 f0 01          	addl   $0x1,-0x10(%ebp)
  100edf:	8b 45 f0             	mov    -0x10(%ebp),%eax
  100ee2:	3b 45 08             	cmp    0x8(%ebp),%eax
  100ee5:	75 0f                	jne    100ef6 <pmm_findFirstFrames+0xca>
  100ee7:	8b 45 f8             	mov    -0x8(%ebp),%eax
  100eea:	c1 e0 05             	shl    $0x5,%eax
  100eed:	89 c2                	mov    %eax,%edx
  100eef:	8b 45 f4             	mov    -0xc(%ebp),%eax
  100ef2:	01 d0                	add    %edx,%eax
  100ef4:	eb 34                	jmp    100f2a <pmm_findFirstFrames+0xfe>
  100ef6:	83 45 ec 01          	addl   $0x1,-0x14(%ebp)
  100efa:	8b 45 ec             	mov    -0x14(%ebp),%eax
  100efd:	3b 45 08             	cmp    0x8(%ebp),%eax
  100f00:	72 c4                	jb     100ec6 <pmm_findFirstFrames+0x9a>
  100f02:	83 45 f4 01          	addl   $0x1,-0xc(%ebp)
  100f06:	83 7d f4 1f          	cmpl   $0x1f,-0xc(%ebp)
  100f0a:	0f 86 73 ff ff ff    	jbe    100e83 <pmm_findFirstFrames+0x57>
  100f10:	83 45 f8 01          	addl   $0x1,-0x8(%ebp)
  100f14:	a1 54 b2 10 00       	mov    0x10b254,%eax
  100f19:	c1 e8 05             	shr    $0x5,%eax
  100f1c:	39 45 f8             	cmp    %eax,-0x8(%ebp)
  100f1f:	0f 82 3a ff ff ff    	jb     100e5f <pmm_findFirstFrames+0x33>
  100f25:	b8 f4 ff ff ff       	mov    $0xfffffff4,%eax
  100f2a:	8b 5d fc             	mov    -0x4(%ebp),%ebx
  100f2d:	c9                   	leave  
  100f2e:	c3                   	ret    

00100f2f <pmm_initializeRegion>:
  100f2f:	55                   	push   %ebp
  100f30:	89 e5                	mov    %esp,%ebp
  100f32:	83 ec 10             	sub    $0x10,%esp
  100f35:	83 7d 0c 00          	cmpl   $0x0,0xc(%ebp)
  100f39:	74 4c                	je     100f87 <pmm_initializeRegion+0x58>
  100f3b:	83 7d 08 00          	cmpl   $0x0,0x8(%ebp)
  100f3f:	74 08                	je     100f49 <pmm_initializeRegion+0x1a>
  100f41:	8b 45 08             	mov    0x8(%ebp),%eax
  100f44:	c1 e8 0c             	shr    $0xc,%eax
  100f47:	eb 05                	jmp    100f4e <pmm_initializeRegion+0x1f>
  100f49:	b8 00 00 00 00       	mov    $0x0,%eax
  100f4e:	89 45 fc             	mov    %eax,-0x4(%ebp)
  100f51:	8b 45 0c             	mov    0xc(%ebp),%eax
  100f54:	c1 e8 0c             	shr    $0xc,%eax
  100f57:	89 45 f8             	mov    %eax,-0x8(%ebp)
  100f5a:	eb 23                	jmp    100f7f <pmm_initializeRegion+0x50>
  100f5c:	8b 45 fc             	mov    -0x4(%ebp),%eax
  100f5f:	8d 50 01             	lea    0x1(%eax),%edx
  100f62:	89 55 fc             	mov    %edx,-0x4(%ebp)
  100f65:	50                   	push   %eax
  100f66:	e8 b8 fd ff ff       	call   100d23 <pmm_clearFrame>
  100f6b:	83 c4 04             	add    $0x4,%esp
  100f6e:	a1 5c b2 10 00       	mov    0x10b25c,%eax
  100f73:	83 e8 01             	sub    $0x1,%eax
  100f76:	a3 5c b2 10 00       	mov    %eax,0x10b25c
  100f7b:	83 6d f8 01          	subl   $0x1,-0x8(%ebp)
  100f7f:	83 7d f8 00          	cmpl   $0x0,-0x8(%ebp)
  100f83:	7f d7                	jg     100f5c <pmm_initializeRegion+0x2d>
  100f85:	eb 01                	jmp    100f88 <pmm_initializeRegion+0x59>
  100f87:	90                   	nop
  100f88:	c9                   	leave  
  100f89:	c3                   	ret    

00100f8a <pmm_deinitializeRegion>:
  100f8a:	55                   	push   %ebp
  100f8b:	89 e5                	mov    %esp,%ebp
  100f8d:	83 ec 10             	sub    $0x10,%esp
  100f90:	83 7d 0c 00          	cmpl   $0x0,0xc(%ebp)
  100f94:	74 4c                	je     100fe2 <pmm_deinitializeRegion+0x58>
  100f96:	83 7d 08 00          	cmpl   $0x0,0x8(%ebp)
  100f9a:	74 08                	je     100fa4 <pmm_deinitializeRegion+0x1a>
  100f9c:	8b 45 08             	mov    0x8(%ebp),%eax
  100f9f:	c1 e8 0c             	shr    $0xc,%eax
  100fa2:	eb 05                	jmp    100fa9 <pmm_deinitializeRegion+0x1f>
  100fa4:	b8 00 00 00 00       	mov    $0x0,%eax
  100fa9:	89 45 fc             	mov    %eax,-0x4(%ebp)
  100fac:	8b 45 0c             	mov    0xc(%ebp),%eax
  100faf:	c1 e8 0c             	shr    $0xc,%eax
  100fb2:	89 45 f8             	mov    %eax,-0x8(%ebp)
  100fb5:	eb 23                	jmp    100fda <pmm_deinitializeRegion+0x50>
  100fb7:	8b 45 fc             	mov    -0x4(%ebp),%eax
  100fba:	8d 50 01             	lea    0x1(%eax),%edx
  100fbd:	89 55 fc             	mov    %edx,-0x4(%ebp)
  100fc0:	50                   	push   %eax
  100fc1:	e8 11 fd ff ff       	call   100cd7 <pmm_setFrame>
  100fc6:	83 c4 04             	add    $0x4,%esp
  100fc9:	a1 5c b2 10 00       	mov    0x10b25c,%eax
  100fce:	83 c0 01             	add    $0x1,%eax
  100fd1:	a3 5c b2 10 00       	mov    %eax,0x10b25c
  100fd6:	83 6d f8 01          	subl   $0x1,-0x8(%ebp)
  100fda:	83 7d f8 00          	cmpl   $0x0,-0x8(%ebp)
  100fde:	7f d7                	jg     100fb7 <pmm_deinitializeRegion+0x2d>
  100fe0:	eb 01                	jmp    100fe3 <pmm_deinitializeRegion+0x59>
  100fe2:	90                   	nop
  100fe3:	c9                   	leave  
  100fe4:	c3                   	ret    

00100fe5 <pmm_allocateBlock>:
  100fe5:	55                   	push   %ebp
  100fe6:	89 e5                	mov    %esp,%ebp
  100fe8:	83 ec 18             	sub    $0x18,%esp
  100feb:	8b 15 60 b2 10 00    	mov    0x10b260,%edx
  100ff1:	a1 5c b2 10 00       	mov    0x10b25c,%eax
  100ff6:	39 c2                	cmp    %eax,%edx
  100ff8:	74 2e                	je     101028 <pmm_allocateBlock+0x43>
  100ffa:	e8 a9 fd ff ff       	call   100da8 <pmm_findFirstFrame>
  100fff:	89 45 f4             	mov    %eax,-0xc(%ebp)
  101002:	83 7d f4 f4          	cmpl   $0xfffffff4,-0xc(%ebp)
  101006:	74 23                	je     10102b <pmm_allocateBlock+0x46>
  101008:	ff 75 f4             	push   -0xc(%ebp)
  10100b:	e8 c7 fc ff ff       	call   100cd7 <pmm_setFrame>
  101010:	83 c4 04             	add    $0x4,%esp
  101013:	a1 5c b2 10 00       	mov    0x10b25c,%eax
  101018:	83 c0 01             	add    $0x1,%eax
  10101b:	a3 5c b2 10 00       	mov    %eax,0x10b25c
  101020:	8b 45 f4             	mov    -0xc(%ebp),%eax
  101023:	c1 e0 0c             	shl    $0xc,%eax
  101026:	eb 16                	jmp    10103e <pmm_allocateBlock+0x59>
  101028:	90                   	nop
  101029:	eb 01                	jmp    10102c <pmm_allocateBlock+0x47>
  10102b:	90                   	nop
  10102c:	83 ec 08             	sub    $0x8,%esp
  10102f:	68 f3 86 10 00       	push   $0x1086f3
  101034:	6a 03                	push   $0x3
  101036:	e8 2f f7 ff ff       	call   10076a <kernel_panic>
  10103b:	83 c4 10             	add    $0x10,%esp
  10103e:	c9                   	leave  
  10103f:	c3                   	ret    

00101040 <pmm_freeBlock>:
  101040:	55                   	push   %ebp
  101041:	89 e5                	mov    %esp,%ebp
  101043:	83 ec 10             	sub    $0x10,%esp
  101046:	8b 45 08             	mov    0x8(%ebp),%eax
  101049:	25 ff 0f 00 00       	and    $0xfff,%eax
  10104e:	85 c0                	test   %eax,%eax
  101050:	75 30                	jne    101082 <pmm_freeBlock+0x42>
  101052:	83 7d 08 00          	cmpl   $0x0,0x8(%ebp)
  101056:	74 08                	je     101060 <pmm_freeBlock+0x20>
  101058:	8b 45 08             	mov    0x8(%ebp),%eax
  10105b:	c1 e8 0c             	shr    $0xc,%eax
  10105e:	eb 05                	jmp    101065 <pmm_freeBlock+0x25>
  101060:	b8 00 00 00 00       	mov    $0x0,%eax
  101065:	89 45 fc             	mov    %eax,-0x4(%ebp)
  101068:	ff 75 fc             	push   -0x4(%ebp)
  10106b:	e8 b3 fc ff ff       	call   100d23 <pmm_clearFrame>
  101070:	83 c4 04             	add    $0x4,%esp
  101073:	a1 5c b2 10 00       	mov    0x10b25c,%eax
  101078:	83 e8 01             	sub    $0x1,%eax
  10107b:	a3 5c b2 10 00       	mov    %eax,0x10b25c
  101080:	eb 01                	jmp    101083 <pmm_freeBlock+0x43>
  101082:	90                   	nop
  101083:	c9                   	leave  
  101084:	c3                   	ret    

00101085 <pmm_allocateBlocks>:
  101085:	55                   	push   %ebp
  101086:	89 e5                	mov    %esp,%ebp
  101088:	83 ec 18             	sub    $0x18,%esp
  10108b:	83 7d 08 00          	cmpl   $0x0,0x8(%ebp)
  10108f:	75 12                	jne    1010a3 <pmm_allocateBlocks+0x1e>
  101091:	83 ec 08             	sub    $0x8,%esp
  101094:	68 f3 86 10 00       	push   $0x1086f3
  101099:	6a 02                	push   $0x2
  10109b:	e8 ca f6 ff ff       	call   10076a <kernel_panic>
  1010a0:	83 c4 10             	add    $0x10,%esp
  1010a3:	8b 15 60 b2 10 00    	mov    0x10b260,%edx
  1010a9:	a1 5c b2 10 00       	mov    0x10b25c,%eax
  1010ae:	29 c2                	sub    %eax,%edx
  1010b0:	39 55 08             	cmp    %edx,0x8(%ebp)
  1010b3:	72 12                	jb     1010c7 <pmm_allocateBlocks+0x42>
  1010b5:	83 ec 08             	sub    $0x8,%esp
  1010b8:	68 f3 86 10 00       	push   $0x1086f3
  1010bd:	6a 03                	push   $0x3
  1010bf:	e8 a6 f6 ff ff       	call   10076a <kernel_panic>
  1010c4:	83 c4 10             	add    $0x10,%esp
  1010c7:	83 ec 0c             	sub    $0xc,%esp
  1010ca:	ff 75 08             	push   0x8(%ebp)
  1010cd:	e8 5a fd ff ff       	call   100e2c <pmm_findFirstFrames>
  1010d2:	83 c4 10             	add    $0x10,%esp
  1010d5:	89 45 f0             	mov    %eax,-0x10(%ebp)
  1010d8:	83 7d f0 f4          	cmpl   $0xfffffff4,-0x10(%ebp)
  1010dc:	75 12                	jne    1010f0 <pmm_allocateBlocks+0x6b>
  1010de:	83 ec 08             	sub    $0x8,%esp
  1010e1:	68 f3 86 10 00       	push   $0x1086f3
  1010e6:	6a 03                	push   $0x3
  1010e8:	e8 7d f6 ff ff       	call   10076a <kernel_panic>
  1010ed:	83 c4 10             	add    $0x10,%esp
  1010f0:	c7 45 f4 00 00 00 00 	movl   $0x0,-0xc(%ebp)
  1010f7:	eb 18                	jmp    101111 <pmm_allocateBlocks+0x8c>
  1010f9:	8b 55 f0             	mov    -0x10(%ebp),%edx
  1010fc:	8b 45 f4             	mov    -0xc(%ebp),%eax
  1010ff:	01 d0                	add    %edx,%eax
  101101:	83 ec 0c             	sub    $0xc,%esp
  101104:	50                   	push   %eax
  101105:	e8 cd fb ff ff       	call   100cd7 <pmm_setFrame>
  10110a:	83 c4 10             	add    $0x10,%esp
  10110d:	83 45 f4 01          	addl   $0x1,-0xc(%ebp)
  101111:	8b 45 f4             	mov    -0xc(%ebp),%eax
  101114:	3b 45 08             	cmp    0x8(%ebp),%eax
  101117:	72 e0                	jb     1010f9 <pmm_allocateBlocks+0x74>
  101119:	8b 15 5c b2 10 00    	mov    0x10b25c,%edx
  10111f:	8b 45 08             	mov    0x8(%ebp),%eax
  101122:	01 d0                	add    %edx,%eax
  101124:	a3 5c b2 10 00       	mov    %eax,0x10b25c
  101129:	8b 45 f0             	mov    -0x10(%ebp),%eax
  10112c:	c1 e0 0c             	shl    $0xc,%eax
  10112f:	c9                   	leave  
  101130:	c3                   	ret    

00101131 <pmm_freeBlocks>:
  101131:	55                   	push   %ebp
  101132:	89 e5                	mov    %esp,%ebp
  101134:	83 ec 10             	sub    $0x10,%esp
  101137:	83 7d 0c 00          	cmpl   $0x0,0xc(%ebp)
  10113b:	74 4b                	je     101188 <pmm_freeBlocks+0x57>
  10113d:	83 7d 08 00          	cmpl   $0x0,0x8(%ebp)
  101141:	74 08                	je     10114b <pmm_freeBlocks+0x1a>
  101143:	8b 45 08             	mov    0x8(%ebp),%eax
  101146:	c1 e8 0c             	shr    $0xc,%eax
  101149:	eb 05                	jmp    101150 <pmm_freeBlocks+0x1f>
  10114b:	b8 00 00 00 00       	mov    $0x0,%eax
  101150:	89 45 f8             	mov    %eax,-0x8(%ebp)
  101153:	c7 45 fc 00 00 00 00 	movl   $0x0,-0x4(%ebp)
  10115a:	eb 15                	jmp    101171 <pmm_freeBlocks+0x40>
  10115c:	8b 55 f8             	mov    -0x8(%ebp),%edx
  10115f:	8b 45 fc             	mov    -0x4(%ebp),%eax
  101162:	01 d0                	add    %edx,%eax
  101164:	50                   	push   %eax
  101165:	e8 b9 fb ff ff       	call   100d23 <pmm_clearFrame>
  10116a:	83 c4 04             	add    $0x4,%esp
  10116d:	83 45 fc 01          	addl   $0x1,-0x4(%ebp)
  101171:	8b 45 fc             	mov    -0x4(%ebp),%eax
  101174:	3b 45 0c             	cmp    0xc(%ebp),%eax
  101177:	72 e3                	jb     10115c <pmm_freeBlocks+0x2b>
  101179:	a1 5c b2 10 00       	mov    0x10b25c,%eax
  10117e:	2b 45 0c             	sub    0xc(%ebp),%eax
  101181:	a3 5c b2 10 00       	mov    %eax,0x10b25c
  101186:	eb 01                	jmp    101189 <pmm_freeBlocks+0x58>
  101188:	90                   	nop
  101189:	c9                   	leave  
  10118a:	c3                   	ret    

0010118b <pmm_getPhysicalMemorySize>:
  10118b:	55                   	push   %ebp
  10118c:	89 e5                	mov    %esp,%ebp
  10118e:	a1 58 b2 10 00       	mov    0x10b258,%eax
  101193:	5d                   	pop    %ebp
  101194:	c3                   	ret    

00101195 <pmm_getMaximumBlocks>:
  101195:	55                   	push   %ebp
  101196:	89 e5                	mov    %esp,%ebp
  101198:	a1 60 b2 10 00       	mov    0x10b260,%eax
  10119d:	5d                   	pop    %ebp
  10119e:	c3                   	ret    

0010119f <pmm_getUsedBlocks>:
  10119f:	55                   	push   %ebp
  1011a0:	89 e5                	mov    %esp,%ebp
  1011a2:	a1 5c b2 10 00       	mov    0x10b25c,%eax
  1011a7:	5d                   	pop    %ebp
  1011a8:	c3                   	ret    

001011a9 <pmm_getFreeBlocks>:
  1011a9:	55                   	push   %ebp
  1011aa:	89 e5                	mov    %esp,%ebp
  1011ac:	8b 15 60 b2 10 00    	mov    0x10b260,%edx
  1011b2:	a1 5c b2 10 00       	mov    0x10b25c,%eax
  1011b7:	29 c2                	sub    %eax,%edx
  1011b9:	89 d0                	mov    %edx,%eax
  1011bb:	5d                   	pop    %ebp
  1011bc:	c3                   	ret    

001011bd <spinlock_create>:
  1011bd:	55                   	push   %ebp
  1011be:	89 e5                	mov    %esp,%ebp
  1011c0:	83 ec 18             	sub    $0x18,%esp
  1011c3:	83 ec 0c             	sub    $0xc,%esp
  1011c6:	6a 0c                	push   $0xc
  1011c8:	e8 41 f7 ff ff       	call   10090e <kmalloc>
  1011cd:	83 c4 10             	add    $0x10,%esp
  1011d0:	89 45 f4             	mov    %eax,-0xc(%ebp)
  1011d3:	8b 45 f4             	mov    -0xc(%ebp),%eax
  1011d6:	c7 40 04 00 00 00 00 	movl   $0x0,0x4(%eax)
  1011dd:	8b 45 f4             	mov    -0xc(%ebp),%eax
  1011e0:	8b 55 08             	mov    0x8(%ebp),%edx
  1011e3:	89 10                	mov    %edx,(%eax)
  1011e5:	8b 45 f4             	mov    -0xc(%ebp),%eax
  1011e8:	83 c0 08             	add    $0x8,%eax
  1011eb:	ba 00 00 00 00       	mov    $0x0,%edx
  1011f0:	86 10                	xchg   %dl,(%eax)
  1011f2:	8b 45 f4             	mov    -0xc(%ebp),%eax
  1011f5:	c9                   	leave  
  1011f6:	c3                   	ret    

001011f7 <spinlock_destroy>:
  1011f7:	55                   	push   %ebp
  1011f8:	89 e5                	mov    %esp,%ebp
  1011fa:	83 ec 08             	sub    $0x8,%esp
  1011fd:	83 ec 0c             	sub    $0xc,%esp
  101200:	ff 75 08             	push   0x8(%ebp)
  101203:	e8 2b f9 ff ff       	call   100b33 <kfree>
  101208:	83 c4 10             	add    $0x10,%esp
  10120b:	90                   	nop
  10120c:	c9                   	leave  
  10120d:	c3                   	ret    

0010120e <spinlock_acquire>:
  10120e:	55                   	push   %ebp
  10120f:	89 e5                	mov    %esp,%ebp
  101211:	90                   	nop
  101212:	8b 45 08             	mov    0x8(%ebp),%eax
  101215:	8d 50 08             	lea    0x8(%eax),%edx
  101218:	b8 01 00 00 00       	mov    $0x1,%eax
  10121d:	86 02                	xchg   %al,(%edx)
  10121f:	84 c0                	test   %al,%al
  101221:	75 ef                	jne    101212 <spinlock_acquire+0x4>
  101223:	90                   	nop
  101224:	90                   	nop
  101225:	5d                   	pop    %ebp
  101226:	c3                   	ret    

00101227 <spinlock_release>:
  101227:	55                   	push   %ebp
  101228:	89 e5                	mov    %esp,%ebp
  10122a:	8b 45 08             	mov    0x8(%ebp),%eax
  10122d:	83 c0 08             	add    $0x8,%eax
  101230:	ba 00 00 00 00       	mov    $0x0,%edx
  101235:	88 10                	mov    %dl,(%eax)
  101237:	90                   	nop
  101238:	5d                   	pop    %ebp
  101239:	c3                   	ret    

0010123a <alloc_getInfo>:
  10123a:	55                   	push   %ebp
  10123b:	89 e5                	mov    %esp,%ebp
  10123d:	53                   	push   %ebx
  10123e:	83 ec 04             	sub    $0x4,%esp
  101241:	a1 80 b2 10 00       	mov    0x10b280,%eax
  101246:	85 c0                	test   %eax,%eax
  101248:	0f 85 84 00 00 00    	jne    1012d2 <alloc_getInfo+0x98>
  10124e:	83 ec 0c             	sub    $0xc,%esp
  101251:	68 90 00 00 00       	push   $0x90
  101256:	e8 b3 f6 ff ff       	call   10090e <kmalloc>
  10125b:	83 c4 10             	add    $0x10,%esp
  10125e:	a3 80 b2 10 00       	mov    %eax,0x10b280
  101263:	a1 80 b2 10 00       	mov    0x10b280,%eax
  101268:	83 ec 04             	sub    $0x4,%esp
  10126b:	6a 7f                	push   $0x7f
  10126d:	68 fc 86 10 00       	push   $0x1086fc
  101272:	50                   	push   %eax
  101273:	e8 ae 4f 00 00       	call   106226 <strncpy>
  101278:	83 c4 10             	add    $0x10,%esp
  10127b:	8b 1d 80 b2 10 00    	mov    0x10b280,%ebx
  101281:	a1 80 b2 10 00       	mov    0x10b280,%eax
  101286:	83 ec 0c             	sub    $0xc,%esp
  101289:	50                   	push   %eax
  10128a:	e8 fa 4f 00 00       	call   106289 <strlen>
  10128f:	83 c4 10             	add    $0x10,%esp
  101292:	c6 04 03 00          	movb   $0x0,(%ebx,%eax,1)
  101296:	a1 80 b2 10 00       	mov    0x10b280,%eax
  10129b:	c7 80 80 00 00 00 01 	movl   $0x1,0x80(%eax)
  1012a2:	00 00 00 
  1012a5:	a1 80 b2 10 00       	mov    0x10b280,%eax
  1012aa:	c7 80 84 00 00 00 00 	movl   $0x0,0x84(%eax)
  1012b1:	00 00 00 
  1012b4:	a1 80 b2 10 00       	mov    0x10b280,%eax
  1012b9:	c7 80 88 00 00 00 01 	movl   $0x1,0x88(%eax)
  1012c0:	00 00 00 
  1012c3:	a1 80 b2 10 00       	mov    0x10b280,%eax
  1012c8:	c7 80 8c 00 00 00 01 	movl   $0x1,0x8c(%eax)
  1012cf:	00 00 00 
  1012d2:	a1 80 b2 10 00       	mov    0x10b280,%eax
  1012d7:	8b 5d fc             	mov    -0x4(%ebp),%ebx
  1012da:	c9                   	leave  
  1012db:	c3                   	ret    

001012dc <__assert_fail>:
  1012dc:	55                   	push   %ebp
  1012dd:	89 e5                	mov    %esp,%ebp
  1012df:	83 ec 08             	sub    $0x8,%esp
  1012e2:	83 ec 0c             	sub    $0xc,%esp
  1012e5:	6a 01                	push   $0x1
  1012e7:	e8 6b f5 ff ff       	call   100857 <kernel_panic_prepare>
  1012ec:	83 c4 10             	add    $0x10,%esp
  1012ef:	83 ec 04             	sub    $0x4,%esp
  1012f2:	ff 75 10             	push   0x10(%ebp)
  1012f5:	ff 75 0c             	push   0xc(%ebp)
  1012f8:	ff 75 08             	push   0x8(%ebp)
  1012fb:	68 08 87 10 00       	push   $0x108708
  101300:	6a 00                	push   $0x0
  101302:	6a 66                	push   $0x66
  101304:	68 38 87 10 00       	push   $0x108738
  101309:	e8 94 f1 ff ff       	call   1004a2 <dprintf_internal>
  10130e:	83 c4 20             	add    $0x20,%esp
  101311:	68 58 87 10 00       	push   $0x108758
  101316:	6a 00                	push   $0x0
  101318:	6a 67                	push   $0x67
  10131a:	68 38 87 10 00       	push   $0x108738
  10131f:	e8 7e f1 ff ff       	call   1004a2 <dprintf_internal>
  101324:	83 c4 10             	add    $0x10,%esp
  101327:	e8 bb f5 ff ff       	call   1008e7 <kernel_panic_finalize>
  10132c:	90                   	nop
  10132d:	c9                   	leave  
  10132e:	c3                   	ret    

0010132f <alloc_malloc>:
  10132f:	55                   	push   %ebp
  101330:	89 e5                	mov    %esp,%ebp
  101332:	83 ec 18             	sub    $0x18,%esp
  101335:	83 ec 0c             	sub    $0xc,%esp
  101338:	ff 75 08             	push   0x8(%ebp)
  10133b:	e8 d9 09 00 00       	call   101d19 <klmalloc>
  101340:	83 c4 10             	add    $0x10,%esp
  101343:	89 45 f4             	mov    %eax,-0xc(%ebp)
  101346:	8b 45 f4             	mov    -0xc(%ebp),%eax
  101349:	c9                   	leave  
  10134a:	c3                   	ret    

0010134b <alloc_realloc>:
  10134b:	55                   	push   %ebp
  10134c:	89 e5                	mov    %esp,%ebp
  10134e:	83 ec 18             	sub    $0x18,%esp
  101351:	83 ec 08             	sub    $0x8,%esp
  101354:	ff 75 0c             	push   0xc(%ebp)
  101357:	ff 75 08             	push   0x8(%ebp)
  10135a:	e8 23 0f 00 00       	call   102282 <klrealloc>
  10135f:	83 c4 10             	add    $0x10,%esp
  101362:	89 45 f4             	mov    %eax,-0xc(%ebp)
  101365:	8b 45 f4             	mov    -0xc(%ebp),%eax
  101368:	c9                   	leave  
  101369:	c3                   	ret    

0010136a <alloc_calloc>:
  10136a:	55                   	push   %ebp
  10136b:	89 e5                	mov    %esp,%ebp
  10136d:	83 ec 18             	sub    $0x18,%esp
  101370:	83 ec 08             	sub    $0x8,%esp
  101373:	ff 75 0c             	push   0xc(%ebp)
  101376:	ff 75 08             	push   0x8(%ebp)
  101379:	e8 07 10 00 00       	call   102385 <klcalloc>
  10137e:	83 c4 10             	add    $0x10,%esp
  101381:	89 45 f4             	mov    %eax,-0xc(%ebp)
  101384:	8b 45 f4             	mov    -0xc(%ebp),%eax
  101387:	c9                   	leave  
  101388:	c3                   	ret    

00101389 <alloc_valloc>:
  101389:	55                   	push   %ebp
  10138a:	89 e5                	mov    %esp,%ebp
  10138c:	83 ec 18             	sub    $0x18,%esp
  10138f:	83 ec 0c             	sub    $0xc,%esp
  101392:	ff 75 08             	push   0x8(%ebp)
  101395:	e8 90 0e 00 00       	call   10222a <klvalloc>
  10139a:	83 c4 10             	add    $0x10,%esp
  10139d:	89 45 f4             	mov    %eax,-0xc(%ebp)
  1013a0:	8b 45 f4             	mov    -0xc(%ebp),%eax
  1013a3:	c9                   	leave  
  1013a4:	c3                   	ret    

001013a5 <alloc_free>:
  1013a5:	55                   	push   %ebp
  1013a6:	89 e5                	mov    %esp,%ebp
  1013a8:	83 ec 08             	sub    $0x8,%esp
  1013ab:	83 ec 0c             	sub    $0xc,%esp
  1013ae:	ff 75 08             	push   0x8(%ebp)
  1013b1:	e8 d4 0c 00 00       	call   10208a <klfree>
  1013b6:	83 c4 10             	add    $0x10,%esp
  1013b9:	90                   	nop
  1013ba:	c9                   	leave  
  1013bb:	c3                   	ret    

001013bc <klmalloc_skip_rand>:
  1013bc:	55                   	push   %ebp
  1013bd:	89 e5                	mov    %esp,%ebp
  1013bf:	83 ec 10             	sub    $0x10,%esp
  1013c2:	a1 5c a0 10 00       	mov    0x10a05c,%eax
  1013c7:	c1 e0 0b             	shl    $0xb,%eax
  1013ca:	89 c2                	mov    %eax,%edx
  1013cc:	a1 5c a0 10 00       	mov    0x10a05c,%eax
  1013d1:	31 d0                	xor    %edx,%eax
  1013d3:	89 45 fc             	mov    %eax,-0x4(%ebp)
  1013d6:	a1 60 a0 10 00       	mov    0x10a060,%eax
  1013db:	a3 5c a0 10 00       	mov    %eax,0x10a05c
  1013e0:	a1 64 a0 10 00       	mov    0x10a064,%eax
  1013e5:	a3 60 a0 10 00       	mov    %eax,0x10a060
  1013ea:	a1 68 a0 10 00       	mov    0x10a068,%eax
  1013ef:	a3 64 a0 10 00       	mov    %eax,0x10a064
  1013f4:	a1 68 a0 10 00       	mov    0x10a068,%eax
  1013f9:	c1 e8 13             	shr    $0x13,%eax
  1013fc:	89 c2                	mov    %eax,%edx
  1013fe:	a1 68 a0 10 00       	mov    0x10a068,%eax
  101403:	31 d0                	xor    %edx,%eax
  101405:	33 45 fc             	xor    -0x4(%ebp),%eax
  101408:	8b 55 fc             	mov    -0x4(%ebp),%edx
  10140b:	c1 ea 08             	shr    $0x8,%edx
  10140e:	31 d0                	xor    %edx,%eax
  101410:	a3 68 a0 10 00       	mov    %eax,0x10a068
  101415:	a1 68 a0 10 00       	mov    0x10a068,%eax
  10141a:	c9                   	leave  
  10141b:	c3                   	ret    

0010141c <klmalloc_skip_list_findbest>:
  10141c:	55                   	push   %ebp
  10141d:	89 e5                	mov    %esp,%ebp
  10141f:	83 ec 18             	sub    $0x18,%esp
  101422:	c7 45 f4 e0 b2 10 00 	movl   $0x10b2e0,-0xc(%ebp)
  101429:	a1 10 b3 10 00       	mov    0x10b310,%eax
  10142e:	89 45 f0             	mov    %eax,-0x10(%ebp)
  101431:	eb 6c                	jmp    10149f <klmalloc_skip_list_findbest+0x83>
  101433:	8b 45 f4             	mov    -0xc(%ebp),%eax
  101436:	8b 55 f0             	mov    -0x10(%ebp),%edx
  101439:	83 c2 04             	add    $0x4,%edx
  10143c:	8b 44 90 04          	mov    0x4(%eax,%edx,4),%eax
  101440:	89 45 f4             	mov    %eax,-0xc(%ebp)
  101443:	83 7d f4 00          	cmpl   $0x0,-0xc(%ebp)
  101447:	74 2c                	je     101475 <klmalloc_skip_list_findbest+0x59>
  101449:	8b 45 f4             	mov    -0xc(%ebp),%eax
  10144c:	8b 40 08             	mov    0x8(%eax),%eax
  10144f:	83 c0 30             	add    $0x30,%eax
  101452:	25 ff 0f 00 00       	and    $0xfff,%eax
  101457:	85 c0                	test   %eax,%eax
  101459:	74 1a                	je     101475 <klmalloc_skip_list_findbest+0x59>
  10145b:	83 ec 04             	sub    $0x4,%esp
  10145e:	68 80 87 10 00       	push   $0x108780
  101463:	68 38 01 00 00       	push   $0x138
  101468:	68 38 87 10 00       	push   $0x108738
  10146d:	e8 6a fe ff ff       	call   1012dc <__assert_fail>
  101472:	83 c4 10             	add    $0x10,%esp
  101475:	8b 45 f4             	mov    -0xc(%ebp),%eax
  101478:	8b 55 f0             	mov    -0x10(%ebp),%edx
  10147b:	83 c2 04             	add    $0x4,%edx
  10147e:	8b 44 90 04          	mov    0x4(%eax,%edx,4),%eax
  101482:	85 c0                	test   %eax,%eax
  101484:	74 15                	je     10149b <klmalloc_skip_list_findbest+0x7f>
  101486:	8b 45 f4             	mov    -0xc(%ebp),%eax
  101489:	8b 55 f0             	mov    -0x10(%ebp),%edx
  10148c:	83 c2 04             	add    $0x4,%edx
  10148f:	8b 44 90 04          	mov    0x4(%eax,%edx,4),%eax
  101493:	8b 40 08             	mov    0x8(%eax),%eax
  101496:	3b 45 08             	cmp    0x8(%ebp),%eax
  101499:	72 98                	jb     101433 <klmalloc_skip_list_findbest+0x17>
  10149b:	83 6d f0 01          	subl   $0x1,-0x10(%ebp)
  10149f:	83 7d f0 00          	cmpl   $0x0,-0x10(%ebp)
  1014a3:	79 d0                	jns    101475 <klmalloc_skip_list_findbest+0x59>
  1014a5:	8b 45 f4             	mov    -0xc(%ebp),%eax
  1014a8:	8b 40 14             	mov    0x14(%eax),%eax
  1014ab:	89 45 f4             	mov    %eax,-0xc(%ebp)
  1014ae:	83 7d f4 00          	cmpl   $0x0,-0xc(%ebp)
  1014b2:	74 52                	je     101506 <klmalloc_skip_list_findbest+0xea>
  1014b4:	8b 45 f4             	mov    -0xc(%ebp),%eax
  1014b7:	25 ff 0f 00 00       	and    $0xfff,%eax
  1014bc:	85 c0                	test   %eax,%eax
  1014be:	74 1a                	je     1014da <klmalloc_skip_list_findbest+0xbe>
  1014c0:	83 ec 04             	sub    $0x4,%esp
  1014c3:	68 c0 87 10 00       	push   $0x1087c0
  1014c8:	68 41 01 00 00       	push   $0x141
  1014cd:	68 38 87 10 00       	push   $0x108738
  1014d2:	e8 05 fe ff ff       	call   1012dc <__assert_fail>
  1014d7:	83 c4 10             	add    $0x10,%esp
  1014da:	8b 45 f4             	mov    -0xc(%ebp),%eax
  1014dd:	8b 40 08             	mov    0x8(%eax),%eax
  1014e0:	83 c0 30             	add    $0x30,%eax
  1014e3:	25 ff 0f 00 00       	and    $0xfff,%eax
  1014e8:	85 c0                	test   %eax,%eax
  1014ea:	74 1a                	je     101506 <klmalloc_skip_list_findbest+0xea>
  1014ec:	83 ec 04             	sub    $0x4,%esp
  1014ef:	68 80 87 10 00       	push   $0x108780
  1014f4:	68 42 01 00 00       	push   $0x142
  1014f9:	68 38 87 10 00       	push   $0x108738
  1014fe:	e8 d9 fd ff ff       	call   1012dc <__assert_fail>
  101503:	83 c4 10             	add    $0x10,%esp
  101506:	8b 45 f4             	mov    -0xc(%ebp),%eax
  101509:	c9                   	leave  
  10150a:	c3                   	ret    

0010150b <klmalloc_skip_list_insert>:
  10150b:	55                   	push   %ebp
  10150c:	89 e5                	mov    %esp,%ebp
  10150e:	83 ec 38             	sub    $0x38,%esp
  101511:	83 7d 08 00          	cmpl   $0x0,0x8(%ebp)
  101515:	75 1a                	jne    101531 <klmalloc_skip_list_insert+0x26>
  101517:	83 ec 04             	sub    $0x4,%esp
  10151a:	68 e1 87 10 00       	push   $0x1087e1
  10151f:	68 4f 01 00 00       	push   $0x14f
  101524:	68 38 87 10 00       	push   $0x108738
  101529:	e8 ae fd ff ff       	call   1012dc <__assert_fail>
  10152e:	83 c4 10             	add    $0x10,%esp
  101531:	8b 45 08             	mov    0x8(%ebp),%eax
  101534:	8b 40 04             	mov    0x4(%eax),%eax
  101537:	85 c0                	test   %eax,%eax
  101539:	75 1a                	jne    101555 <klmalloc_skip_list_insert+0x4a>
  10153b:	83 ec 04             	sub    $0x4,%esp
  10153e:	68 ef 87 10 00       	push   $0x1087ef
  101543:	68 50 01 00 00       	push   $0x150
  101548:	68 38 87 10 00       	push   $0x108738
  10154d:	e8 8a fd ff ff       	call   1012dc <__assert_fail>
  101552:	83 c4 10             	add    $0x10,%esp
  101555:	8b 45 08             	mov    0x8(%ebp),%eax
  101558:	8b 40 04             	mov    0x4(%eax),%eax
  10155b:	89 c2                	mov    %eax,%edx
  10155d:	8b 45 08             	mov    0x8(%ebp),%eax
  101560:	39 d0                	cmp    %edx,%eax
  101562:	72 1a                	jb     10157e <klmalloc_skip_list_insert+0x73>
  101564:	83 ec 04             	sub    $0x4,%esp
  101567:	68 04 88 10 00       	push   $0x108804
  10156c:	68 51 01 00 00       	push   $0x151
  101571:	68 38 87 10 00       	push   $0x108738
  101576:	e8 61 fd ff ff       	call   1012dc <__assert_fail>
  10157b:	83 c4 10             	add    $0x10,%esp
  10157e:	8b 45 08             	mov    0x8(%ebp),%eax
  101581:	8b 40 08             	mov    0x8(%eax),%eax
  101584:	83 f8 0b             	cmp    $0xb,%eax
  101587:	76 33                	jbe    1015bc <klmalloc_skip_list_insert+0xb1>
  101589:	8b 45 08             	mov    0x8(%ebp),%eax
  10158c:	8b 40 04             	mov    0x4(%eax),%eax
  10158f:	89 c1                	mov    %eax,%ecx
  101591:	8b 45 08             	mov    0x8(%ebp),%eax
  101594:	8b 50 08             	mov    0x8(%eax),%edx
  101597:	8b 45 08             	mov    0x8(%ebp),%eax
  10159a:	01 d0                	add    %edx,%eax
  10159c:	39 c1                	cmp    %eax,%ecx
  10159e:	72 4a                	jb     1015ea <klmalloc_skip_list_insert+0xdf>
  1015a0:	83 ec 04             	sub    $0x4,%esp
  1015a3:	68 30 88 10 00       	push   $0x108830
  1015a8:	68 53 01 00 00       	push   $0x153
  1015ad:	68 38 87 10 00       	push   $0x108738
  1015b2:	e8 25 fd ff ff       	call   1012dc <__assert_fail>
  1015b7:	83 c4 10             	add    $0x10,%esp
  1015ba:	eb 2e                	jmp    1015ea <klmalloc_skip_list_insert+0xdf>
  1015bc:	8b 45 08             	mov    0x8(%ebp),%eax
  1015bf:	8b 40 04             	mov    0x4(%eax),%eax
  1015c2:	89 c2                	mov    %eax,%edx
  1015c4:	8b 45 08             	mov    0x8(%ebp),%eax
  1015c7:	05 00 10 00 00       	add    $0x1000,%eax
  1015cc:	39 c2                	cmp    %eax,%edx
  1015ce:	72 1a                	jb     1015ea <klmalloc_skip_list_insert+0xdf>
  1015d0:	83 ec 04             	sub    $0x4,%esp
  1015d3:	68 68 88 10 00       	push   $0x108868
  1015d8:	68 55 01 00 00       	push   $0x155
  1015dd:	68 38 87 10 00       	push   $0x108738
  1015e2:	e8 f5 fc ff ff       	call   1012dc <__assert_fail>
  1015e7:	83 c4 10             	add    $0x10,%esp
  1015ea:	8b 45 08             	mov    0x8(%ebp),%eax
  1015ed:	25 ff 0f 00 00       	and    $0xfff,%eax
  1015f2:	85 c0                	test   %eax,%eax
  1015f4:	74 1a                	je     101610 <klmalloc_skip_list_insert+0x105>
  1015f6:	83 ec 04             	sub    $0x4,%esp
  1015f9:	68 a0 88 10 00       	push   $0x1088a0
  1015fe:	68 57 01 00 00       	push   $0x157
  101603:	68 38 87 10 00       	push   $0x108738
  101608:	e8 cf fc ff ff       	call   1012dc <__assert_fail>
  10160d:	83 c4 10             	add    $0x10,%esp
  101610:	8b 45 08             	mov    0x8(%ebp),%eax
  101613:	8b 40 08             	mov    0x8(%eax),%eax
  101616:	83 c0 30             	add    $0x30,%eax
  101619:	25 ff 0f 00 00       	and    $0xfff,%eax
  10161e:	85 c0                	test   %eax,%eax
  101620:	74 1a                	je     10163c <klmalloc_skip_list_insert+0x131>
  101622:	83 ec 04             	sub    $0x4,%esp
  101625:	68 c4 88 10 00       	push   $0x1088c4
  10162a:	68 58 01 00 00       	push   $0x158
  10162f:	68 38 87 10 00       	push   $0x108738
  101634:	e8 a3 fc ff ff       	call   1012dc <__assert_fail>
  101639:	83 c4 10             	add    $0x10,%esp
  10163c:	8b 45 08             	mov    0x8(%ebp),%eax
  10163f:	8b 40 08             	mov    0x8(%eax),%eax
  101642:	85 c0                	test   %eax,%eax
  101644:	75 1a                	jne    101660 <klmalloc_skip_list_insert+0x155>
  101646:	83 ec 04             	sub    $0x4,%esp
  101649:	68 05 89 10 00       	push   $0x108905
  10164e:	68 59 01 00 00       	push   $0x159
  101653:	68 38 87 10 00       	push   $0x108738
  101658:	e8 7f fc ff ff       	call   1012dc <__assert_fail>
  10165d:	83 c4 10             	add    $0x10,%esp
  101660:	c7 45 f4 e0 b2 10 00 	movl   $0x10b2e0,-0xc(%ebp)
  101667:	a1 10 b3 10 00       	mov    0x10b310,%eax
  10166c:	89 45 f0             	mov    %eax,-0x10(%ebp)
  10166f:	eb 7b                	jmp    1016ec <klmalloc_skip_list_insert+0x1e1>
  101671:	8b 45 f4             	mov    -0xc(%ebp),%eax
  101674:	8b 55 f0             	mov    -0x10(%ebp),%edx
  101677:	83 c2 04             	add    $0x4,%edx
  10167a:	8b 44 90 04          	mov    0x4(%eax,%edx,4),%eax
  10167e:	89 45 f4             	mov    %eax,-0xc(%ebp)
  101681:	83 7d f4 00          	cmpl   $0x0,-0xc(%ebp)
  101685:	74 2c                	je     1016b3 <klmalloc_skip_list_insert+0x1a8>
  101687:	8b 45 f4             	mov    -0xc(%ebp),%eax
  10168a:	8b 40 08             	mov    0x8(%eax),%eax
  10168d:	83 c0 30             	add    $0x30,%eax
  101690:	25 ff 0f 00 00       	and    $0xfff,%eax
  101695:	85 c0                	test   %eax,%eax
  101697:	74 1a                	je     1016b3 <klmalloc_skip_list_insert+0x1a8>
  101699:	83 ec 04             	sub    $0x4,%esp
  10169c:	68 80 87 10 00       	push   $0x108780
  1016a1:	68 6a 01 00 00       	push   $0x16a
  1016a6:	68 38 87 10 00       	push   $0x108738
  1016ab:	e8 2c fc ff ff       	call   1012dc <__assert_fail>
  1016b0:	83 c4 10             	add    $0x10,%esp
  1016b3:	8b 45 f4             	mov    -0xc(%ebp),%eax
  1016b6:	8b 55 f0             	mov    -0x10(%ebp),%edx
  1016b9:	83 c2 04             	add    $0x4,%edx
  1016bc:	8b 44 90 04          	mov    0x4(%eax,%edx,4),%eax
  1016c0:	85 c0                	test   %eax,%eax
  1016c2:	74 1a                	je     1016de <klmalloc_skip_list_insert+0x1d3>
  1016c4:	8b 45 f4             	mov    -0xc(%ebp),%eax
  1016c7:	8b 55 f0             	mov    -0x10(%ebp),%edx
  1016ca:	83 c2 04             	add    $0x4,%edx
  1016cd:	8b 44 90 04          	mov    0x4(%eax,%edx,4),%eax
  1016d1:	8b 50 08             	mov    0x8(%eax),%edx
  1016d4:	8b 45 08             	mov    0x8(%ebp),%eax
  1016d7:	8b 40 08             	mov    0x8(%eax),%eax
  1016da:	39 c2                	cmp    %eax,%edx
  1016dc:	72 93                	jb     101671 <klmalloc_skip_list_insert+0x166>
  1016de:	8b 45 f0             	mov    -0x10(%ebp),%eax
  1016e1:	8b 55 f4             	mov    -0xc(%ebp),%edx
  1016e4:	89 54 85 cc          	mov    %edx,-0x34(%ebp,%eax,4)
  1016e8:	83 6d f0 01          	subl   $0x1,-0x10(%ebp)
  1016ec:	83 7d f0 00          	cmpl   $0x0,-0x10(%ebp)
  1016f0:	79 c1                	jns    1016b3 <klmalloc_skip_list_insert+0x1a8>
  1016f2:	8b 45 f4             	mov    -0xc(%ebp),%eax
  1016f5:	8b 40 14             	mov    0x14(%eax),%eax
  1016f8:	89 45 f4             	mov    %eax,-0xc(%ebp)
  1016fb:	8b 45 f4             	mov    -0xc(%ebp),%eax
  1016fe:	3b 45 08             	cmp    0x8(%ebp),%eax
  101701:	0f 84 f3 00 00 00    	je     1017fa <klmalloc_skip_list_insert+0x2ef>
  101707:	c7 45 e8 00 00 00 00 	movl   $0x0,-0x18(%ebp)
  10170e:	eb 04                	jmp    101714 <klmalloc_skip_list_insert+0x209>
  101710:	83 45 e8 01          	addl   $0x1,-0x18(%ebp)
  101714:	e8 a3 fc ff ff       	call   1013bc <klmalloc_skip_rand>
  101719:	3d fe ff ff 7f       	cmp    $0x7ffffffe,%eax
  10171e:	77 06                	ja     101726 <klmalloc_skip_list_insert+0x21b>
  101720:	83 7d e8 05          	cmpl   $0x5,-0x18(%ebp)
  101724:	7e ea                	jle    101710 <klmalloc_skip_list_insert+0x205>
  101726:	8b 45 e8             	mov    -0x18(%ebp),%eax
  101729:	89 45 ec             	mov    %eax,-0x14(%ebp)
  10172c:	a1 10 b3 10 00       	mov    0x10b310,%eax
  101731:	39 45 ec             	cmp    %eax,-0x14(%ebp)
  101734:	7e 2c                	jle    101762 <klmalloc_skip_list_insert+0x257>
  101736:	a1 10 b3 10 00       	mov    0x10b310,%eax
  10173b:	83 c0 01             	add    $0x1,%eax
  10173e:	89 45 f0             	mov    %eax,-0x10(%ebp)
  101741:	eb 0f                	jmp    101752 <klmalloc_skip_list_insert+0x247>
  101743:	8b 45 f0             	mov    -0x10(%ebp),%eax
  101746:	c7 44 85 cc e0 b2 10 	movl   $0x10b2e0,-0x34(%ebp,%eax,4)
  10174d:	00 
  10174e:	83 45 f0 01          	addl   $0x1,-0x10(%ebp)
  101752:	8b 45 f0             	mov    -0x10(%ebp),%eax
  101755:	3b 45 ec             	cmp    -0x14(%ebp),%eax
  101758:	7e e9                	jle    101743 <klmalloc_skip_list_insert+0x238>
  10175a:	8b 45 ec             	mov    -0x14(%ebp),%eax
  10175d:	a3 10 b3 10 00       	mov    %eax,0x10b310
  101762:	8b 45 08             	mov    0x8(%ebp),%eax
  101765:	89 45 f4             	mov    %eax,-0xc(%ebp)
  101768:	c7 45 f0 00 00 00 00 	movl   $0x0,-0x10(%ebp)
  10176f:	eb 7d                	jmp    1017ee <klmalloc_skip_list_insert+0x2e3>
  101771:	8b 45 f0             	mov    -0x10(%ebp),%eax
  101774:	8b 44 85 cc          	mov    -0x34(%ebp,%eax,4),%eax
  101778:	8b 55 f0             	mov    -0x10(%ebp),%edx
  10177b:	83 c2 04             	add    $0x4,%edx
  10177e:	8b 54 90 04          	mov    0x4(%eax,%edx,4),%edx
  101782:	8b 45 f4             	mov    -0xc(%ebp),%eax
  101785:	8b 4d f0             	mov    -0x10(%ebp),%ecx
  101788:	83 c1 04             	add    $0x4,%ecx
  10178b:	89 54 88 04          	mov    %edx,0x4(%eax,%ecx,4)
  10178f:	8b 45 f4             	mov    -0xc(%ebp),%eax
  101792:	8b 55 f0             	mov    -0x10(%ebp),%edx
  101795:	83 c2 04             	add    $0x4,%edx
  101798:	8b 44 90 04          	mov    0x4(%eax,%edx,4),%eax
  10179c:	85 c0                	test   %eax,%eax
  10179e:	74 36                	je     1017d6 <klmalloc_skip_list_insert+0x2cb>
  1017a0:	8b 45 f4             	mov    -0xc(%ebp),%eax
  1017a3:	8b 55 f0             	mov    -0x10(%ebp),%edx
  1017a6:	83 c2 04             	add    $0x4,%edx
  1017a9:	8b 44 90 04          	mov    0x4(%eax,%edx,4),%eax
  1017ad:	8b 40 08             	mov    0x8(%eax),%eax
  1017b0:	83 c0 30             	add    $0x30,%eax
  1017b3:	25 ff 0f 00 00       	and    $0xfff,%eax
  1017b8:	85 c0                	test   %eax,%eax
  1017ba:	74 1a                	je     1017d6 <klmalloc_skip_list_insert+0x2cb>
  1017bc:	83 ec 04             	sub    $0x4,%esp
  1017bf:	68 18 89 10 00       	push   $0x108918
  1017c4:	68 8c 01 00 00       	push   $0x18c
  1017c9:	68 38 87 10 00       	push   $0x108738
  1017ce:	e8 09 fb ff ff       	call   1012dc <__assert_fail>
  1017d3:	83 c4 10             	add    $0x10,%esp
  1017d6:	8b 45 f0             	mov    -0x10(%ebp),%eax
  1017d9:	8b 44 85 cc          	mov    -0x34(%ebp,%eax,4),%eax
  1017dd:	8b 55 f0             	mov    -0x10(%ebp),%edx
  1017e0:	8d 4a 04             	lea    0x4(%edx),%ecx
  1017e3:	8b 55 f4             	mov    -0xc(%ebp),%edx
  1017e6:	89 54 88 04          	mov    %edx,0x4(%eax,%ecx,4)
  1017ea:	83 45 f0 01          	addl   $0x1,-0x10(%ebp)
  1017ee:	8b 45 f0             	mov    -0x10(%ebp),%eax
  1017f1:	3b 45 ec             	cmp    -0x14(%ebp),%eax
  1017f4:	0f 8e 77 ff ff ff    	jle    101771 <klmalloc_skip_list_insert+0x266>
  1017fa:	90                   	nop
  1017fb:	c9                   	leave  
  1017fc:	c3                   	ret    

001017fd <klmalloc_skip_list_delete>:
  1017fd:	55                   	push   %ebp
  1017fe:	89 e5                	mov    %esp,%ebp
  101800:	83 ec 38             	sub    $0x38,%esp
  101803:	83 7d 08 00          	cmpl   $0x0,0x8(%ebp)
  101807:	75 1a                	jne    101823 <klmalloc_skip_list_delete+0x26>
  101809:	83 ec 04             	sub    $0x4,%esp
  10180c:	68 e1 87 10 00       	push   $0x1087e1
  101811:	68 9a 01 00 00       	push   $0x19a
  101816:	68 38 87 10 00       	push   $0x108738
  10181b:	e8 bc fa ff ff       	call   1012dc <__assert_fail>
  101820:	83 c4 10             	add    $0x10,%esp
  101823:	8b 45 08             	mov    0x8(%ebp),%eax
  101826:	8b 40 04             	mov    0x4(%eax),%eax
  101829:	85 c0                	test   %eax,%eax
  10182b:	75 1a                	jne    101847 <klmalloc_skip_list_delete+0x4a>
  10182d:	83 ec 04             	sub    $0x4,%esp
  101830:	68 64 89 10 00       	push   $0x108964
  101835:	68 9b 01 00 00       	push   $0x19b
  10183a:	68 38 87 10 00       	push   $0x108738
  10183f:	e8 98 fa ff ff       	call   1012dc <__assert_fail>
  101844:	83 c4 10             	add    $0x10,%esp
  101847:	8b 45 08             	mov    0x8(%ebp),%eax
  10184a:	8b 40 04             	mov    0x4(%eax),%eax
  10184d:	89 c2                	mov    %eax,%edx
  10184f:	8b 45 08             	mov    0x8(%ebp),%eax
  101852:	39 d0                	cmp    %edx,%eax
  101854:	72 1a                	jb     101870 <klmalloc_skip_list_delete+0x73>
  101856:	83 ec 04             	sub    $0x4,%esp
  101859:	68 04 88 10 00       	push   $0x108804
  10185e:	68 9c 01 00 00       	push   $0x19c
  101863:	68 38 87 10 00       	push   $0x108738
  101868:	e8 6f fa ff ff       	call   1012dc <__assert_fail>
  10186d:	83 c4 10             	add    $0x10,%esp
  101870:	8b 45 08             	mov    0x8(%ebp),%eax
  101873:	8b 40 08             	mov    0x8(%eax),%eax
  101876:	83 f8 0b             	cmp    $0xb,%eax
  101879:	76 33                	jbe    1018ae <klmalloc_skip_list_delete+0xb1>
  10187b:	8b 45 08             	mov    0x8(%ebp),%eax
  10187e:	8b 40 04             	mov    0x4(%eax),%eax
  101881:	89 c1                	mov    %eax,%ecx
  101883:	8b 45 08             	mov    0x8(%ebp),%eax
  101886:	8b 50 08             	mov    0x8(%eax),%edx
  101889:	8b 45 08             	mov    0x8(%ebp),%eax
  10188c:	01 d0                	add    %edx,%eax
  10188e:	39 c1                	cmp    %eax,%ecx
  101890:	72 4a                	jb     1018dc <klmalloc_skip_list_delete+0xdf>
  101892:	83 ec 04             	sub    $0x4,%esp
  101895:	68 30 88 10 00       	push   $0x108830
  10189a:	68 9e 01 00 00       	push   $0x19e
  10189f:	68 38 87 10 00       	push   $0x108738
  1018a4:	e8 33 fa ff ff       	call   1012dc <__assert_fail>
  1018a9:	83 c4 10             	add    $0x10,%esp
  1018ac:	eb 2e                	jmp    1018dc <klmalloc_skip_list_delete+0xdf>
  1018ae:	8b 45 08             	mov    0x8(%ebp),%eax
  1018b1:	8b 40 04             	mov    0x4(%eax),%eax
  1018b4:	89 c2                	mov    %eax,%edx
  1018b6:	8b 45 08             	mov    0x8(%ebp),%eax
  1018b9:	05 00 10 00 00       	add    $0x1000,%eax
  1018be:	39 c2                	cmp    %eax,%edx
  1018c0:	72 1a                	jb     1018dc <klmalloc_skip_list_delete+0xdf>
  1018c2:	83 ec 04             	sub    $0x4,%esp
  1018c5:	68 68 88 10 00       	push   $0x108868
  1018ca:	68 a0 01 00 00       	push   $0x1a0
  1018cf:	68 38 87 10 00       	push   $0x108738
  1018d4:	e8 03 fa ff ff       	call   1012dc <__assert_fail>
  1018d9:	83 c4 10             	add    $0x10,%esp
  1018dc:	c7 45 f4 e0 b2 10 00 	movl   $0x10b2e0,-0xc(%ebp)
  1018e3:	a1 10 b3 10 00       	mov    0x10b310,%eax
  1018e8:	89 45 f0             	mov    %eax,-0x10(%ebp)
  1018eb:	eb 7b                	jmp    101968 <klmalloc_skip_list_delete+0x16b>
  1018ed:	8b 45 f4             	mov    -0xc(%ebp),%eax
  1018f0:	8b 55 f0             	mov    -0x10(%ebp),%edx
  1018f3:	83 c2 04             	add    $0x4,%edx
  1018f6:	8b 44 90 04          	mov    0x4(%eax,%edx,4),%eax
  1018fa:	89 45 f4             	mov    %eax,-0xc(%ebp)
  1018fd:	83 7d f4 00          	cmpl   $0x0,-0xc(%ebp)
  101901:	74 2c                	je     10192f <klmalloc_skip_list_delete+0x132>
  101903:	8b 45 f4             	mov    -0xc(%ebp),%eax
  101906:	8b 40 08             	mov    0x8(%eax),%eax
  101909:	83 c0 30             	add    $0x30,%eax
  10190c:	25 ff 0f 00 00       	and    $0xfff,%eax
  101911:	85 c0                	test   %eax,%eax
  101913:	74 1a                	je     10192f <klmalloc_skip_list_delete+0x132>
  101915:	83 ec 04             	sub    $0x4,%esp
  101918:	68 80 87 10 00       	push   $0x108780
  10191d:	68 b1 01 00 00       	push   $0x1b1
  101922:	68 38 87 10 00       	push   $0x108738
  101927:	e8 b0 f9 ff ff       	call   1012dc <__assert_fail>
  10192c:	83 c4 10             	add    $0x10,%esp
  10192f:	8b 45 f4             	mov    -0xc(%ebp),%eax
  101932:	8b 55 f0             	mov    -0x10(%ebp),%edx
  101935:	83 c2 04             	add    $0x4,%edx
  101938:	8b 44 90 04          	mov    0x4(%eax,%edx,4),%eax
  10193c:	85 c0                	test   %eax,%eax
  10193e:	74 1a                	je     10195a <klmalloc_skip_list_delete+0x15d>
  101940:	8b 45 f4             	mov    -0xc(%ebp),%eax
  101943:	8b 55 f0             	mov    -0x10(%ebp),%edx
  101946:	83 c2 04             	add    $0x4,%edx
  101949:	8b 44 90 04          	mov    0x4(%eax,%edx,4),%eax
  10194d:	8b 50 08             	mov    0x8(%eax),%edx
  101950:	8b 45 08             	mov    0x8(%ebp),%eax
  101953:	8b 40 08             	mov    0x8(%eax),%eax
  101956:	39 c2                	cmp    %eax,%edx
  101958:	72 93                	jb     1018ed <klmalloc_skip_list_delete+0xf0>
  10195a:	8b 45 f0             	mov    -0x10(%ebp),%eax
  10195d:	8b 55 f4             	mov    -0xc(%ebp),%edx
  101960:	89 54 85 d4          	mov    %edx,-0x2c(%ebp,%eax,4)
  101964:	83 6d f0 01          	subl   $0x1,-0x10(%ebp)
  101968:	83 7d f0 00          	cmpl   $0x0,-0x10(%ebp)
  10196c:	79 c1                	jns    10192f <klmalloc_skip_list_delete+0x132>
  10196e:	8b 45 f4             	mov    -0xc(%ebp),%eax
  101971:	8b 40 14             	mov    0x14(%eax),%eax
  101974:	89 45 f4             	mov    %eax,-0xc(%ebp)
  101977:	eb 09                	jmp    101982 <klmalloc_skip_list_delete+0x185>
  101979:	8b 45 f4             	mov    -0xc(%ebp),%eax
  10197c:	8b 40 14             	mov    0x14(%eax),%eax
  10197f:	89 45 f4             	mov    %eax,-0xc(%ebp)
  101982:	8b 45 f4             	mov    -0xc(%ebp),%eax
  101985:	3b 45 08             	cmp    0x8(%ebp),%eax
  101988:	75 ef                	jne    101979 <klmalloc_skip_list_delete+0x17c>
  10198a:	8b 45 f4             	mov    -0xc(%ebp),%eax
  10198d:	3b 45 08             	cmp    0x8(%ebp),%eax
  101990:	74 31                	je     1019c3 <klmalloc_skip_list_delete+0x1c6>
  101992:	a1 f4 b2 10 00       	mov    0x10b2f4,%eax
  101997:	89 45 f4             	mov    %eax,-0xc(%ebp)
  10199a:	eb 09                	jmp    1019a5 <klmalloc_skip_list_delete+0x1a8>
  10199c:	8b 45 f4             	mov    -0xc(%ebp),%eax
  10199f:	8b 40 14             	mov    0x14(%eax),%eax
  1019a2:	89 45 f4             	mov    %eax,-0xc(%ebp)
  1019a5:	8b 45 f4             	mov    -0xc(%ebp),%eax
  1019a8:	8b 40 14             	mov    0x14(%eax),%eax
  1019ab:	85 c0                	test   %eax,%eax
  1019ad:	74 0b                	je     1019ba <klmalloc_skip_list_delete+0x1bd>
  1019af:	8b 45 f4             	mov    -0xc(%ebp),%eax
  1019b2:	8b 40 14             	mov    0x14(%eax),%eax
  1019b5:	39 45 08             	cmp    %eax,0x8(%ebp)
  1019b8:	75 e2                	jne    10199c <klmalloc_skip_list_delete+0x19f>
  1019ba:	8b 45 f4             	mov    -0xc(%ebp),%eax
  1019bd:	8b 40 14             	mov    0x14(%eax),%eax
  1019c0:	89 45 f4             	mov    %eax,-0xc(%ebp)
  1019c3:	8b 45 f4             	mov    -0xc(%ebp),%eax
  1019c6:	3b 45 08             	cmp    0x8(%ebp),%eax
  1019c9:	0f 85 07 01 00 00    	jne    101ad6 <klmalloc_skip_list_delete+0x2d9>
  1019cf:	c7 45 f0 00 00 00 00 	movl   $0x0,-0x10(%ebp)
  1019d6:	e9 bf 00 00 00       	jmp    101a9a <klmalloc_skip_list_delete+0x29d>
  1019db:	8b 45 f0             	mov    -0x10(%ebp),%eax
  1019de:	8b 44 85 d4          	mov    -0x2c(%ebp,%eax,4),%eax
  1019e2:	8b 55 f0             	mov    -0x10(%ebp),%edx
  1019e5:	83 c2 04             	add    $0x4,%edx
  1019e8:	8b 44 90 04          	mov    0x4(%eax,%edx,4),%eax
  1019ec:	39 45 f4             	cmp    %eax,-0xc(%ebp)
  1019ef:	0f 85 b5 00 00 00    	jne    101aaa <klmalloc_skip_list_delete+0x2ad>
  1019f5:	8b 45 f0             	mov    -0x10(%ebp),%eax
  1019f8:	8b 44 85 d4          	mov    -0x2c(%ebp,%eax,4),%eax
  1019fc:	8b 55 f4             	mov    -0xc(%ebp),%edx
  1019ff:	8b 4d f0             	mov    -0x10(%ebp),%ecx
  101a02:	83 c1 04             	add    $0x4,%ecx
  101a05:	8b 54 8a 04          	mov    0x4(%edx,%ecx,4),%edx
  101a09:	8b 4d f0             	mov    -0x10(%ebp),%ecx
  101a0c:	83 c1 04             	add    $0x4,%ecx
  101a0f:	89 54 88 04          	mov    %edx,0x4(%eax,%ecx,4)
  101a13:	8b 45 f0             	mov    -0x10(%ebp),%eax
  101a16:	8b 44 85 d4          	mov    -0x2c(%ebp,%eax,4),%eax
  101a1a:	8b 55 f0             	mov    -0x10(%ebp),%edx
  101a1d:	83 c2 04             	add    $0x4,%edx
  101a20:	8b 44 90 04          	mov    0x4(%eax,%edx,4),%eax
  101a24:	85 c0                	test   %eax,%eax
  101a26:	74 6e                	je     101a96 <klmalloc_skip_list_delete+0x299>
  101a28:	8b 45 f0             	mov    -0x10(%ebp),%eax
  101a2b:	8b 44 85 d4          	mov    -0x2c(%ebp,%eax,4),%eax
  101a2f:	8b 55 f0             	mov    -0x10(%ebp),%edx
  101a32:	83 c2 04             	add    $0x4,%edx
  101a35:	8b 44 90 04          	mov    0x4(%eax,%edx,4),%eax
  101a39:	25 ff 0f 00 00       	and    $0xfff,%eax
  101a3e:	85 c0                	test   %eax,%eax
  101a40:	74 1a                	je     101a5c <klmalloc_skip_list_delete+0x25f>
  101a42:	83 ec 04             	sub    $0x4,%esp
  101a45:	68 70 89 10 00       	push   $0x108970
  101a4a:	68 cc 01 00 00       	push   $0x1cc
  101a4f:	68 38 87 10 00       	push   $0x108738
  101a54:	e8 83 f8 ff ff       	call   1012dc <__assert_fail>
  101a59:	83 c4 10             	add    $0x10,%esp
  101a5c:	8b 45 f0             	mov    -0x10(%ebp),%eax
  101a5f:	8b 44 85 d4          	mov    -0x2c(%ebp,%eax,4),%eax
  101a63:	8b 55 f0             	mov    -0x10(%ebp),%edx
  101a66:	83 c2 04             	add    $0x4,%edx
  101a69:	8b 44 90 04          	mov    0x4(%eax,%edx,4),%eax
  101a6d:	8b 40 08             	mov    0x8(%eax),%eax
  101a70:	83 c0 30             	add    $0x30,%eax
  101a73:	25 ff 0f 00 00       	and    $0xfff,%eax
  101a78:	85 c0                	test   %eax,%eax
  101a7a:	74 1a                	je     101a96 <klmalloc_skip_list_delete+0x299>
  101a7c:	83 ec 04             	sub    $0x4,%esp
  101a7f:	68 a4 89 10 00       	push   $0x1089a4
  101a84:	68 cd 01 00 00       	push   $0x1cd
  101a89:	68 38 87 10 00       	push   $0x108738
  101a8e:	e8 49 f8 ff ff       	call   1012dc <__assert_fail>
  101a93:	83 c4 10             	add    $0x10,%esp
  101a96:	83 45 f0 01          	addl   $0x1,-0x10(%ebp)
  101a9a:	a1 10 b3 10 00       	mov    0x10b310,%eax
  101a9f:	39 45 f0             	cmp    %eax,-0x10(%ebp)
  101aa2:	0f 8e 33 ff ff ff    	jle    1019db <klmalloc_skip_list_delete+0x1de>
  101aa8:	eb 10                	jmp    101aba <klmalloc_skip_list_delete+0x2bd>
  101aaa:	90                   	nop
  101aab:	eb 0d                	jmp    101aba <klmalloc_skip_list_delete+0x2bd>
  101aad:	a1 10 b3 10 00       	mov    0x10b310,%eax
  101ab2:	83 e8 01             	sub    $0x1,%eax
  101ab5:	a3 10 b3 10 00       	mov    %eax,0x10b310
  101aba:	a1 10 b3 10 00       	mov    0x10b310,%eax
  101abf:	85 c0                	test   %eax,%eax
  101ac1:	7e 13                	jle    101ad6 <klmalloc_skip_list_delete+0x2d9>
  101ac3:	a1 10 b3 10 00       	mov    0x10b310,%eax
  101ac8:	83 c0 04             	add    $0x4,%eax
  101acb:	8b 04 85 e4 b2 10 00 	mov    0x10b2e4(,%eax,4),%eax
  101ad2:	85 c0                	test   %eax,%eax
  101ad4:	74 d7                	je     101aad <klmalloc_skip_list_delete+0x2b0>
  101ad6:	90                   	nop
  101ad7:	c9                   	leave  
  101ad8:	c3                   	ret    

00101ad9 <klmalloc_stack_pop>:
  101ad9:	55                   	push   %ebp
  101ada:	89 e5                	mov    %esp,%ebp
  101adc:	83 ec 18             	sub    $0x18,%esp
  101adf:	83 7d 08 00          	cmpl   $0x0,0x8(%ebp)
  101ae3:	75 1a                	jne    101aff <klmalloc_stack_pop+0x26>
  101ae5:	83 ec 04             	sub    $0x4,%esp
  101ae8:	68 f5 89 10 00       	push   $0x1089f5
  101aed:	68 e1 01 00 00       	push   $0x1e1
  101af2:	68 38 87 10 00       	push   $0x108738
  101af7:	e8 e0 f7 ff ff       	call   1012dc <__assert_fail>
  101afc:	83 c4 10             	add    $0x10,%esp
  101aff:	8b 45 08             	mov    0x8(%ebp),%eax
  101b02:	8b 40 04             	mov    0x4(%eax),%eax
  101b05:	85 c0                	test   %eax,%eax
  101b07:	75 1a                	jne    101b23 <klmalloc_stack_pop+0x4a>
  101b09:	83 ec 04             	sub    $0x4,%esp
  101b0c:	68 fc 89 10 00       	push   $0x1089fc
  101b11:	68 e2 01 00 00       	push   $0x1e2
  101b16:	68 38 87 10 00       	push   $0x108738
  101b1b:	e8 bc f7 ff ff       	call   1012dc <__assert_fail>
  101b20:	83 c4 10             	add    $0x10,%esp
  101b23:	8b 45 08             	mov    0x8(%ebp),%eax
  101b26:	8b 40 04             	mov    0x4(%eax),%eax
  101b29:	89 c2                	mov    %eax,%edx
  101b2b:	8b 45 08             	mov    0x8(%ebp),%eax
  101b2e:	39 d0                	cmp    %edx,%eax
  101b30:	72 1a                	jb     101b4c <klmalloc_stack_pop+0x73>
  101b32:	83 ec 04             	sub    $0x4,%esp
  101b35:	68 14 8a 10 00       	push   $0x108a14
  101b3a:	68 e3 01 00 00       	push   $0x1e3
  101b3f:	68 38 87 10 00       	push   $0x108738
  101b44:	e8 93 f7 ff ff       	call   1012dc <__assert_fail>
  101b49:	83 c4 10             	add    $0x10,%esp
  101b4c:	8b 45 08             	mov    0x8(%ebp),%eax
  101b4f:	8b 40 08             	mov    0x8(%eax),%eax
  101b52:	83 f8 0b             	cmp    $0xb,%eax
  101b55:	76 33                	jbe    101b8a <klmalloc_stack_pop+0xb1>
  101b57:	8b 45 08             	mov    0x8(%ebp),%eax
  101b5a:	8b 40 04             	mov    0x4(%eax),%eax
  101b5d:	89 c1                	mov    %eax,%ecx
  101b5f:	8b 45 08             	mov    0x8(%ebp),%eax
  101b62:	8b 50 08             	mov    0x8(%eax),%edx
  101b65:	8b 45 08             	mov    0x8(%ebp),%eax
  101b68:	01 d0                	add    %edx,%eax
  101b6a:	39 c1                	cmp    %eax,%ecx
  101b6c:	72 76                	jb     101be4 <klmalloc_stack_pop+0x10b>
  101b6e:	83 ec 04             	sub    $0x4,%esp
  101b71:	68 40 8a 10 00       	push   $0x108a40
  101b76:	68 e5 01 00 00       	push   $0x1e5
  101b7b:	68 38 87 10 00       	push   $0x108738
  101b80:	e8 57 f7 ff ff       	call   1012dc <__assert_fail>
  101b85:	83 c4 10             	add    $0x10,%esp
  101b88:	eb 5a                	jmp    101be4 <klmalloc_stack_pop+0x10b>
  101b8a:	8b 45 08             	mov    0x8(%ebp),%eax
  101b8d:	8b 40 04             	mov    0x4(%eax),%eax
  101b90:	89 c2                	mov    %eax,%edx
  101b92:	8b 45 08             	mov    0x8(%ebp),%eax
  101b95:	05 00 10 00 00       	add    $0x1000,%eax
  101b9a:	39 c2                	cmp    %eax,%edx
  101b9c:	72 1a                	jb     101bb8 <klmalloc_stack_pop+0xdf>
  101b9e:	83 ec 04             	sub    $0x4,%esp
  101ba1:	68 7c 8a 10 00       	push   $0x108a7c
  101ba6:	68 e7 01 00 00       	push   $0x1e7
  101bab:	68 38 87 10 00       	push   $0x108738
  101bb0:	e8 27 f7 ff ff       	call   1012dc <__assert_fail>
  101bb5:	83 c4 10             	add    $0x10,%esp
  101bb8:	8b 45 08             	mov    0x8(%ebp),%eax
  101bbb:	8b 40 04             	mov    0x4(%eax),%eax
  101bbe:	89 c2                	mov    %eax,%edx
  101bc0:	8b 45 08             	mov    0x8(%ebp),%eax
  101bc3:	83 c0 0f             	add    $0xf,%eax
  101bc6:	39 d0                	cmp    %edx,%eax
  101bc8:	72 1a                	jb     101be4 <klmalloc_stack_pop+0x10b>
  101bca:	83 ec 04             	sub    $0x4,%esp
  101bcd:	68 b4 8a 10 00       	push   $0x108ab4
  101bd2:	68 e8 01 00 00       	push   $0x1e8
  101bd7:	68 38 87 10 00       	push   $0x108738
  101bdc:	e8 fb f6 ff ff       	call   1012dc <__assert_fail>
  101be1:	83 c4 10             	add    $0x10,%esp
  101be4:	8b 45 08             	mov    0x8(%ebp),%eax
  101be7:	8b 40 04             	mov    0x4(%eax),%eax
  101bea:	89 45 f4             	mov    %eax,-0xc(%ebp)
  101bed:	8b 45 08             	mov    0x8(%ebp),%eax
  101bf0:	8b 40 04             	mov    0x4(%eax),%eax
  101bf3:	89 45 f0             	mov    %eax,-0x10(%ebp)
  101bf6:	8b 45 f0             	mov    -0x10(%ebp),%eax
  101bf9:	8b 00                	mov    (%eax),%eax
  101bfb:	89 45 ec             	mov    %eax,-0x14(%ebp)
  101bfe:	8b 45 08             	mov    0x8(%ebp),%eax
  101c01:	8b 55 ec             	mov    -0x14(%ebp),%edx
  101c04:	89 50 04             	mov    %edx,0x4(%eax)
  101c07:	8b 45 f4             	mov    -0xc(%ebp),%eax
  101c0a:	c9                   	leave  
  101c0b:	c3                   	ret    

00101c0c <klmalloc_stack_push>:
  101c0c:	55                   	push   %ebp
  101c0d:	89 e5                	mov    %esp,%ebp
  101c0f:	53                   	push   %ebx
  101c10:	83 ec 14             	sub    $0x14,%esp
  101c13:	83 7d 0c 00          	cmpl   $0x0,0xc(%ebp)
  101c17:	75 1a                	jne    101c33 <klmalloc_stack_push+0x27>
  101c19:	83 ec 04             	sub    $0x4,%esp
  101c1c:	68 02 8b 10 00       	push   $0x108b02
  101c21:	68 fe 01 00 00       	push   $0x1fe
  101c26:	68 38 87 10 00       	push   $0x108738
  101c2b:	e8 ac f6 ff ff       	call   1012dc <__assert_fail>
  101c30:	83 c4 10             	add    $0x10,%esp
  101c33:	8b 45 0c             	mov    0xc(%ebp),%eax
  101c36:	8b 55 08             	mov    0x8(%ebp),%edx
  101c39:	39 c2                	cmp    %eax,%edx
  101c3b:	72 1a                	jb     101c57 <klmalloc_stack_push+0x4b>
  101c3d:	83 ec 04             	sub    $0x4,%esp
  101c40:	68 10 8b 10 00       	push   $0x108b10
  101c45:	68 ff 01 00 00       	push   $0x1ff
  101c4a:	68 38 87 10 00       	push   $0x108738
  101c4f:	e8 88 f6 ff ff       	call   1012dc <__assert_fail>
  101c54:	83 c4 10             	add    $0x10,%esp
  101c57:	8b 45 08             	mov    0x8(%ebp),%eax
  101c5a:	8b 40 08             	mov    0x8(%eax),%eax
  101c5d:	83 f8 0b             	cmp    $0xb,%eax
  101c60:	76 32                	jbe    101c94 <klmalloc_stack_push+0x88>
  101c62:	8b 45 08             	mov    0x8(%ebp),%eax
  101c65:	8b 50 08             	mov    0x8(%eax),%edx
  101c68:	8b 45 08             	mov    0x8(%ebp),%eax
  101c6b:	01 d0                	add    %edx,%eax
  101c6d:	8b 55 0c             	mov    0xc(%ebp),%edx
  101c70:	39 c2                	cmp    %eax,%edx
  101c72:	0f 82 81 00 00 00    	jb     101cf9 <klmalloc_stack_push+0xed>
  101c78:	83 ec 04             	sub    $0x4,%esp
  101c7b:	68 34 8b 10 00       	push   $0x108b34
  101c80:	68 01 02 00 00       	push   $0x201
  101c85:	68 38 87 10 00       	push   $0x108738
  101c8a:	e8 4d f6 ff ff       	call   1012dc <__assert_fail>
  101c8f:	83 c4 10             	add    $0x10,%esp
  101c92:	eb 65                	jmp    101cf9 <klmalloc_stack_push+0xed>
  101c94:	8b 45 0c             	mov    0xc(%ebp),%eax
  101c97:	8d 50 f0             	lea    -0x10(%eax),%edx
  101c9a:	8b 45 08             	mov    0x8(%ebp),%eax
  101c9d:	8b 40 08             	mov    0x8(%eax),%eax
  101ca0:	83 c0 02             	add    $0x2,%eax
  101ca3:	bb ff ff ff ff       	mov    $0xffffffff,%ebx
  101ca8:	89 c1                	mov    %eax,%ecx
  101caa:	d3 e3                	shl    %cl,%ebx
  101cac:	89 d8                	mov    %ebx,%eax
  101cae:	f7 d0                	not    %eax
  101cb0:	21 d0                	and    %edx,%eax
  101cb2:	85 c0                	test   %eax,%eax
  101cb4:	74 1a                	je     101cd0 <klmalloc_stack_push+0xc4>
  101cb6:	83 ec 04             	sub    $0x4,%esp
  101cb9:	68 68 8b 10 00       	push   $0x108b68
  101cbe:	68 03 02 00 00       	push   $0x203
  101cc3:	68 38 87 10 00       	push   $0x108738
  101cc8:	e8 0f f6 ff ff       	call   1012dc <__assert_fail>
  101ccd:	83 c4 10             	add    $0x10,%esp
  101cd0:	8b 45 08             	mov    0x8(%ebp),%eax
  101cd3:	05 00 10 00 00       	add    $0x1000,%eax
  101cd8:	8b 55 0c             	mov    0xc(%ebp),%edx
  101cdb:	39 c2                	cmp    %eax,%edx
  101cdd:	72 1a                	jb     101cf9 <klmalloc_stack_push+0xed>
  101cdf:	83 ec 04             	sub    $0x4,%esp
  101ce2:	68 d4 8b 10 00       	push   $0x108bd4
  101ce7:	68 04 02 00 00       	push   $0x204
  101cec:	68 38 87 10 00       	push   $0x108738
  101cf1:	e8 e6 f5 ff ff       	call   1012dc <__assert_fail>
  101cf6:	83 c4 10             	add    $0x10,%esp
  101cf9:	8b 45 0c             	mov    0xc(%ebp),%eax
  101cfc:	89 45 f4             	mov    %eax,-0xc(%ebp)
  101cff:	8b 45 08             	mov    0x8(%ebp),%eax
  101d02:	8b 50 04             	mov    0x4(%eax),%edx
  101d05:	8b 45 f4             	mov    -0xc(%ebp),%eax
  101d08:	89 10                	mov    %edx,(%eax)
  101d0a:	8b 45 08             	mov    0x8(%ebp),%eax
  101d0d:	8b 55 f4             	mov    -0xc(%ebp),%edx
  101d10:	89 50 04             	mov    %edx,0x4(%eax)
  101d13:	90                   	nop
  101d14:	8b 5d fc             	mov    -0x4(%ebp),%ebx
  101d17:	c9                   	leave  
  101d18:	c3                   	ret    

00101d19 <klmalloc>:
  101d19:	55                   	push   %ebp
  101d1a:	89 e5                	mov    %esp,%ebp
  101d1c:	53                   	push   %ebx
  101d1d:	83 ec 54             	sub    $0x54,%esp
  101d20:	83 7d 08 00          	cmpl   $0x0,0x8(%ebp)
  101d24:	0f 94 c0             	sete   %al
  101d27:	0f b6 c0             	movzbl %al,%eax
  101d2a:	85 c0                	test   %eax,%eax
  101d2c:	74 0a                	je     101d38 <klmalloc+0x1f>
  101d2e:	b8 00 00 00 00       	mov    $0x0,%eax
  101d33:	e9 4d 03 00 00       	jmp    102085 <klmalloc+0x36c>
  101d38:	8b 45 08             	mov    0x8(%ebp),%eax
  101d3b:	89 45 cc             	mov    %eax,-0x34(%ebp)
  101d3e:	0f bd 45 cc          	bsr    -0x34(%ebp),%eax
  101d42:	83 f0 1f             	xor    $0x1f,%eax
  101d45:	89 c2                	mov    %eax,%edx
  101d47:	b8 20 00 00 00       	mov    $0x20,%eax
  101d4c:	29 d0                	sub    %edx,%eax
  101d4e:	89 45 c8             	mov    %eax,-0x38(%ebp)
  101d51:	8b 45 cc             	mov    -0x34(%ebp),%eax
  101d54:	83 e8 01             	sub    $0x1,%eax
  101d57:	23 45 cc             	and    -0x34(%ebp),%eax
  101d5a:	85 c0                	test   %eax,%eax
  101d5c:	0f 95 c0             	setne  %al
  101d5f:	0f b6 c0             	movzbl %al,%eax
  101d62:	01 45 c8             	add    %eax,-0x38(%ebp)
  101d65:	8b 45 c8             	mov    -0x38(%ebp),%eax
  101d68:	89 45 c4             	mov    %eax,-0x3c(%ebp)
  101d6b:	83 7d c4 02          	cmpl   $0x2,-0x3c(%ebp)
  101d6f:	77 07                	ja     101d78 <klmalloc+0x5f>
  101d71:	b8 00 00 00 00       	mov    $0x0,%eax
  101d76:	eb 14                	jmp    101d8c <klmalloc+0x73>
  101d78:	83 6d c4 03          	subl   $0x3,-0x3c(%ebp)
  101d7c:	83 7d c4 0a          	cmpl   $0xa,-0x3c(%ebp)
  101d80:	76 07                	jbe    101d89 <klmalloc+0x70>
  101d82:	b8 0a 00 00 00       	mov    $0xa,%eax
  101d87:	eb 03                	jmp    101d8c <klmalloc+0x73>
  101d89:	8b 45 c4             	mov    -0x3c(%ebp),%eax
  101d8c:	90                   	nop
  101d8d:	89 45 ec             	mov    %eax,-0x14(%ebp)
  101d90:	83 7d ec 09          	cmpl   $0x9,-0x14(%ebp)
  101d94:	0f 87 b7 01 00 00    	ja     101f51 <klmalloc+0x238>
  101d9a:	8b 45 ec             	mov    -0x14(%ebp),%eax
  101d9d:	c1 e0 02             	shl    $0x2,%eax
  101da0:	05 a0 b2 10 00       	add    $0x10b2a0,%eax
  101da5:	89 45 c0             	mov    %eax,-0x40(%ebp)
  101da8:	8b 45 c0             	mov    -0x40(%ebp),%eax
  101dab:	8b 00                	mov    (%eax),%eax
  101dad:	89 45 f4             	mov    %eax,-0xc(%ebp)
  101db0:	83 7d f4 00          	cmpl   $0x0,-0xc(%ebp)
  101db4:	0f 85 11 01 00 00    	jne    101ecb <klmalloc+0x1b2>
  101dba:	83 ec 0c             	sub    $0xc,%esp
  101dbd:	68 00 10 00 00       	push   $0x1000
  101dc2:	e8 08 1c 00 00       	call   1039cf <mem_sbrk>
  101dc7:	83 c4 10             	add    $0x10,%esp
  101dca:	89 45 f4             	mov    %eax,-0xc(%ebp)
  101dcd:	8b 45 f4             	mov    -0xc(%ebp),%eax
  101dd0:	c7 40 0c 0d d0 fa de 	movl   $0xdefad00d,0xc(%eax)
  101dd7:	8b 45 f4             	mov    -0xc(%ebp),%eax
  101dda:	25 ff 0f 00 00       	and    $0xfff,%eax
  101ddf:	85 c0                	test   %eax,%eax
  101de1:	74 1a                	je     101dfd <klmalloc+0xe4>
  101de3:	83 ec 04             	sub    $0x4,%esp
  101de6:	68 04 8c 10 00       	push   $0x108c04
  101deb:	68 33 02 00 00       	push   $0x233
  101df0:	68 38 87 10 00       	push   $0x108738
  101df5:	e8 e2 f4 ff ff       	call   1012dc <__assert_fail>
  101dfa:	83 c4 10             	add    $0x10,%esp
  101dfd:	8b 45 f4             	mov    -0xc(%ebp),%eax
  101e00:	83 c0 10             	add    $0x10,%eax
  101e03:	89 c2                	mov    %eax,%edx
  101e05:	8b 45 f4             	mov    -0xc(%ebp),%eax
  101e08:	89 50 04             	mov    %edx,0x4(%eax)
  101e0b:	8b 45 ec             	mov    -0x14(%ebp),%eax
  101e0e:	c1 e0 02             	shl    $0x2,%eax
  101e11:	05 a0 b2 10 00       	add    $0x10b2a0,%eax
  101e16:	89 45 bc             	mov    %eax,-0x44(%ebp)
  101e19:	8b 45 f4             	mov    -0xc(%ebp),%eax
  101e1c:	89 45 b8             	mov    %eax,-0x48(%ebp)
  101e1f:	8b 45 bc             	mov    -0x44(%ebp),%eax
  101e22:	8b 10                	mov    (%eax),%edx
  101e24:	8b 45 b8             	mov    -0x48(%ebp),%eax
  101e27:	89 10                	mov    %edx,(%eax)
  101e29:	8b 45 bc             	mov    -0x44(%ebp),%eax
  101e2c:	8b 55 b8             	mov    -0x48(%ebp),%edx
  101e2f:	89 10                	mov    %edx,(%eax)
  101e31:	90                   	nop
  101e32:	8b 45 ec             	mov    -0x14(%ebp),%eax
  101e35:	83 c0 02             	add    $0x2,%eax
  101e38:	89 45 dc             	mov    %eax,-0x24(%ebp)
  101e3b:	8b 45 dc             	mov    -0x24(%ebp),%eax
  101e3e:	ba f0 0f 00 00       	mov    $0xff0,%edx
  101e43:	89 c1                	mov    %eax,%ecx
  101e45:	d3 ea                	shr    %cl,%edx
  101e47:	89 d0                	mov    %edx,%eax
  101e49:	83 e8 01             	sub    $0x1,%eax
  101e4c:	89 45 d8             	mov    %eax,-0x28(%ebp)
  101e4f:	8b 45 f4             	mov    -0xc(%ebp),%eax
  101e52:	8b 40 04             	mov    0x4(%eax),%eax
  101e55:	89 45 d4             	mov    %eax,-0x2c(%ebp)
  101e58:	c7 45 f0 00 00 00 00 	movl   $0x0,-0x10(%ebp)
  101e5f:	eb 39                	jmp    101e9a <klmalloc+0x181>
  101e61:	8b 45 f0             	mov    -0x10(%ebp),%eax
  101e64:	8d 50 01             	lea    0x1(%eax),%edx
  101e67:	8b 45 ec             	mov    -0x14(%ebp),%eax
  101e6a:	89 c1                	mov    %eax,%ecx
  101e6c:	d3 e2                	shl    %cl,%edx
  101e6e:	89 d0                	mov    %edx,%eax
  101e70:	8d 1c 85 00 00 00 00 	lea    0x0(,%eax,4),%ebx
  101e77:	8b 45 ec             	mov    -0x14(%ebp),%eax
  101e7a:	8b 55 f0             	mov    -0x10(%ebp),%edx
  101e7d:	89 c1                	mov    %eax,%ecx
  101e7f:	d3 e2                	shl    %cl,%edx
  101e81:	89 d0                	mov    %edx,%eax
  101e83:	8d 14 85 00 00 00 00 	lea    0x0(,%eax,4),%edx
  101e8a:	8b 45 d4             	mov    -0x2c(%ebp),%eax
  101e8d:	01 d0                	add    %edx,%eax
  101e8f:	8b 55 d4             	mov    -0x2c(%ebp),%edx
  101e92:	01 da                	add    %ebx,%edx
  101e94:	89 10                	mov    %edx,(%eax)
  101e96:	83 45 f0 01          	addl   $0x1,-0x10(%ebp)
  101e9a:	8b 45 f0             	mov    -0x10(%ebp),%eax
  101e9d:	3b 45 d8             	cmp    -0x28(%ebp),%eax
  101ea0:	72 bf                	jb     101e61 <klmalloc+0x148>
  101ea2:	8b 45 ec             	mov    -0x14(%ebp),%eax
  101ea5:	8b 55 d8             	mov    -0x28(%ebp),%edx
  101ea8:	89 c1                	mov    %eax,%ecx
  101eaa:	d3 e2                	shl    %cl,%edx
  101eac:	89 d0                	mov    %edx,%eax
  101eae:	8d 14 85 00 00 00 00 	lea    0x0(,%eax,4),%edx
  101eb5:	8b 45 d4             	mov    -0x2c(%ebp),%eax
  101eb8:	01 d0                	add    %edx,%eax
  101eba:	c7 00 00 00 00 00    	movl   $0x0,(%eax)
  101ec0:	8b 45 f4             	mov    -0xc(%ebp),%eax
  101ec3:	8b 55 ec             	mov    -0x14(%ebp),%edx
  101ec6:	89 50 08             	mov    %edx,0x8(%eax)
  101ec9:	eb 27                	jmp    101ef2 <klmalloc+0x1d9>
  101ecb:	8b 45 f4             	mov    -0xc(%ebp),%eax
  101ece:	8b 40 0c             	mov    0xc(%eax),%eax
  101ed1:	3d 0d d0 fa de       	cmp    $0xdefad00d,%eax
  101ed6:	74 1a                	je     101ef2 <klmalloc+0x1d9>
  101ed8:	83 ec 04             	sub    $0x4,%esp
  101edb:	68 2c 8c 10 00       	push   $0x108c2c
  101ee0:	68 55 02 00 00       	push   $0x255
  101ee5:	68 38 87 10 00       	push   $0x108738
  101eea:	e8 ed f3 ff ff       	call   1012dc <__assert_fail>
  101eef:	83 c4 10             	add    $0x10,%esp
  101ef2:	83 ec 0c             	sub    $0xc,%esp
  101ef5:	ff 75 f4             	push   -0xc(%ebp)
  101ef8:	e8 dc fb ff ff       	call   101ad9 <klmalloc_stack_pop>
  101efd:	83 c4 10             	add    $0x10,%esp
  101f00:	89 45 d0             	mov    %eax,-0x30(%ebp)
  101f03:	8b 45 f4             	mov    -0xc(%ebp),%eax
  101f06:	89 45 b4             	mov    %eax,-0x4c(%ebp)
  101f09:	8b 45 b4             	mov    -0x4c(%ebp),%eax
  101f0c:	8b 40 04             	mov    0x4(%eax),%eax
  101f0f:	85 c0                	test   %eax,%eax
  101f11:	0f 94 c0             	sete   %al
  101f14:	0f b6 c0             	movzbl %al,%eax
  101f17:	85 c0                	test   %eax,%eax
  101f19:	74 2e                	je     101f49 <klmalloc+0x230>
  101f1b:	8b 45 ec             	mov    -0x14(%ebp),%eax
  101f1e:	c1 e0 02             	shl    $0x2,%eax
  101f21:	05 a0 b2 10 00       	add    $0x10b2a0,%eax
  101f26:	89 45 b0             	mov    %eax,-0x50(%ebp)
  101f29:	8b 45 f4             	mov    -0xc(%ebp),%eax
  101f2c:	89 45 ac             	mov    %eax,-0x54(%ebp)
  101f2f:	8b 45 ac             	mov    -0x54(%ebp),%eax
  101f32:	8b 00                	mov    (%eax),%eax
  101f34:	89 45 a8             	mov    %eax,-0x58(%ebp)
  101f37:	8b 45 b0             	mov    -0x50(%ebp),%eax
  101f3a:	8b 55 a8             	mov    -0x58(%ebp),%edx
  101f3d:	89 10                	mov    %edx,(%eax)
  101f3f:	8b 45 ac             	mov    -0x54(%ebp),%eax
  101f42:	c7 00 00 00 00 00    	movl   $0x0,(%eax)
  101f48:	90                   	nop
  101f49:	8b 45 d0             	mov    -0x30(%ebp),%eax
  101f4c:	e9 34 01 00 00       	jmp    102085 <klmalloc+0x36c>
  101f51:	83 ec 0c             	sub    $0xc,%esp
  101f54:	ff 75 08             	push   0x8(%ebp)
  101f57:	e8 c0 f4 ff ff       	call   10141c <klmalloc_skip_list_findbest>
  101f5c:	83 c4 10             	add    $0x10,%esp
  101f5f:	89 45 e8             	mov    %eax,-0x18(%ebp)
  101f62:	83 7d e8 00          	cmpl   $0x0,-0x18(%ebp)
  101f66:	74 4c                	je     101fb4 <klmalloc+0x29b>
  101f68:	8b 45 e8             	mov    -0x18(%ebp),%eax
  101f6b:	8b 40 08             	mov    0x8(%eax),%eax
  101f6e:	3b 45 08             	cmp    0x8(%ebp),%eax
  101f71:	73 1a                	jae    101f8d <klmalloc+0x274>
  101f73:	83 ec 04             	sub    $0x4,%esp
  101f76:	68 4f 8c 10 00       	push   $0x108c4f
  101f7b:	68 62 02 00 00       	push   $0x262
  101f80:	68 38 87 10 00       	push   $0x108738
  101f85:	e8 52 f3 ff ff       	call   1012dc <__assert_fail>
  101f8a:	83 c4 10             	add    $0x10,%esp
  101f8d:	83 ec 0c             	sub    $0xc,%esp
  101f90:	ff 75 e8             	push   -0x18(%ebp)
  101f93:	e8 65 f8 ff ff       	call   1017fd <klmalloc_skip_list_delete>
  101f98:	83 c4 10             	add    $0x10,%esp
  101f9b:	83 ec 0c             	sub    $0xc,%esp
  101f9e:	ff 75 e8             	push   -0x18(%ebp)
  101fa1:	e8 33 fb ff ff       	call   101ad9 <klmalloc_stack_pop>
  101fa6:	83 c4 10             	add    $0x10,%esp
  101fa9:	89 45 e0             	mov    %eax,-0x20(%ebp)
  101fac:	8b 45 e0             	mov    -0x20(%ebp),%eax
  101faf:	e9 d1 00 00 00       	jmp    102085 <klmalloc+0x36c>
  101fb4:	8b 45 08             	mov    0x8(%ebp),%eax
  101fb7:	83 c0 30             	add    $0x30,%eax
  101fba:	c1 e8 0c             	shr    $0xc,%eax
  101fbd:	83 c0 01             	add    $0x1,%eax
  101fc0:	89 45 e4             	mov    %eax,-0x1c(%ebp)
  101fc3:	8b 45 e4             	mov    -0x1c(%ebp),%eax
  101fc6:	c1 e0 0c             	shl    $0xc,%eax
  101fc9:	83 ec 0c             	sub    $0xc,%esp
  101fcc:	50                   	push   %eax
  101fcd:	e8 fd 19 00 00       	call   1039cf <mem_sbrk>
  101fd2:	83 c4 10             	add    $0x10,%esp
  101fd5:	89 45 e8             	mov    %eax,-0x18(%ebp)
  101fd8:	8b 45 e8             	mov    -0x18(%ebp),%eax
  101fdb:	c7 40 0c 0d d0 fa de 	movl   $0xdefad00d,0xc(%eax)
  101fe2:	8b 45 e8             	mov    -0x18(%ebp),%eax
  101fe5:	25 ff 0f 00 00       	and    $0xfff,%eax
  101fea:	85 c0                	test   %eax,%eax
  101fec:	74 1a                	je     102008 <klmalloc+0x2ef>
  101fee:	83 ec 04             	sub    $0x4,%esp
  101ff1:	68 04 8c 10 00       	push   $0x108c04
  101ff6:	68 74 02 00 00       	push   $0x274
  101ffb:	68 38 87 10 00       	push   $0x108738
  102000:	e8 d7 f2 ff ff       	call   1012dc <__assert_fail>
  102005:	83 c4 10             	add    $0x10,%esp
  102008:	8b 45 e4             	mov    -0x1c(%ebp),%eax
  10200b:	c1 e0 0c             	shl    $0xc,%eax
  10200e:	8d 50 d0             	lea    -0x30(%eax),%edx
  102011:	8b 45 e8             	mov    -0x18(%ebp),%eax
  102014:	89 50 08             	mov    %edx,0x8(%eax)
  102017:	8b 45 e8             	mov    -0x18(%ebp),%eax
  10201a:	8b 40 08             	mov    0x8(%eax),%eax
  10201d:	83 c0 30             	add    $0x30,%eax
  102020:	25 ff 0f 00 00       	and    $0xfff,%eax
  102025:	85 c0                	test   %eax,%eax
  102027:	74 1a                	je     102043 <klmalloc+0x32a>
  102029:	83 ec 04             	sub    $0x4,%esp
  10202c:	68 68 8c 10 00       	push   $0x108c68
  102031:	68 79 02 00 00       	push   $0x279
  102036:	68 38 87 10 00       	push   $0x108738
  10203b:	e8 9c f2 ff ff       	call   1012dc <__assert_fail>
  102040:	83 c4 10             	add    $0x10,%esp
  102043:	8b 15 14 b3 10 00    	mov    0x10b314,%edx
  102049:	8b 45 e8             	mov    -0x18(%ebp),%eax
  10204c:	89 50 10             	mov    %edx,0x10(%eax)
  10204f:	8b 45 e8             	mov    -0x18(%ebp),%eax
  102052:	8b 40 10             	mov    0x10(%eax),%eax
  102055:	85 c0                	test   %eax,%eax
  102057:	74 0b                	je     102064 <klmalloc+0x34b>
  102059:	8b 45 e8             	mov    -0x18(%ebp),%eax
  10205c:	8b 40 10             	mov    0x10(%eax),%eax
  10205f:	8b 55 e8             	mov    -0x18(%ebp),%edx
  102062:	89 10                	mov    %edx,(%eax)
  102064:	8b 45 e8             	mov    -0x18(%ebp),%eax
  102067:	a3 14 b3 10 00       	mov    %eax,0x10b314
  10206c:	8b 45 e8             	mov    -0x18(%ebp),%eax
  10206f:	c7 00 00 00 00 00    	movl   $0x0,(%eax)
  102075:	8b 45 e8             	mov    -0x18(%ebp),%eax
  102078:	c7 40 04 00 00 00 00 	movl   $0x0,0x4(%eax)
  10207f:	8b 45 e8             	mov    -0x18(%ebp),%eax
  102082:	83 c0 30             	add    $0x30,%eax
  102085:	8b 5d fc             	mov    -0x4(%ebp),%ebx
  102088:	c9                   	leave  
  102089:	c3                   	ret    

0010208a <klfree>:
  10208a:	55                   	push   %ebp
  10208b:	89 e5                	mov    %esp,%ebp
  10208d:	83 ec 28             	sub    $0x28,%esp
  102090:	83 7d 08 00          	cmpl   $0x0,0x8(%ebp)
  102094:	0f 94 c0             	sete   %al
  102097:	0f b6 c0             	movzbl %al,%eax
  10209a:	85 c0                	test   %eax,%eax
  10209c:	0f 85 82 01 00 00    	jne    102224 <klfree+0x19a>
  1020a2:	8b 45 08             	mov    0x8(%ebp),%eax
  1020a5:	25 ff 0f 00 00       	and    $0xfff,%eax
  1020aa:	85 c0                	test   %eax,%eax
  1020ac:	75 09                	jne    1020b7 <klfree+0x2d>
  1020ae:	8b 45 08             	mov    0x8(%ebp),%eax
  1020b1:	83 e8 01             	sub    $0x1,%eax
  1020b4:	89 45 08             	mov    %eax,0x8(%ebp)
  1020b7:	8b 45 08             	mov    0x8(%ebp),%eax
  1020ba:	25 00 f0 ff ff       	and    $0xfffff000,%eax
  1020bf:	89 45 f4             	mov    %eax,-0xc(%ebp)
  1020c2:	8b 45 f4             	mov    -0xc(%ebp),%eax
  1020c5:	25 ff 0f 00 00       	and    $0xfff,%eax
  1020ca:	85 c0                	test   %eax,%eax
  1020cc:	74 1a                	je     1020e8 <klfree+0x5e>
  1020ce:	83 ec 04             	sub    $0x4,%esp
  1020d1:	68 b0 8c 10 00       	push   $0x108cb0
  1020d6:	68 a4 02 00 00       	push   $0x2a4
  1020db:	68 38 87 10 00       	push   $0x108738
  1020e0:	e8 f7 f1 ff ff       	call   1012dc <__assert_fail>
  1020e5:	83 c4 10             	add    $0x10,%esp
  1020e8:	8b 45 f4             	mov    -0xc(%ebp),%eax
  1020eb:	8b 40 0c             	mov    0xc(%eax),%eax
  1020ee:	3d 0d d0 fa de       	cmp    $0xdefad00d,%eax
  1020f3:	0f 85 2e 01 00 00    	jne    102227 <klfree+0x19d>
  1020f9:	8b 45 f4             	mov    -0xc(%ebp),%eax
  1020fc:	8b 40 08             	mov    0x8(%eax),%eax
  1020ff:	89 45 f0             	mov    %eax,-0x10(%ebp)
  102102:	83 7d f0 0b          	cmpl   $0xb,-0x10(%ebp)
  102106:	0f 86 c6 00 00 00    	jbe    1021d2 <klfree+0x148>
  10210c:	c7 45 f0 0a 00 00 00 	movl   $0xa,-0x10(%ebp)
  102113:	8b 45 f4             	mov    -0xc(%ebp),%eax
  102116:	89 45 ec             	mov    %eax,-0x14(%ebp)
  102119:	83 7d ec 00          	cmpl   $0x0,-0x14(%ebp)
  10211d:	75 1a                	jne    102139 <klfree+0xaf>
  10211f:	83 ec 04             	sub    $0x4,%esp
  102122:	68 d3 8c 10 00       	push   $0x108cd3
  102127:	68 b4 02 00 00       	push   $0x2b4
  10212c:	68 38 87 10 00       	push   $0x108738
  102131:	e8 a6 f1 ff ff       	call   1012dc <__assert_fail>
  102136:	83 c4 10             	add    $0x10,%esp
  102139:	8b 45 ec             	mov    -0x14(%ebp),%eax
  10213c:	8b 40 04             	mov    0x4(%eax),%eax
  10213f:	85 c0                	test   %eax,%eax
  102141:	74 1a                	je     10215d <klfree+0xd3>
  102143:	83 ec 04             	sub    $0x4,%esp
  102146:	68 db 8c 10 00       	push   $0x108cdb
  10214b:	68 b5 02 00 00       	push   $0x2b5
  102150:	68 38 87 10 00       	push   $0x108738
  102155:	e8 82 f1 ff ff       	call   1012dc <__assert_fail>
  10215a:	83 c4 10             	add    $0x10,%esp
  10215d:	8b 45 ec             	mov    -0x14(%ebp),%eax
  102160:	8b 40 08             	mov    0x8(%eax),%eax
  102163:	83 c0 30             	add    $0x30,%eax
  102166:	25 ff 0f 00 00       	and    $0xfff,%eax
  10216b:	85 c0                	test   %eax,%eax
  10216d:	74 1a                	je     102189 <klfree+0xff>
  10216f:	83 ec 04             	sub    $0x4,%esp
  102172:	68 f4 8c 10 00       	push   $0x108cf4
  102177:	68 b6 02 00 00       	push   $0x2b6
  10217c:	68 38 87 10 00       	push   $0x108738
  102181:	e8 56 f1 ff ff       	call   1012dc <__assert_fail>
  102186:	83 c4 10             	add    $0x10,%esp
  102189:	8b 45 ec             	mov    -0x14(%ebp),%eax
  10218c:	83 c0 30             	add    $0x30,%eax
  10218f:	83 ec 08             	sub    $0x8,%esp
  102192:	50                   	push   %eax
  102193:	ff 75 ec             	push   -0x14(%ebp)
  102196:	e8 71 fa ff ff       	call   101c0c <klmalloc_stack_push>
  10219b:	83 c4 10             	add    $0x10,%esp
  10219e:	8b 45 ec             	mov    -0x14(%ebp),%eax
  1021a1:	8b 40 04             	mov    0x4(%eax),%eax
  1021a4:	85 c0                	test   %eax,%eax
  1021a6:	75 1a                	jne    1021c2 <klfree+0x138>
  1021a8:	83 ec 04             	sub    $0x4,%esp
  1021ab:	68 37 8d 10 00       	push   $0x108d37
  1021b0:	68 bb 02 00 00       	push   $0x2bb
  1021b5:	68 38 87 10 00       	push   $0x108738
  1021ba:	e8 1d f1 ff ff       	call   1012dc <__assert_fail>
  1021bf:	83 c4 10             	add    $0x10,%esp
  1021c2:	83 ec 0c             	sub    $0xc,%esp
  1021c5:	ff 75 ec             	push   -0x14(%ebp)
  1021c8:	e8 3e f3 ff ff       	call   10150b <klmalloc_skip_list_insert>
  1021cd:	83 c4 10             	add    $0x10,%esp
  1021d0:	eb 56                	jmp    102228 <klfree+0x19e>
  1021d2:	8b 45 f4             	mov    -0xc(%ebp),%eax
  1021d5:	89 45 e8             	mov    %eax,-0x18(%ebp)
  1021d8:	8b 45 e8             	mov    -0x18(%ebp),%eax
  1021db:	8b 40 04             	mov    0x4(%eax),%eax
  1021de:	85 c0                	test   %eax,%eax
  1021e0:	0f 94 c0             	sete   %al
  1021e3:	0f b6 c0             	movzbl %al,%eax
  1021e6:	85 c0                	test   %eax,%eax
  1021e8:	74 27                	je     102211 <klfree+0x187>
  1021ea:	8b 45 f0             	mov    -0x10(%ebp),%eax
  1021ed:	c1 e0 02             	shl    $0x2,%eax
  1021f0:	05 a0 b2 10 00       	add    $0x10b2a0,%eax
  1021f5:	89 45 e4             	mov    %eax,-0x1c(%ebp)
  1021f8:	8b 45 f4             	mov    -0xc(%ebp),%eax
  1021fb:	89 45 e0             	mov    %eax,-0x20(%ebp)
  1021fe:	8b 45 e4             	mov    -0x1c(%ebp),%eax
  102201:	8b 10                	mov    (%eax),%edx
  102203:	8b 45 e0             	mov    -0x20(%ebp),%eax
  102206:	89 10                	mov    %edx,(%eax)
  102208:	8b 45 e4             	mov    -0x1c(%ebp),%eax
  10220b:	8b 55 e0             	mov    -0x20(%ebp),%edx
  10220e:	89 10                	mov    %edx,(%eax)
  102210:	90                   	nop
  102211:	83 ec 08             	sub    $0x8,%esp
  102214:	ff 75 08             	push   0x8(%ebp)
  102217:	ff 75 f4             	push   -0xc(%ebp)
  10221a:	e8 ed f9 ff ff       	call   101c0c <klmalloc_stack_push>
  10221f:	83 c4 10             	add    $0x10,%esp
  102222:	eb 04                	jmp    102228 <klfree+0x19e>
  102224:	90                   	nop
  102225:	eb 01                	jmp    102228 <klfree+0x19e>
  102227:	90                   	nop
  102228:	c9                   	leave  
  102229:	c3                   	ret    

0010222a <klvalloc>:
  10222a:	55                   	push   %ebp
  10222b:	89 e5                	mov    %esp,%ebp
  10222d:	83 ec 18             	sub    $0x18,%esp
  102230:	8b 45 08             	mov    0x8(%ebp),%eax
  102233:	05 d0 0f 00 00       	add    $0xfd0,%eax
  102238:	89 45 f4             	mov    %eax,-0xc(%ebp)
  10223b:	83 ec 0c             	sub    $0xc,%esp
  10223e:	ff 75 f4             	push   -0xc(%ebp)
  102241:	e8 d3 fa ff ff       	call   101d19 <klmalloc>
  102246:	83 c4 10             	add    $0x10,%esp
  102249:	89 45 f0             	mov    %eax,-0x10(%ebp)
  10224c:	8b 45 f0             	mov    -0x10(%ebp),%eax
  10224f:	05 d0 0f 00 00       	add    $0xfd0,%eax
  102254:	89 45 ec             	mov    %eax,-0x14(%ebp)
  102257:	8b 45 ec             	mov    -0x14(%ebp),%eax
  10225a:	25 ff 0f 00 00       	and    $0xfff,%eax
  10225f:	85 c0                	test   %eax,%eax
  102261:	74 1a                	je     10227d <klvalloc+0x53>
  102263:	83 ec 04             	sub    $0x4,%esp
  102266:	68 50 8d 10 00       	push   $0x108d50
  10226b:	68 db 02 00 00       	push   $0x2db
  102270:	68 38 87 10 00       	push   $0x108738
  102275:	e8 62 f0 ff ff       	call   1012dc <__assert_fail>
  10227a:	83 c4 10             	add    $0x10,%esp
  10227d:	8b 45 ec             	mov    -0x14(%ebp),%eax
  102280:	c9                   	leave  
  102281:	c3                   	ret    

00102282 <klrealloc>:
  102282:	55                   	push   %ebp
  102283:	89 e5                	mov    %esp,%ebp
  102285:	83 ec 18             	sub    $0x18,%esp
  102288:	83 7d 08 00          	cmpl   $0x0,0x8(%ebp)
  10228c:	0f 94 c0             	sete   %al
  10228f:	0f b6 c0             	movzbl %al,%eax
  102292:	85 c0                	test   %eax,%eax
  102294:	74 13                	je     1022a9 <klrealloc+0x27>
  102296:	83 ec 0c             	sub    $0xc,%esp
  102299:	ff 75 0c             	push   0xc(%ebp)
  10229c:	e8 78 fa ff ff       	call   101d19 <klmalloc>
  1022a1:	83 c4 10             	add    $0x10,%esp
  1022a4:	e9 da 00 00 00       	jmp    102383 <klrealloc+0x101>
  1022a9:	83 7d 0c 00          	cmpl   $0x0,0xc(%ebp)
  1022ad:	0f 94 c0             	sete   %al
  1022b0:	0f b6 c0             	movzbl %al,%eax
  1022b3:	85 c0                	test   %eax,%eax
  1022b5:	74 18                	je     1022cf <klrealloc+0x4d>
  1022b7:	83 ec 0c             	sub    $0xc,%esp
  1022ba:	ff 75 08             	push   0x8(%ebp)
  1022bd:	e8 e3 f0 ff ff       	call   1013a5 <alloc_free>
  1022c2:	83 c4 10             	add    $0x10,%esp
  1022c5:	b8 00 00 00 00       	mov    $0x0,%eax
  1022ca:	e9 b4 00 00 00       	jmp    102383 <klrealloc+0x101>
  1022cf:	8b 45 08             	mov    0x8(%ebp),%eax
  1022d2:	25 00 f0 ff ff       	and    $0xfffff000,%eax
  1022d7:	89 45 f0             	mov    %eax,-0x10(%ebp)
  1022da:	8b 45 f0             	mov    -0x10(%ebp),%eax
  1022dd:	8b 40 0c             	mov    0xc(%eax),%eax
  1022e0:	3d 0d d0 fa de       	cmp    $0xdefad00d,%eax
  1022e5:	74 21                	je     102308 <klrealloc+0x86>
  1022e7:	83 ec 04             	sub    $0x4,%esp
  1022ea:	68 70 8d 10 00       	push   $0x108d70
  1022ef:	68 f8 02 00 00       	push   $0x2f8
  1022f4:	68 38 87 10 00       	push   $0x108738
  1022f9:	e8 de ef ff ff       	call   1012dc <__assert_fail>
  1022fe:	83 c4 10             	add    $0x10,%esp
  102301:	b8 00 00 00 00       	mov    $0x0,%eax
  102306:	eb 7b                	jmp    102383 <klrealloc+0x101>
  102308:	8b 45 f0             	mov    -0x10(%ebp),%eax
  10230b:	8b 40 08             	mov    0x8(%eax),%eax
  10230e:	89 45 f4             	mov    %eax,-0xc(%ebp)
  102311:	83 7d f4 09          	cmpl   $0x9,-0xc(%ebp)
  102315:	77 14                	ja     10232b <klrealloc+0xa9>
  102317:	8b 45 f4             	mov    -0xc(%ebp),%eax
  10231a:	83 c0 02             	add    $0x2,%eax
  10231d:	ba 01 00 00 00       	mov    $0x1,%edx
  102322:	89 c1                	mov    %eax,%ecx
  102324:	d3 e2                	shl    %cl,%edx
  102326:	89 d0                	mov    %edx,%eax
  102328:	89 45 f4             	mov    %eax,-0xc(%ebp)
  10232b:	8b 45 f4             	mov    -0xc(%ebp),%eax
  10232e:	3b 45 0c             	cmp    0xc(%ebp),%eax
  102331:	72 05                	jb     102338 <klrealloc+0xb6>
  102333:	8b 45 08             	mov    0x8(%ebp),%eax
  102336:	eb 4b                	jmp    102383 <klrealloc+0x101>
  102338:	83 ec 0c             	sub    $0xc,%esp
  10233b:	ff 75 0c             	push   0xc(%ebp)
  10233e:	e8 d6 f9 ff ff       	call   101d19 <klmalloc>
  102343:	83 c4 10             	add    $0x10,%esp
  102346:	89 45 ec             	mov    %eax,-0x14(%ebp)
  102349:	83 7d ec 00          	cmpl   $0x0,-0x14(%ebp)
  10234d:	0f 95 c0             	setne  %al
  102350:	0f b6 c0             	movzbl %al,%eax
  102353:	85 c0                	test   %eax,%eax
  102355:	74 27                	je     10237e <klrealloc+0xfc>
  102357:	83 ec 04             	sub    $0x4,%esp
  10235a:	ff 75 f4             	push   -0xc(%ebp)
  10235d:	ff 75 08             	push   0x8(%ebp)
  102360:	ff 75 ec             	push   -0x14(%ebp)
  102363:	e8 50 3e 00 00       	call   1061b8 <memcpy>
  102368:	83 c4 10             	add    $0x10,%esp
  10236b:	83 ec 0c             	sub    $0xc,%esp
  10236e:	ff 75 08             	push   0x8(%ebp)
  102371:	e8 14 fd ff ff       	call   10208a <klfree>
  102376:	83 c4 10             	add    $0x10,%esp
  102379:	8b 45 ec             	mov    -0x14(%ebp),%eax
  10237c:	eb 05                	jmp    102383 <klrealloc+0x101>
  10237e:	b8 00 00 00 00       	mov    $0x0,%eax
  102383:	c9                   	leave  
  102384:	c3                   	ret    

00102385 <klcalloc>:
  102385:	55                   	push   %ebp
  102386:	89 e5                	mov    %esp,%ebp
  102388:	83 ec 18             	sub    $0x18,%esp
  10238b:	8b 45 08             	mov    0x8(%ebp),%eax
  10238e:	0f af 45 0c          	imul   0xc(%ebp),%eax
  102392:	83 ec 0c             	sub    $0xc,%esp
  102395:	50                   	push   %eax
  102396:	e8 7e f9 ff ff       	call   101d19 <klmalloc>
  10239b:	83 c4 10             	add    $0x10,%esp
  10239e:	89 45 f4             	mov    %eax,-0xc(%ebp)
  1023a1:	83 7d f4 00          	cmpl   $0x0,-0xc(%ebp)
  1023a5:	0f 95 c0             	setne  %al
  1023a8:	0f b6 c0             	movzbl %al,%eax
  1023ab:	85 c0                	test   %eax,%eax
  1023ad:	74 18                	je     1023c7 <klcalloc+0x42>
  1023af:	8b 45 08             	mov    0x8(%ebp),%eax
  1023b2:	0f af 45 0c          	imul   0xc(%ebp),%eax
  1023b6:	83 ec 04             	sub    $0x4,%esp
  1023b9:	50                   	push   %eax
  1023ba:	6a 00                	push   $0x0
  1023bc:	ff 75 f4             	push   -0xc(%ebp)
  1023bf:	e8 35 3e 00 00       	call   1061f9 <memset>
  1023c4:	83 c4 10             	add    $0x10,%esp
  1023c7:	8b 45 f4             	mov    -0xc(%ebp),%eax
  1023ca:	c9                   	leave  
  1023cb:	c3                   	ret    

001023cc <arch_parse_multiboot2>:
  1023cc:	55                   	push   %ebp
  1023cd:	89 e5                	mov    %esp,%ebp
  1023cf:	b8 00 00 00 00       	mov    $0x0,%eax
  1023d4:	5d                   	pop    %ebp
  1023d5:	c3                   	ret    

001023d6 <arch_parse_multiboot1>:
  1023d6:	55                   	push   %ebp
  1023d7:	89 e5                	mov    %esp,%ebp
  1023d9:	53                   	push   %ebx
  1023da:	83 ec 24             	sub    $0x24,%esp
  1023dd:	83 ec 0c             	sub    $0xc,%esp
  1023e0:	6a 18                	push   $0x18
  1023e2:	e8 12 19 00 00       	call   103cf9 <arch_allocate_structure>
  1023e7:	83 c4 10             	add    $0x10,%esp
  1023ea:	89 45 dc             	mov    %eax,-0x24(%ebp)
  1023ed:	8b 45 08             	mov    0x8(%ebp),%eax
  1023f0:	8b 40 10             	mov    0x10(%eax),%eax
  1023f3:	83 ec 0c             	sub    $0xc,%esp
  1023f6:	50                   	push   %eax
  1023f7:	e8 8d 3e 00 00       	call   106289 <strlen>
  1023fc:	83 c4 10             	add    $0x10,%esp
  1023ff:	85 c0                	test   %eax,%eax
  102401:	74 4c                	je     10244f <arch_parse_multiboot1+0x79>
  102403:	8b 45 08             	mov    0x8(%ebp),%eax
  102406:	8b 40 10             	mov    0x10(%eax),%eax
  102409:	83 ec 0c             	sub    $0xc,%esp
  10240c:	50                   	push   %eax
  10240d:	e8 77 3e 00 00       	call   106289 <strlen>
  102412:	83 c4 10             	add    $0x10,%esp
  102415:	8b 55 08             	mov    0x8(%ebp),%edx
  102418:	8b 52 10             	mov    0x10(%edx),%edx
  10241b:	83 ec 08             	sub    $0x8,%esp
  10241e:	50                   	push   %eax
  10241f:	52                   	push   %edx
  102420:	e8 0b 19 00 00       	call   103d30 <arch_relocate_structure>
  102425:	83 c4 10             	add    $0x10,%esp
  102428:	89 c2                	mov    %eax,%edx
  10242a:	8b 45 dc             	mov    -0x24(%ebp),%eax
  10242d:	89 10                	mov    %edx,(%eax)
  10242f:	8b 45 dc             	mov    -0x24(%ebp),%eax
  102432:	8b 18                	mov    (%eax),%ebx
  102434:	8b 45 dc             	mov    -0x24(%ebp),%eax
  102437:	8b 00                	mov    (%eax),%eax
  102439:	83 ec 0c             	sub    $0xc,%esp
  10243c:	50                   	push   %eax
  10243d:	e8 47 3e 00 00       	call   106289 <strlen>
  102442:	83 c4 10             	add    $0x10,%esp
  102445:	83 e8 01             	sub    $0x1,%eax
  102448:	01 d8                	add    %ebx,%eax
  10244a:	c6 00 00             	movb   $0x0,(%eax)
  10244d:	eb 14                	jmp    102463 <arch_parse_multiboot1+0x8d>
  10244f:	83 ec 0c             	sub    $0xc,%esp
  102452:	6a 01                	push   $0x1
  102454:	e8 a0 18 00 00       	call   103cf9 <arch_allocate_structure>
  102459:	83 c4 10             	add    $0x10,%esp
  10245c:	89 c2                	mov    %eax,%edx
  10245e:	8b 45 dc             	mov    -0x24(%ebp),%eax
  102461:	89 10                	mov    %edx,(%eax)
  102463:	8b 45 08             	mov    0x8(%ebp),%eax
  102466:	8b 40 40             	mov    0x40(%eax),%eax
  102469:	83 ec 0c             	sub    $0xc,%esp
  10246c:	50                   	push   %eax
  10246d:	e8 17 3e 00 00       	call   106289 <strlen>
  102472:	83 c4 10             	add    $0x10,%esp
  102475:	85 c0                	test   %eax,%eax
  102477:	74 4f                	je     1024c8 <arch_parse_multiboot1+0xf2>
  102479:	8b 45 08             	mov    0x8(%ebp),%eax
  10247c:	8b 40 40             	mov    0x40(%eax),%eax
  10247f:	83 ec 0c             	sub    $0xc,%esp
  102482:	50                   	push   %eax
  102483:	e8 01 3e 00 00       	call   106289 <strlen>
  102488:	83 c4 10             	add    $0x10,%esp
  10248b:	8b 55 08             	mov    0x8(%ebp),%edx
  10248e:	8b 52 40             	mov    0x40(%edx),%edx
  102491:	83 ec 08             	sub    $0x8,%esp
  102494:	50                   	push   %eax
  102495:	52                   	push   %edx
  102496:	e8 95 18 00 00       	call   103d30 <arch_relocate_structure>
  10249b:	83 c4 10             	add    $0x10,%esp
  10249e:	89 c2                	mov    %eax,%edx
  1024a0:	8b 45 dc             	mov    -0x24(%ebp),%eax
  1024a3:	89 50 04             	mov    %edx,0x4(%eax)
  1024a6:	8b 45 dc             	mov    -0x24(%ebp),%eax
  1024a9:	8b 58 04             	mov    0x4(%eax),%ebx
  1024ac:	8b 45 dc             	mov    -0x24(%ebp),%eax
  1024af:	8b 40 04             	mov    0x4(%eax),%eax
  1024b2:	83 ec 0c             	sub    $0xc,%esp
  1024b5:	50                   	push   %eax
  1024b6:	e8 ce 3d 00 00       	call   106289 <strlen>
  1024bb:	83 c4 10             	add    $0x10,%esp
  1024be:	83 e8 01             	sub    $0x1,%eax
  1024c1:	01 d8                	add    %ebx,%eax
  1024c3:	c6 00 00             	movb   $0x0,(%eax)
  1024c6:	eb 15                	jmp    1024dd <arch_parse_multiboot1+0x107>
  1024c8:	83 ec 0c             	sub    $0xc,%esp
  1024cb:	6a 01                	push   $0x1
  1024cd:	e8 27 18 00 00       	call   103cf9 <arch_allocate_structure>
  1024d2:	83 c4 10             	add    $0x10,%esp
  1024d5:	89 c2                	mov    %eax,%edx
  1024d7:	8b 45 dc             	mov    -0x24(%ebp),%eax
  1024da:	89 50 04             	mov    %edx,0x4(%eax)
  1024dd:	83 ec 0c             	sub    $0xc,%esp
  1024e0:	6a 18                	push   $0x18
  1024e2:	e8 12 18 00 00       	call   103cf9 <arch_allocate_structure>
  1024e7:	83 c4 10             	add    $0x10,%esp
  1024ea:	89 c2                	mov    %eax,%edx
  1024ec:	8b 45 dc             	mov    -0x24(%ebp),%eax
  1024ef:	89 50 0c             	mov    %edx,0xc(%eax)
  1024f2:	8b 45 dc             	mov    -0x24(%ebp),%eax
  1024f5:	8b 48 0c             	mov    0xc(%eax),%ecx
  1024f8:	8b 45 08             	mov    0x8(%ebp),%eax
  1024fb:	8b 50 5c             	mov    0x5c(%eax),%edx
  1024fe:	8b 40 58             	mov    0x58(%eax),%eax
  102501:	89 01                	mov    %eax,(%ecx)
  102503:	89 51 04             	mov    %edx,0x4(%ecx)
  102506:	8b 45 dc             	mov    -0x24(%ebp),%eax
  102509:	8b 40 0c             	mov    0xc(%eax),%eax
  10250c:	8b 55 08             	mov    0x8(%ebp),%edx
  10250f:	8b 52 64             	mov    0x64(%edx),%edx
  102512:	89 50 0c             	mov    %edx,0xc(%eax)
  102515:	8b 45 dc             	mov    -0x24(%ebp),%eax
  102518:	8b 40 0c             	mov    0xc(%eax),%eax
  10251b:	8b 55 08             	mov    0x8(%ebp),%edx
  10251e:	8b 52 68             	mov    0x68(%edx),%edx
  102521:	89 50 10             	mov    %edx,0x10(%eax)
  102524:	8b 45 dc             	mov    -0x24(%ebp),%eax
  102527:	8b 40 0c             	mov    0xc(%eax),%eax
  10252a:	8b 55 08             	mov    0x8(%ebp),%edx
  10252d:	0f b6 52 6c          	movzbl 0x6c(%edx),%edx
  102531:	88 50 14             	mov    %dl,0x14(%eax)
  102534:	8b 45 dc             	mov    -0x24(%ebp),%eax
  102537:	8b 40 0c             	mov    0xc(%eax),%eax
  10253a:	8b 55 08             	mov    0x8(%ebp),%edx
  10253d:	8b 52 60             	mov    0x60(%edx),%edx
  102540:	89 50 08             	mov    %edx,0x8(%eax)
  102543:	8b 45 08             	mov    0x8(%ebp),%eax
  102546:	8b 40 14             	mov    0x14(%eax),%eax
  102549:	85 c0                	test   %eax,%eax
  10254b:	0f 84 51 01 00 00    	je     1026a2 <arch_parse_multiboot1+0x2cc>
  102551:	8b 45 08             	mov    0x8(%ebp),%eax
  102554:	8b 40 18             	mov    0x18(%eax),%eax
  102557:	89 45 f4             	mov    %eax,-0xc(%ebp)
  10255a:	83 ec 0c             	sub    $0xc,%esp
  10255d:	6a 10                	push   $0x10
  10255f:	e8 95 17 00 00       	call   103cf9 <arch_allocate_structure>
  102564:	83 c4 10             	add    $0x10,%esp
  102567:	89 c2                	mov    %eax,%edx
  102569:	8b 45 dc             	mov    -0x24(%ebp),%eax
  10256c:	89 50 08             	mov    %edx,0x8(%eax)
  10256f:	8b 45 f4             	mov    -0xc(%ebp),%eax
  102572:	8b 40 08             	mov    0x8(%eax),%eax
  102575:	83 ec 0c             	sub    $0xc,%esp
  102578:	50                   	push   %eax
  102579:	e8 0b 3d 00 00       	call   106289 <strlen>
  10257e:	83 c4 10             	add    $0x10,%esp
  102581:	8b 55 f4             	mov    -0xc(%ebp),%edx
  102584:	8b 52 08             	mov    0x8(%edx),%edx
  102587:	83 ec 08             	sub    $0x8,%esp
  10258a:	50                   	push   %eax
  10258b:	52                   	push   %edx
  10258c:	e8 9f 17 00 00       	call   103d30 <arch_relocate_structure>
  102591:	83 c4 10             	add    $0x10,%esp
  102594:	89 c2                	mov    %eax,%edx
  102596:	8b 45 dc             	mov    -0x24(%ebp),%eax
  102599:	8b 40 08             	mov    0x8(%eax),%eax
  10259c:	89 50 08             	mov    %edx,0x8(%eax)
  10259f:	8b 45 dc             	mov    -0x24(%ebp),%eax
  1025a2:	8b 40 08             	mov    0x8(%eax),%eax
  1025a5:	8b 55 f4             	mov    -0xc(%ebp),%edx
  1025a8:	8b 12                	mov    (%edx),%edx
  1025aa:	89 10                	mov    %edx,(%eax)
  1025ac:	8b 45 dc             	mov    -0x24(%ebp),%eax
  1025af:	8b 40 08             	mov    0x8(%eax),%eax
  1025b2:	8b 55 f4             	mov    -0xc(%ebp),%edx
  1025b5:	8b 52 04             	mov    0x4(%edx),%edx
  1025b8:	89 50 04             	mov    %edx,0x4(%eax)
  1025bb:	8b 45 08             	mov    0x8(%ebp),%eax
  1025be:	8b 40 14             	mov    0x14(%eax),%eax
  1025c1:	83 f8 01             	cmp    $0x1,%eax
  1025c4:	0f 84 db 00 00 00    	je     1026a5 <arch_parse_multiboot1+0x2cf>
  1025ca:	8b 45 dc             	mov    -0x24(%ebp),%eax
  1025cd:	8b 40 08             	mov    0x8(%eax),%eax
  1025d0:	89 45 f0             	mov    %eax,-0x10(%ebp)
  1025d3:	c7 45 ec 01 00 00 00 	movl   $0x1,-0x14(%ebp)
  1025da:	e9 b2 00 00 00       	jmp    102691 <arch_parse_multiboot1+0x2bb>
  1025df:	83 45 f4 10          	addl   $0x10,-0xc(%ebp)
  1025e3:	83 ec 0c             	sub    $0xc,%esp
  1025e6:	6a 10                	push   $0x10
  1025e8:	e8 0c 17 00 00       	call   103cf9 <arch_allocate_structure>
  1025ed:	83 c4 10             	add    $0x10,%esp
  1025f0:	89 45 d8             	mov    %eax,-0x28(%ebp)
  1025f3:	8b 45 f4             	mov    -0xc(%ebp),%eax
  1025f6:	8b 40 08             	mov    0x8(%eax),%eax
  1025f9:	83 ec 0c             	sub    $0xc,%esp
  1025fc:	50                   	push   %eax
  1025fd:	e8 87 3c 00 00       	call   106289 <strlen>
  102602:	83 c4 10             	add    $0x10,%esp
  102605:	8b 55 f4             	mov    -0xc(%ebp),%edx
  102608:	8b 52 08             	mov    0x8(%edx),%edx
  10260b:	83 ec 08             	sub    $0x8,%esp
  10260e:	50                   	push   %eax
  10260f:	52                   	push   %edx
  102610:	e8 1b 17 00 00       	call   103d30 <arch_relocate_structure>
  102615:	83 c4 10             	add    $0x10,%esp
  102618:	89 c2                	mov    %eax,%edx
  10261a:	8b 45 d8             	mov    -0x28(%ebp),%eax
  10261d:	89 50 08             	mov    %edx,0x8(%eax)
  102620:	8b 45 f4             	mov    -0xc(%ebp),%eax
  102623:	8b 50 04             	mov    0x4(%eax),%edx
  102626:	8b 45 f4             	mov    -0xc(%ebp),%eax
  102629:	8b 00                	mov    (%eax),%eax
  10262b:	29 c2                	sub    %eax,%edx
  10262d:	8b 45 f4             	mov    -0xc(%ebp),%eax
  102630:	8b 00                	mov    (%eax),%eax
  102632:	83 ec 08             	sub    $0x8,%esp
  102635:	52                   	push   %edx
  102636:	50                   	push   %eax
  102637:	e8 f4 16 00 00       	call   103d30 <arch_relocate_structure>
  10263c:	83 c4 10             	add    $0x10,%esp
  10263f:	8b 55 d8             	mov    -0x28(%ebp),%edx
  102642:	89 02                	mov    %eax,(%edx)
  102644:	8b 45 d8             	mov    -0x28(%ebp),%eax
  102647:	8b 10                	mov    (%eax),%edx
  102649:	8b 45 f4             	mov    -0xc(%ebp),%eax
  10264c:	8b 48 04             	mov    0x4(%eax),%ecx
  10264f:	8b 45 f4             	mov    -0xc(%ebp),%eax
  102652:	8b 00                	mov    (%eax),%eax
  102654:	29 c1                	sub    %eax,%ecx
  102656:	01 ca                	add    %ecx,%edx
  102658:	8b 45 d8             	mov    -0x28(%ebp),%eax
  10265b:	89 50 04             	mov    %edx,0x4(%eax)
  10265e:	8b 45 d8             	mov    -0x28(%ebp),%eax
  102661:	8b 58 08             	mov    0x8(%eax),%ebx
  102664:	8b 45 d8             	mov    -0x28(%ebp),%eax
  102667:	8b 40 08             	mov    0x8(%eax),%eax
  10266a:	83 ec 0c             	sub    $0xc,%esp
  10266d:	50                   	push   %eax
  10266e:	e8 16 3c 00 00       	call   106289 <strlen>
  102673:	83 c4 10             	add    $0x10,%esp
  102676:	83 e8 01             	sub    $0x1,%eax
  102679:	01 d8                	add    %ebx,%eax
  10267b:	c6 00 00             	movb   $0x0,(%eax)
  10267e:	8b 45 f0             	mov    -0x10(%ebp),%eax
  102681:	8b 55 d8             	mov    -0x28(%ebp),%edx
  102684:	89 50 0c             	mov    %edx,0xc(%eax)
  102687:	8b 45 d8             	mov    -0x28(%ebp),%eax
  10268a:	89 45 f0             	mov    %eax,-0x10(%ebp)
  10268d:	83 45 ec 01          	addl   $0x1,-0x14(%ebp)
  102691:	8b 45 08             	mov    0x8(%ebp),%eax
  102694:	8b 40 14             	mov    0x14(%eax),%eax
  102697:	39 45 ec             	cmp    %eax,-0x14(%ebp)
  10269a:	0f 82 3f ff ff ff    	jb     1025df <arch_parse_multiboot1+0x209>
  1026a0:	eb 04                	jmp    1026a6 <arch_parse_multiboot1+0x2d0>
  1026a2:	90                   	nop
  1026a3:	eb 01                	jmp    1026a6 <arch_parse_multiboot1+0x2d0>
  1026a5:	90                   	nop
  1026a6:	8b 45 08             	mov    0x8(%ebp),%eax
  1026a9:	8b 40 2c             	mov    0x2c(%eax),%eax
  1026ac:	85 c0                	test   %eax,%eax
  1026ae:	75 17                	jne    1026c7 <arch_parse_multiboot1+0x2f1>
  1026b0:	83 ec 04             	sub    $0x4,%esp
  1026b3:	68 90 8d 10 00       	push   $0x108d90
  1026b8:	68 fe 8d 10 00       	push   $0x108dfe
  1026bd:	6a 02                	push   $0x2
  1026bf:	e8 9d df ff ff       	call   100661 <kernel_panic_extended>
  1026c4:	83 c4 10             	add    $0x10,%esp
  1026c7:	8b 45 08             	mov    0x8(%ebp),%eax
  1026ca:	8b 50 08             	mov    0x8(%eax),%edx
  1026cd:	8b 45 08             	mov    0x8(%ebp),%eax
  1026d0:	8b 40 04             	mov    0x4(%eax),%eax
  1026d3:	01 c2                	add    %eax,%edx
  1026d5:	8b 45 dc             	mov    -0x24(%ebp),%eax
  1026d8:	89 50 14             	mov    %edx,0x14(%eax)
  1026db:	83 ec 0c             	sub    $0xc,%esp
  1026de:	6a 18                	push   $0x18
  1026e0:	e8 14 16 00 00       	call   103cf9 <arch_allocate_structure>
  1026e5:	83 c4 10             	add    $0x10,%esp
  1026e8:	89 c2                	mov    %eax,%edx
  1026ea:	8b 45 dc             	mov    -0x24(%ebp),%eax
  1026ed:	89 50 10             	mov    %edx,0x10(%eax)
  1026f0:	8b 45 dc             	mov    -0x24(%ebp),%eax
  1026f3:	8b 40 10             	mov    0x10(%eax),%eax
  1026f6:	89 45 e4             	mov    %eax,-0x1c(%ebp)
  1026f9:	8b 45 dc             	mov    -0x24(%ebp),%eax
  1026fc:	8b 40 10             	mov    0x10(%eax),%eax
  1026ff:	89 45 e0             	mov    %eax,-0x20(%ebp)
  102702:	8b 45 08             	mov    0x8(%ebp),%eax
  102705:	8b 40 30             	mov    0x30(%eax),%eax
  102708:	89 45 e8             	mov    %eax,-0x18(%ebp)
  10270b:	e9 c0 00 00 00       	jmp    1027d0 <arch_parse_multiboot1+0x3fa>
  102710:	8b 45 e8             	mov    -0x18(%ebp),%eax
  102713:	8b 50 08             	mov    0x8(%eax),%edx
  102716:	8b 40 04             	mov    0x4(%eax),%eax
  102719:	8b 4d e0             	mov    -0x20(%ebp),%ecx
  10271c:	89 01                	mov    %eax,(%ecx)
  10271e:	89 51 04             	mov    %edx,0x4(%ecx)
  102721:	8b 45 e8             	mov    -0x18(%ebp),%eax
  102724:	8b 50 10             	mov    0x10(%eax),%edx
  102727:	8b 40 0c             	mov    0xc(%eax),%eax
  10272a:	8b 4d e0             	mov    -0x20(%ebp),%ecx
  10272d:	89 41 08             	mov    %eax,0x8(%ecx)
  102730:	89 51 0c             	mov    %edx,0xc(%ecx)
  102733:	8b 45 e8             	mov    -0x18(%ebp),%eax
  102736:	8b 40 14             	mov    0x14(%eax),%eax
  102739:	83 f8 05             	cmp    $0x5,%eax
  10273c:	74 3f                	je     10277d <arch_parse_multiboot1+0x3a7>
  10273e:	83 f8 05             	cmp    $0x5,%eax
  102741:	77 46                	ja     102789 <arch_parse_multiboot1+0x3b3>
  102743:	83 f8 04             	cmp    $0x4,%eax
  102746:	74 29                	je     102771 <arch_parse_multiboot1+0x39b>
  102748:	83 f8 04             	cmp    $0x4,%eax
  10274b:	77 3c                	ja     102789 <arch_parse_multiboot1+0x3b3>
  10274d:	83 f8 01             	cmp    $0x1,%eax
  102750:	74 07                	je     102759 <arch_parse_multiboot1+0x383>
  102752:	83 f8 03             	cmp    $0x3,%eax
  102755:	74 0e                	je     102765 <arch_parse_multiboot1+0x38f>
  102757:	eb 30                	jmp    102789 <arch_parse_multiboot1+0x3b3>
  102759:	8b 45 e0             	mov    -0x20(%ebp),%eax
  10275c:	c7 40 10 00 00 00 00 	movl   $0x0,0x10(%eax)
  102763:	eb 2f                	jmp    102794 <arch_parse_multiboot1+0x3be>
  102765:	8b 45 e0             	mov    -0x20(%ebp),%eax
  102768:	c7 40 10 02 00 00 00 	movl   $0x2,0x10(%eax)
  10276f:	eb 23                	jmp    102794 <arch_parse_multiboot1+0x3be>
  102771:	8b 45 e0             	mov    -0x20(%ebp),%eax
  102774:	c7 40 10 03 00 00 00 	movl   $0x3,0x10(%eax)
  10277b:	eb 17                	jmp    102794 <arch_parse_multiboot1+0x3be>
  10277d:	8b 45 e0             	mov    -0x20(%ebp),%eax
  102780:	c7 40 10 04 00 00 00 	movl   $0x4,0x10(%eax)
  102787:	eb 0b                	jmp    102794 <arch_parse_multiboot1+0x3be>
  102789:	8b 45 e0             	mov    -0x20(%ebp),%eax
  10278c:	c7 40 10 01 00 00 00 	movl   $0x1,0x10(%eax)
  102793:	90                   	nop
  102794:	8b 45 08             	mov    0x8(%ebp),%eax
  102797:	8b 50 30             	mov    0x30(%eax),%edx
  10279a:	8b 45 e8             	mov    -0x18(%ebp),%eax
  10279d:	39 c2                	cmp    %eax,%edx
  10279f:	74 0f                	je     1027b0 <arch_parse_multiboot1+0x3da>
  1027a1:	8b 45 e4             	mov    -0x1c(%ebp),%eax
  1027a4:	8b 55 e0             	mov    -0x20(%ebp),%edx
  1027a7:	89 50 14             	mov    %edx,0x14(%eax)
  1027aa:	8b 45 e0             	mov    -0x20(%ebp),%eax
  1027ad:	89 45 e4             	mov    %eax,-0x1c(%ebp)
  1027b0:	83 ec 0c             	sub    $0xc,%esp
  1027b3:	6a 18                	push   $0x18
  1027b5:	e8 3f 15 00 00       	call   103cf9 <arch_allocate_structure>
  1027ba:	83 c4 10             	add    $0x10,%esp
  1027bd:	89 45 e0             	mov    %eax,-0x20(%ebp)
  1027c0:	8b 45 e8             	mov    -0x18(%ebp),%eax
  1027c3:	8b 10                	mov    (%eax),%edx
  1027c5:	8b 45 e8             	mov    -0x18(%ebp),%eax
  1027c8:	01 d0                	add    %edx,%eax
  1027ca:	83 c0 04             	add    $0x4,%eax
  1027cd:	89 45 e8             	mov    %eax,-0x18(%ebp)
  1027d0:	8b 45 08             	mov    0x8(%ebp),%eax
  1027d3:	8b 50 30             	mov    0x30(%eax),%edx
  1027d6:	8b 45 08             	mov    0x8(%ebp),%eax
  1027d9:	8b 40 2c             	mov    0x2c(%eax),%eax
  1027dc:	01 d0                	add    %edx,%eax
  1027de:	8b 55 e8             	mov    -0x18(%ebp),%edx
  1027e1:	39 c2                	cmp    %eax,%edx
  1027e3:	0f 82 27 ff ff ff    	jb     102710 <arch_parse_multiboot1+0x33a>
  1027e9:	8b 45 e4             	mov    -0x1c(%ebp),%eax
  1027ec:	c7 40 14 00 00 00 00 	movl   $0x0,0x14(%eax)
  1027f3:	8b 45 dc             	mov    -0x24(%ebp),%eax
  1027f6:	8b 5d fc             	mov    -0x4(%ebp),%ebx
  1027f9:	c9                   	leave  
  1027fa:	c3                   	ret    

001027fb <arch_mark_memory>:
  1027fb:	55                   	push   %ebp
  1027fc:	89 e5                	mov    %esp,%ebp
  1027fe:	57                   	push   %edi
  1027ff:	56                   	push   %esi
  102800:	53                   	push   %ebx
  102801:	83 ec 1c             	sub    $0x1c,%esp
  102804:	8b 45 08             	mov    0x8(%ebp),%eax
  102807:	8b 40 10             	mov    0x10(%eax),%eax
  10280a:	89 45 e4             	mov    %eax,-0x1c(%ebp)
  10280d:	e9 cf 00 00 00       	jmp    1028e1 <arch_mark_memory+0xe6>
  102812:	8b 45 e4             	mov    -0x1c(%ebp),%eax
  102815:	8b 50 04             	mov    0x4(%eax),%edx
  102818:	8b 00                	mov    (%eax),%eax
  10281a:	83 fa 00             	cmp    $0x0,%edx
  10281d:	76 3c                	jbe    10285b <arch_mark_memory+0x60>
  10281f:	8b 45 e4             	mov    -0x1c(%ebp),%eax
  102822:	8b 48 08             	mov    0x8(%eax),%ecx
  102825:	8b 58 0c             	mov    0xc(%eax),%ebx
  102828:	8b 45 e4             	mov    -0x1c(%ebp),%eax
  10282b:	8b 50 04             	mov    0x4(%eax),%edx
  10282e:	8b 00                	mov    (%eax),%eax
  102830:	53                   	push   %ebx
  102831:	51                   	push   %ecx
  102832:	52                   	push   %edx
  102833:	50                   	push   %eax
  102834:	68 04 8e 10 00       	push   $0x108e04
  102839:	6a 02                	push   $0x2
  10283b:	68 b7 00 00 00       	push   $0xb7
  102840:	68 5b 8e 10 00       	push   $0x108e5b
  102845:	e8 58 dc ff ff       	call   1004a2 <dprintf_internal>
  10284a:	83 c4 20             	add    $0x20,%esp
  10284d:	8b 45 e4             	mov    -0x1c(%ebp),%eax
  102850:	8b 40 14             	mov    0x14(%eax),%eax
  102853:	89 45 e4             	mov    %eax,-0x1c(%ebp)
  102856:	e9 86 00 00 00       	jmp    1028e1 <arch_mark_memory+0xe6>
  10285b:	8b 45 e4             	mov    -0x1c(%ebp),%eax
  10285e:	8b 40 10             	mov    0x10(%eax),%eax
  102861:	85 c0                	test   %eax,%eax
  102863:	75 73                	jne    1028d8 <arch_mark_memory+0xdd>
  102865:	8b 45 e4             	mov    -0x1c(%ebp),%eax
  102868:	8b 50 0c             	mov    0xc(%eax),%edx
  10286b:	8b 40 08             	mov    0x8(%eax),%eax
  10286e:	0f ac d0 0a          	shrd   $0xa,%edx,%eax
  102872:	c1 ea 0a             	shr    $0xa,%edx
  102875:	89 c1                	mov    %eax,%ecx
  102877:	89 d3                	mov    %edx,%ebx
  102879:	8b 45 e4             	mov    -0x1c(%ebp),%eax
  10287c:	8b 30                	mov    (%eax),%esi
  10287e:	8b 78 04             	mov    0x4(%eax),%edi
  102881:	8b 45 e4             	mov    -0x1c(%ebp),%eax
  102884:	8b 50 0c             	mov    0xc(%eax),%edx
  102887:	8b 40 08             	mov    0x8(%eax),%eax
  10288a:	01 c6                	add    %eax,%esi
  10288c:	11 d7                	adc    %edx,%edi
  10288e:	8b 45 e4             	mov    -0x1c(%ebp),%eax
  102891:	8b 50 04             	mov    0x4(%eax),%edx
  102894:	8b 00                	mov    (%eax),%eax
  102896:	83 ec 08             	sub    $0x8,%esp
  102899:	53                   	push   %ebx
  10289a:	51                   	push   %ecx
  10289b:	57                   	push   %edi
  10289c:	56                   	push   %esi
  10289d:	52                   	push   %edx
  10289e:	50                   	push   %eax
  10289f:	68 74 8e 10 00       	push   $0x108e74
  1028a4:	6a 04                	push   $0x4
  1028a6:	68 bd 00 00 00       	push   $0xbd
  1028ab:	68 5b 8e 10 00       	push   $0x108e5b
  1028b0:	e8 ed db ff ff       	call   1004a2 <dprintf_internal>
  1028b5:	83 c4 30             	add    $0x30,%esp
  1028b8:	8b 45 e4             	mov    -0x1c(%ebp),%eax
  1028bb:	8b 50 0c             	mov    0xc(%eax),%edx
  1028be:	8b 40 08             	mov    0x8(%eax),%eax
  1028c1:	89 c1                	mov    %eax,%ecx
  1028c3:	8b 45 e4             	mov    -0x1c(%ebp),%eax
  1028c6:	8b 50 04             	mov    0x4(%eax),%edx
  1028c9:	8b 00                	mov    (%eax),%eax
  1028cb:	83 ec 08             	sub    $0x8,%esp
  1028ce:	51                   	push   %ecx
  1028cf:	50                   	push   %eax
  1028d0:	e8 5a e6 ff ff       	call   100f2f <pmm_initializeRegion>
  1028d5:	83 c4 10             	add    $0x10,%esp
  1028d8:	8b 45 e4             	mov    -0x1c(%ebp),%eax
  1028db:	8b 40 14             	mov    0x14(%eax),%eax
  1028de:	89 45 e4             	mov    %eax,-0x1c(%ebp)
  1028e1:	83 7d e4 00          	cmpl   $0x0,-0x1c(%ebp)
  1028e5:	0f 85 27 ff ff ff    	jne    102812 <arch_mark_memory+0x17>
  1028eb:	68 bc 8e 10 00       	push   $0x108ebc
  1028f0:	6a 04                	push   $0x4
  1028f2:	68 c9 00 00 00       	push   $0xc9
  1028f7:	68 5b 8e 10 00       	push   $0x108e5b
  1028fc:	e8 a1 db ff ff       	call   1004a2 <dprintf_internal>
  102901:	83 c4 10             	add    $0x10,%esp
  102904:	83 ec 08             	sub    $0x8,%esp
  102907:	68 00 00 10 00       	push   $0x100000
  10290c:	6a 00                	push   $0x0
  10290e:	e8 77 e6 ff ff       	call   100f8a <pmm_deinitializeRegion>
  102913:	83 c4 10             	add    $0x10,%esp
  102916:	c7 45 e0 b0 00 10 00 	movl   $0x1000b0,-0x20(%ebp)
  10291d:	8b 45 0c             	mov    0xc(%ebp),%eax
  102920:	2b 45 e0             	sub    -0x20(%ebp),%eax
  102923:	c1 e8 0a             	shr    $0xa,%eax
  102926:	83 ec 04             	sub    $0x4,%esp
  102929:	50                   	push   %eax
  10292a:	ff 75 0c             	push   0xc(%ebp)
  10292d:	ff 75 e0             	push   -0x20(%ebp)
  102930:	68 04 8f 10 00       	push   $0x108f04
  102935:	6a 04                	push   $0x4
  102937:	68 cf 00 00 00       	push   $0xcf
  10293c:	68 5b 8e 10 00       	push   $0x108e5b
  102941:	e8 5c db ff ff       	call   1004a2 <dprintf_internal>
  102946:	83 c4 20             	add    $0x20,%esp
  102949:	8b 45 0c             	mov    0xc(%ebp),%eax
  10294c:	2b 45 e0             	sub    -0x20(%ebp),%eax
  10294f:	83 ec 08             	sub    $0x8,%esp
  102952:	50                   	push   %eax
  102953:	ff 75 e0             	push   -0x20(%ebp)
  102956:	e8 2f e6 ff ff       	call   100f8a <pmm_deinitializeRegion>
  10295b:	83 c4 10             	add    $0x10,%esp
  10295e:	e8 32 e8 ff ff       	call   101195 <pmm_getMaximumBlocks>
  102963:	89 c3                	mov    %eax,%ebx
  102965:	e8 3f e8 ff ff       	call   1011a9 <pmm_getFreeBlocks>
  10296a:	83 ec 08             	sub    $0x8,%esp
  10296d:	53                   	push   %ebx
  10296e:	50                   	push   %eax
  10296f:	68 48 8f 10 00       	push   $0x108f48
  102974:	6a 04                	push   $0x4
  102976:	68 d2 00 00 00       	push   $0xd2
  10297b:	68 5b 8e 10 00       	push   $0x108e5b
  102980:	e8 1d db ff ff       	call   1004a2 <dprintf_internal>
  102985:	83 c4 20             	add    $0x20,%esp
  102988:	90                   	nop
  102989:	8d 65 f4             	lea    -0xc(%ebp),%esp
  10298c:	5b                   	pop    %ebx
  10298d:	5e                   	pop    %esi
  10298e:	5f                   	pop    %edi
  10298f:	5d                   	pop    %ebp
  102990:	c3                   	ret    

00102991 <hal_endInterrupt>:
  102991:	55                   	push   %ebp
  102992:	89 e5                	mov    %esp,%ebp
  102994:	83 ec 08             	sub    $0x8,%esp
  102997:	83 7d 08 08          	cmpl   $0x8,0x8(%ebp)
  10299b:	76 12                	jbe    1029af <hal_endInterrupt+0x1e>
  10299d:	83 ec 08             	sub    $0x8,%esp
  1029a0:	6a 20                	push   $0x20
  1029a2:	68 a0 00 00 00       	push   $0xa0
  1029a7:	e8 ef 11 00 00       	call   103b9b <outportb>
  1029ac:	83 c4 10             	add    $0x10,%esp
  1029af:	83 ec 08             	sub    $0x8,%esp
  1029b2:	6a 20                	push   $0x20
  1029b4:	6a 20                	push   $0x20
  1029b6:	e8 e0 11 00 00       	call   103b9b <outportb>
  1029bb:	83 c4 10             	add    $0x10,%esp
  1029be:	90                   	nop
  1029bf:	c9                   	leave  
  1029c0:	c3                   	ret    

001029c1 <hal_exceptionHandler>:
  1029c1:	55                   	push   %ebp
  1029c2:	89 e5                	mov    %esp,%ebp
  1029c4:	53                   	push   %ebx
  1029c5:	83 ec 14             	sub    $0x14,%esp
  1029c8:	83 ec 0c             	sub    $0xc,%esp
  1029cb:	6a 05                	push   $0x5
  1029cd:	e8 85 de ff ff       	call   100857 <kernel_panic_prepare>
  1029d2:	83 c4 10             	add    $0x10,%esp
  1029d5:	83 7d 08 0e          	cmpl   $0xe,0x8(%ebp)
  1029d9:	75 2b                	jne    102a06 <hal_exceptionHandler+0x45>
  1029db:	c7 45 f4 00 00 00 00 	movl   $0x0,-0xc(%ebp)
  1029e2:	0f 20 d0             	mov    %cr2,%eax
  1029e5:	89 45 f4             	mov    %eax,-0xc(%ebp)
  1029e8:	83 ec 0c             	sub    $0xc,%esp
  1029eb:	ff 75 f4             	push   -0xc(%ebp)
  1029ee:	68 64 91 10 00       	push   $0x109164
  1029f3:	6a 00                	push   $0x0
  1029f5:	6a 60                	push   $0x60
  1029f7:	68 9d 91 10 00       	push   $0x10919d
  1029fc:	e8 a1 da ff ff       	call   1004a2 <dprintf_internal>
  102a01:	83 c4 20             	add    $0x20,%esp
  102a04:	eb 4b                	jmp    102a51 <hal_exceptionHandler+0x90>
  102a06:	83 7d 08 1e          	cmpl   $0x1e,0x8(%ebp)
  102a0a:	77 29                	ja     102a35 <hal_exceptionHandler+0x74>
  102a0c:	8b 45 08             	mov    0x8(%ebp),%eax
  102a0f:	8b 04 85 80 a0 10 00 	mov    0x10a080(,%eax,4),%eax
  102a16:	83 ec 08             	sub    $0x8,%esp
  102a19:	50                   	push   %eax
  102a1a:	ff 75 08             	push   0x8(%ebp)
  102a1d:	68 b4 91 10 00       	push   $0x1091b4
  102a22:	6a 00                	push   $0x0
  102a24:	6a 62                	push   $0x62
  102a26:	68 9d 91 10 00       	push   $0x10919d
  102a2b:	e8 72 da ff ff       	call   1004a2 <dprintf_internal>
  102a30:	83 c4 20             	add    $0x20,%esp
  102a33:	eb 1c                	jmp    102a51 <hal_exceptionHandler+0x90>
  102a35:	83 ec 0c             	sub    $0xc,%esp
  102a38:	ff 75 08             	push   0x8(%ebp)
  102a3b:	68 dc 91 10 00       	push   $0x1091dc
  102a40:	6a 00                	push   $0x0
  102a42:	6a 64                	push   $0x64
  102a44:	68 9d 91 10 00       	push   $0x10919d
  102a49:	e8 54 da ff ff       	call   1004a2 <dprintf_internal>
  102a4e:	83 c4 20             	add    $0x20,%esp
  102a51:	68 0c 92 10 00       	push   $0x10920c
  102a56:	6a 00                	push   $0x0
  102a58:	6a 69                	push   $0x69
  102a5a:	68 9d 91 10 00       	push   $0x10919d
  102a5f:	e8 3e da ff ff       	call   1004a2 <dprintf_internal>
  102a64:	83 c4 10             	add    $0x10,%esp
  102a67:	8b 45 0c             	mov    0xc(%ebp),%eax
  102a6a:	8b 58 20             	mov    0x20(%eax),%ebx
  102a6d:	8b 45 0c             	mov    0xc(%ebp),%eax
  102a70:	8b 48 24             	mov    0x24(%eax),%ecx
  102a73:	8b 45 0c             	mov    0xc(%ebp),%eax
  102a76:	8b 50 1c             	mov    0x1c(%eax),%edx
  102a79:	8b 45 0c             	mov    0xc(%ebp),%eax
  102a7c:	8b 40 28             	mov    0x28(%eax),%eax
  102a7f:	53                   	push   %ebx
  102a80:	51                   	push   %ecx
  102a81:	52                   	push   %edx
  102a82:	50                   	push   %eax
  102a83:	68 2c 92 10 00       	push   $0x10922c
  102a88:	6a 00                	push   $0x0
  102a8a:	6a 6b                	push   $0x6b
  102a8c:	68 9d 91 10 00       	push   $0x10919d
  102a91:	e8 0c da ff ff       	call   1004a2 <dprintf_internal>
  102a96:	83 c4 20             	add    $0x20,%esp
  102a99:	8b 45 0c             	mov    0xc(%ebp),%eax
  102a9c:	8b 58 18             	mov    0x18(%eax),%ebx
  102a9f:	8b 45 0c             	mov    0xc(%ebp),%eax
  102aa2:	8b 48 14             	mov    0x14(%eax),%ecx
  102aa5:	8b 45 0c             	mov    0xc(%ebp),%eax
  102aa8:	8b 50 10             	mov    0x10(%eax),%edx
  102aab:	8b 45 0c             	mov    0xc(%ebp),%eax
  102aae:	8b 40 0c             	mov    0xc(%eax),%eax
  102ab1:	53                   	push   %ebx
  102ab2:	51                   	push   %ecx
  102ab3:	52                   	push   %edx
  102ab4:	50                   	push   %eax
  102ab5:	68 54 92 10 00       	push   $0x109254
  102aba:	6a 00                	push   $0x0
  102abc:	6a 6c                	push   $0x6c
  102abe:	68 9d 91 10 00       	push   $0x10919d
  102ac3:	e8 da d9 ff ff       	call   1004a2 <dprintf_internal>
  102ac8:	83 c4 20             	add    $0x20,%esp
  102acb:	8b 45 0c             	mov    0xc(%ebp),%eax
  102ace:	8b 50 30             	mov    0x30(%eax),%edx
  102ad1:	8b 45 0c             	mov    0xc(%ebp),%eax
  102ad4:	8b 40 2c             	mov    0x2c(%eax),%eax
  102ad7:	83 ec 08             	sub    $0x8,%esp
  102ada:	52                   	push   %edx
  102adb:	50                   	push   %eax
  102adc:	68 79 92 10 00       	push   $0x109279
  102ae1:	6a 00                	push   $0x0
  102ae3:	6a 6d                	push   $0x6d
  102ae5:	68 9d 91 10 00       	push   $0x10919d
  102aea:	e8 b3 d9 ff ff       	call   1004a2 <dprintf_internal>
  102aef:	83 c4 20             	add    $0x20,%esp
  102af2:	8b 45 0c             	mov    0xc(%ebp),%eax
  102af5:	8b 58 08             	mov    0x8(%eax),%ebx
  102af8:	8b 45 0c             	mov    0xc(%ebp),%eax
  102afb:	8b 48 04             	mov    0x4(%eax),%ecx
  102afe:	8b 45 0c             	mov    0xc(%ebp),%eax
  102b01:	8b 10                	mov    (%eax),%edx
  102b03:	8b 45 0c             	mov    0xc(%ebp),%eax
  102b06:	8b 40 34             	mov    0x34(%eax),%eax
  102b09:	53                   	push   %ebx
  102b0a:	51                   	push   %ecx
  102b0b:	52                   	push   %edx
  102b0c:	50                   	push   %eax
  102b0d:	68 90 92 10 00       	push   $0x109290
  102b12:	6a 00                	push   $0x0
  102b14:	6a 6e                	push   $0x6e
  102b16:	68 9d 91 10 00       	push   $0x10919d
  102b1b:	e8 82 d9 ff ff       	call   1004a2 <dprintf_internal>
  102b20:	83 c4 20             	add    $0x20,%esp
  102b23:	8b 45 10             	mov    0x10(%ebp),%eax
  102b26:	0f b7 40 16          	movzwl 0x16(%eax),%eax
  102b2a:	0f b7 d8             	movzwl %ax,%ebx
  102b2d:	8b 45 10             	mov    0x10(%ebp),%eax
  102b30:	8b 48 18             	mov    0x18(%eax),%ecx
  102b33:	8b 45 10             	mov    0x10(%ebp),%eax
  102b36:	0f b7 40 10          	movzwl 0x10(%eax),%eax
  102b3a:	0f b7 d0             	movzwl %ax,%edx
  102b3d:	8b 45 10             	mov    0x10(%ebp),%eax
  102b40:	8b 40 12             	mov    0x12(%eax),%eax
  102b43:	53                   	push   %ebx
  102b44:	51                   	push   %ecx
  102b45:	52                   	push   %edx
  102b46:	50                   	push   %eax
  102b47:	68 b4 92 10 00       	push   $0x1092b4
  102b4c:	6a 00                	push   $0x0
  102b4e:	6a 6f                	push   $0x6f
  102b50:	68 9d 91 10 00       	push   $0x10919d
  102b55:	e8 48 d9 ff ff       	call   1004a2 <dprintf_internal>
  102b5a:	83 c4 20             	add    $0x20,%esp
  102b5d:	e8 85 dd ff ff       	call   1008e7 <kernel_panic_finalize>
  102b62:	90                   	nop
  102b63:	eb fd                	jmp    102b62 <hal_exceptionHandler+0x1a1>

00102b65 <hal_interruptHandler>:
  102b65:	55                   	push   %ebp
  102b66:	89 e5                	mov    %esp,%ebp
  102b68:	83 ec 18             	sub    $0x18,%esp
  102b6b:	8b 45 0c             	mov    0xc(%ebp),%eax
  102b6e:	8b 04 85 20 bb 10 00 	mov    0x10bb20(,%eax,4),%eax
  102b75:	85 c0                	test   %eax,%eax
  102b77:	74 3c                	je     102bb5 <hal_interruptHandler+0x50>
  102b79:	8b 45 0c             	mov    0xc(%ebp),%eax
  102b7c:	8b 04 85 20 bb 10 00 	mov    0x10bb20(,%eax,4),%eax
  102b83:	89 45 f4             	mov    %eax,-0xc(%ebp)
  102b86:	ff 75 14             	push   0x14(%ebp)
  102b89:	ff 75 10             	push   0x10(%ebp)
  102b8c:	ff 75 0c             	push   0xc(%ebp)
  102b8f:	ff 75 08             	push   0x8(%ebp)
  102b92:	8b 45 f4             	mov    -0xc(%ebp),%eax
  102b95:	ff d0                	call   *%eax
  102b97:	83 c4 10             	add    $0x10,%esp
  102b9a:	89 45 f0             	mov    %eax,-0x10(%ebp)
  102b9d:	83 7d f0 00          	cmpl   $0x0,-0x10(%ebp)
  102ba1:	74 12                	je     102bb5 <hal_interruptHandler+0x50>
  102ba3:	83 ec 08             	sub    $0x8,%esp
  102ba6:	68 d3 92 10 00       	push   $0x1092d3
  102bab:	6a 04                	push   $0x4
  102bad:	e8 b8 db ff ff       	call   10076a <kernel_panic>
  102bb2:	83 c4 10             	add    $0x10,%esp
  102bb5:	83 ec 0c             	sub    $0xc,%esp
  102bb8:	ff 75 0c             	push   0xc(%ebp)
  102bbb:	e8 d1 fd ff ff       	call   102991 <hal_endInterrupt>
  102bc0:	83 c4 10             	add    $0x10,%esp
  102bc3:	90                   	nop
  102bc4:	c9                   	leave  
  102bc5:	c3                   	ret    

00102bc6 <hal_registerInterruptHandler>:
  102bc6:	55                   	push   %ebp
  102bc7:	89 e5                	mov    %esp,%ebp
  102bc9:	8b 45 08             	mov    0x8(%ebp),%eax
  102bcc:	8b 04 85 20 bb 10 00 	mov    0x10bb20(,%eax,4),%eax
  102bd3:	85 c0                	test   %eax,%eax
  102bd5:	74 07                	je     102bde <hal_registerInterruptHandler+0x18>
  102bd7:	b8 ea ff ff ff       	mov    $0xffffffea,%eax
  102bdc:	eb 12                	jmp    102bf0 <hal_registerInterruptHandler+0x2a>
  102bde:	8b 45 08             	mov    0x8(%ebp),%eax
  102be1:	8b 55 0c             	mov    0xc(%ebp),%edx
  102be4:	89 14 85 20 bb 10 00 	mov    %edx,0x10bb20(,%eax,4)
  102beb:	b8 00 00 00 00       	mov    $0x0,%eax
  102bf0:	5d                   	pop    %ebp
  102bf1:	c3                   	ret    

00102bf2 <hal_unregisterInterruptHandler>:
  102bf2:	55                   	push   %ebp
  102bf3:	89 e5                	mov    %esp,%ebp
  102bf5:	8b 45 08             	mov    0x8(%ebp),%eax
  102bf8:	c7 04 85 20 bb 10 00 	movl   $0x0,0x10bb20(,%eax,4)
  102bff:	00 00 00 00 
  102c03:	90                   	nop
  102c04:	5d                   	pop    %ebp
  102c05:	c3                   	ret    

00102c06 <hal_registerInterruptVector>:
  102c06:	55                   	push   %ebp
  102c07:	89 e5                	mov    %esp,%ebp
  102c09:	83 ec 0c             	sub    $0xc,%esp
  102c0c:	8b 4d 08             	mov    0x8(%ebp),%ecx
  102c0f:	8b 55 0c             	mov    0xc(%ebp),%edx
  102c12:	8b 45 10             	mov    0x10(%ebp),%eax
  102c15:	88 4d fc             	mov    %cl,-0x4(%ebp)
  102c18:	88 55 f8             	mov    %dl,-0x8(%ebp)
  102c1b:	66 89 45 f4          	mov    %ax,-0xc(%ebp)
  102c1f:	0f b6 45 fc          	movzbl -0x4(%ebp),%eax
  102c23:	8b 55 14             	mov    0x14(%ebp),%edx
  102c26:	66 89 14 c5 20 b3 10 	mov    %dx,0x10b320(,%eax,8)
  102c2d:	00 
  102c2e:	8b 45 14             	mov    0x14(%ebp),%eax
  102c31:	c1 e8 10             	shr    $0x10,%eax
  102c34:	89 c2                	mov    %eax,%edx
  102c36:	0f b6 45 fc          	movzbl -0x4(%ebp),%eax
  102c3a:	66 89 14 c5 26 b3 10 	mov    %dx,0x10b326(,%eax,8)
  102c41:	00 
  102c42:	0f b6 45 fc          	movzbl -0x4(%ebp),%eax
  102c46:	0f b7 55 f4          	movzwl -0xc(%ebp),%edx
  102c4a:	66 89 14 c5 22 b3 10 	mov    %dx,0x10b322(,%eax,8)
  102c51:	00 
  102c52:	0f b6 45 fc          	movzbl -0x4(%ebp),%eax
  102c56:	0f b6 55 f8          	movzbl -0x8(%ebp),%edx
  102c5a:	88 14 c5 25 b3 10 00 	mov    %dl,0x10b325(,%eax,8)
  102c61:	b8 00 00 00 00       	mov    $0x0,%eax
  102c66:	c9                   	leave  
  102c67:	c3                   	ret    

00102c68 <hal_initializePIC>:
  102c68:	55                   	push   %ebp
  102c69:	89 e5                	mov    %esp,%ebp
  102c6b:	83 ec 18             	sub    $0x18,%esp
  102c6e:	83 ec 0c             	sub    $0xc,%esp
  102c71:	6a 21                	push   $0x21
  102c73:	e8 7b 0f 00 00       	call   103bf3 <inportb>
  102c78:	83 c4 10             	add    $0x10,%esp
  102c7b:	88 45 f7             	mov    %al,-0x9(%ebp)
  102c7e:	83 ec 0c             	sub    $0xc,%esp
  102c81:	68 a1 00 00 00       	push   $0xa1
  102c86:	e8 68 0f 00 00       	call   103bf3 <inportb>
  102c8b:	83 c4 10             	add    $0x10,%esp
  102c8e:	88 45 f6             	mov    %al,-0xa(%ebp)
  102c91:	83 ec 08             	sub    $0x8,%esp
  102c94:	6a 11                	push   $0x11
  102c96:	6a 20                	push   $0x20
  102c98:	e8 fe 0e 00 00       	call   103b9b <outportb>
  102c9d:	83 c4 10             	add    $0x10,%esp
  102ca0:	83 ec 08             	sub    $0x8,%esp
  102ca3:	6a 11                	push   $0x11
  102ca5:	68 a0 00 00 00       	push   $0xa0
  102caa:	e8 ec 0e 00 00       	call   103b9b <outportb>
  102caf:	83 c4 10             	add    $0x10,%esp
  102cb2:	83 ec 08             	sub    $0x8,%esp
  102cb5:	6a 20                	push   $0x20
  102cb7:	6a 21                	push   $0x21
  102cb9:	e8 dd 0e 00 00       	call   103b9b <outportb>
  102cbe:	83 c4 10             	add    $0x10,%esp
  102cc1:	83 ec 08             	sub    $0x8,%esp
  102cc4:	6a 28                	push   $0x28
  102cc6:	68 a1 00 00 00       	push   $0xa1
  102ccb:	e8 cb 0e 00 00       	call   103b9b <outportb>
  102cd0:	83 c4 10             	add    $0x10,%esp
  102cd3:	83 ec 08             	sub    $0x8,%esp
  102cd6:	6a 04                	push   $0x4
  102cd8:	6a 21                	push   $0x21
  102cda:	e8 bc 0e 00 00       	call   103b9b <outportb>
  102cdf:	83 c4 10             	add    $0x10,%esp
  102ce2:	83 ec 08             	sub    $0x8,%esp
  102ce5:	6a 02                	push   $0x2
  102ce7:	68 a1 00 00 00       	push   $0xa1
  102cec:	e8 aa 0e 00 00       	call   103b9b <outportb>
  102cf1:	83 c4 10             	add    $0x10,%esp
  102cf4:	83 ec 08             	sub    $0x8,%esp
  102cf7:	6a 01                	push   $0x1
  102cf9:	6a 21                	push   $0x21
  102cfb:	e8 9b 0e 00 00       	call   103b9b <outportb>
  102d00:	83 c4 10             	add    $0x10,%esp
  102d03:	83 ec 08             	sub    $0x8,%esp
  102d06:	6a 01                	push   $0x1
  102d08:	68 a1 00 00 00       	push   $0xa1
  102d0d:	e8 89 0e 00 00       	call   103b9b <outportb>
  102d12:	83 c4 10             	add    $0x10,%esp
  102d15:	0f b6 45 f7          	movzbl -0x9(%ebp),%eax
  102d19:	83 ec 08             	sub    $0x8,%esp
  102d1c:	50                   	push   %eax
  102d1d:	6a 21                	push   $0x21
  102d1f:	e8 77 0e 00 00       	call   103b9b <outportb>
  102d24:	83 c4 10             	add    $0x10,%esp
  102d27:	0f b6 45 f6          	movzbl -0xa(%ebp),%eax
  102d2b:	83 ec 08             	sub    $0x8,%esp
  102d2e:	50                   	push   %eax
  102d2f:	68 a1 00 00 00       	push   $0xa1
  102d34:	e8 62 0e 00 00       	call   103b9b <outportb>
  102d39:	83 c4 10             	add    $0x10,%esp
  102d3c:	90                   	nop
  102d3d:	c9                   	leave  
  102d3e:	c3                   	ret    

00102d3f <hal_initializeInterrupts>:
  102d3f:	55                   	push   %ebp
  102d40:	89 e5                	mov    %esp,%ebp
  102d42:	83 ec 18             	sub    $0x18,%esp
  102d45:	e8 00 21 00 00       	call   104e4a <hal_installGDT>
  102d4a:	83 ec 04             	sub    $0x4,%esp
  102d4d:	68 f8 07 00 00       	push   $0x7f8
  102d52:	6a 00                	push   $0x0
  102d54:	68 20 b3 10 00       	push   $0x10b320
  102d59:	e8 9b 34 00 00       	call   1061f9 <memset>
  102d5e:	83 c4 10             	add    $0x10,%esp
  102d61:	b8 0c 4b 10 00       	mov    $0x104b0c,%eax
  102d66:	50                   	push   %eax
  102d67:	6a 08                	push   $0x8
  102d69:	68 8e 00 00 00       	push   $0x8e
  102d6e:	6a 00                	push   $0x0
  102d70:	e8 91 fe ff ff       	call   102c06 <hal_registerInterruptVector>
  102d75:	83 c4 10             	add    $0x10,%esp
  102d78:	b8 1d 4b 10 00       	mov    $0x104b1d,%eax
  102d7d:	50                   	push   %eax
  102d7e:	6a 08                	push   $0x8
  102d80:	68 8e 00 00 00       	push   $0x8e
  102d85:	6a 01                	push   $0x1
  102d87:	e8 7a fe ff ff       	call   102c06 <hal_registerInterruptVector>
  102d8c:	83 c4 10             	add    $0x10,%esp
  102d8f:	b8 2e 4b 10 00       	mov    $0x104b2e,%eax
  102d94:	50                   	push   %eax
  102d95:	6a 08                	push   $0x8
  102d97:	68 8e 00 00 00       	push   $0x8e
  102d9c:	6a 02                	push   $0x2
  102d9e:	e8 63 fe ff ff       	call   102c06 <hal_registerInterruptVector>
  102da3:	83 c4 10             	add    $0x10,%esp
  102da6:	b8 3f 4b 10 00       	mov    $0x104b3f,%eax
  102dab:	50                   	push   %eax
  102dac:	6a 08                	push   $0x8
  102dae:	68 8e 00 00 00       	push   $0x8e
  102db3:	6a 03                	push   $0x3
  102db5:	e8 4c fe ff ff       	call   102c06 <hal_registerInterruptVector>
  102dba:	83 c4 10             	add    $0x10,%esp
  102dbd:	b8 50 4b 10 00       	mov    $0x104b50,%eax
  102dc2:	50                   	push   %eax
  102dc3:	6a 08                	push   $0x8
  102dc5:	68 8e 00 00 00       	push   $0x8e
  102dca:	6a 04                	push   $0x4
  102dcc:	e8 35 fe ff ff       	call   102c06 <hal_registerInterruptVector>
  102dd1:	83 c4 10             	add    $0x10,%esp
  102dd4:	b8 61 4b 10 00       	mov    $0x104b61,%eax
  102dd9:	50                   	push   %eax
  102dda:	6a 08                	push   $0x8
  102ddc:	68 8e 00 00 00       	push   $0x8e
  102de1:	6a 05                	push   $0x5
  102de3:	e8 1e fe ff ff       	call   102c06 <hal_registerInterruptVector>
  102de8:	83 c4 10             	add    $0x10,%esp
  102deb:	b8 72 4b 10 00       	mov    $0x104b72,%eax
  102df0:	50                   	push   %eax
  102df1:	6a 08                	push   $0x8
  102df3:	68 8e 00 00 00       	push   $0x8e
  102df8:	6a 06                	push   $0x6
  102dfa:	e8 07 fe ff ff       	call   102c06 <hal_registerInterruptVector>
  102dff:	83 c4 10             	add    $0x10,%esp
  102e02:	b8 83 4b 10 00       	mov    $0x104b83,%eax
  102e07:	50                   	push   %eax
  102e08:	6a 08                	push   $0x8
  102e0a:	68 8e 00 00 00       	push   $0x8e
  102e0f:	6a 07                	push   $0x7
  102e11:	e8 f0 fd ff ff       	call   102c06 <hal_registerInterruptVector>
  102e16:	83 c4 10             	add    $0x10,%esp
  102e19:	b8 94 4b 10 00       	mov    $0x104b94,%eax
  102e1e:	50                   	push   %eax
  102e1f:	6a 08                	push   $0x8
  102e21:	68 8e 00 00 00       	push   $0x8e
  102e26:	6a 08                	push   $0x8
  102e28:	e8 d9 fd ff ff       	call   102c06 <hal_registerInterruptVector>
  102e2d:	83 c4 10             	add    $0x10,%esp
  102e30:	b8 a3 4b 10 00       	mov    $0x104ba3,%eax
  102e35:	50                   	push   %eax
  102e36:	6a 08                	push   $0x8
  102e38:	68 8e 00 00 00       	push   $0x8e
  102e3d:	6a 09                	push   $0x9
  102e3f:	e8 c2 fd ff ff       	call   102c06 <hal_registerInterruptVector>
  102e44:	83 c4 10             	add    $0x10,%esp
  102e47:	b8 b4 4b 10 00       	mov    $0x104bb4,%eax
  102e4c:	50                   	push   %eax
  102e4d:	6a 08                	push   $0x8
  102e4f:	68 8e 00 00 00       	push   $0x8e
  102e54:	6a 0a                	push   $0xa
  102e56:	e8 ab fd ff ff       	call   102c06 <hal_registerInterruptVector>
  102e5b:	83 c4 10             	add    $0x10,%esp
  102e5e:	b8 c3 4b 10 00       	mov    $0x104bc3,%eax
  102e63:	50                   	push   %eax
  102e64:	6a 08                	push   $0x8
  102e66:	68 8e 00 00 00       	push   $0x8e
  102e6b:	6a 0b                	push   $0xb
  102e6d:	e8 94 fd ff ff       	call   102c06 <hal_registerInterruptVector>
  102e72:	83 c4 10             	add    $0x10,%esp
  102e75:	b8 d2 4b 10 00       	mov    $0x104bd2,%eax
  102e7a:	50                   	push   %eax
  102e7b:	6a 08                	push   $0x8
  102e7d:	68 8e 00 00 00       	push   $0x8e
  102e82:	6a 0c                	push   $0xc
  102e84:	e8 7d fd ff ff       	call   102c06 <hal_registerInterruptVector>
  102e89:	83 c4 10             	add    $0x10,%esp
  102e8c:	b8 e1 4b 10 00       	mov    $0x104be1,%eax
  102e91:	50                   	push   %eax
  102e92:	6a 08                	push   $0x8
  102e94:	68 8e 00 00 00       	push   $0x8e
  102e99:	6a 0d                	push   $0xd
  102e9b:	e8 66 fd ff ff       	call   102c06 <hal_registerInterruptVector>
  102ea0:	83 c4 10             	add    $0x10,%esp
  102ea3:	b8 f0 4b 10 00       	mov    $0x104bf0,%eax
  102ea8:	50                   	push   %eax
  102ea9:	6a 08                	push   $0x8
  102eab:	68 8e 00 00 00       	push   $0x8e
  102eb0:	6a 0e                	push   $0xe
  102eb2:	e8 4f fd ff ff       	call   102c06 <hal_registerInterruptVector>
  102eb7:	83 c4 10             	add    $0x10,%esp
  102eba:	b8 ff 4b 10 00       	mov    $0x104bff,%eax
  102ebf:	50                   	push   %eax
  102ec0:	6a 08                	push   $0x8
  102ec2:	68 8e 00 00 00       	push   $0x8e
  102ec7:	6a 0f                	push   $0xf
  102ec9:	e8 38 fd ff ff       	call   102c06 <hal_registerInterruptVector>
  102ece:	83 c4 10             	add    $0x10,%esp
  102ed1:	b8 10 4c 10 00       	mov    $0x104c10,%eax
  102ed6:	50                   	push   %eax
  102ed7:	6a 08                	push   $0x8
  102ed9:	68 8e 00 00 00       	push   $0x8e
  102ede:	6a 10                	push   $0x10
  102ee0:	e8 21 fd ff ff       	call   102c06 <hal_registerInterruptVector>
  102ee5:	83 c4 10             	add    $0x10,%esp
  102ee8:	b8 21 4c 10 00       	mov    $0x104c21,%eax
  102eed:	50                   	push   %eax
  102eee:	6a 08                	push   $0x8
  102ef0:	68 8e 00 00 00       	push   $0x8e
  102ef5:	6a 11                	push   $0x11
  102ef7:	e8 0a fd ff ff       	call   102c06 <hal_registerInterruptVector>
  102efc:	83 c4 10             	add    $0x10,%esp
  102eff:	b8 30 4c 10 00       	mov    $0x104c30,%eax
  102f04:	50                   	push   %eax
  102f05:	6a 08                	push   $0x8
  102f07:	68 8e 00 00 00       	push   $0x8e
  102f0c:	6a 12                	push   $0x12
  102f0e:	e8 f3 fc ff ff       	call   102c06 <hal_registerInterruptVector>
  102f13:	83 c4 10             	add    $0x10,%esp
  102f16:	b8 41 4c 10 00       	mov    $0x104c41,%eax
  102f1b:	50                   	push   %eax
  102f1c:	6a 08                	push   $0x8
  102f1e:	68 8e 00 00 00       	push   $0x8e
  102f23:	6a 13                	push   $0x13
  102f25:	e8 dc fc ff ff       	call   102c06 <hal_registerInterruptVector>
  102f2a:	83 c4 10             	add    $0x10,%esp
  102f2d:	b8 52 4c 10 00       	mov    $0x104c52,%eax
  102f32:	50                   	push   %eax
  102f33:	6a 08                	push   $0x8
  102f35:	68 8e 00 00 00       	push   $0x8e
  102f3a:	6a 14                	push   $0x14
  102f3c:	e8 c5 fc ff ff       	call   102c06 <hal_registerInterruptVector>
  102f41:	83 c4 10             	add    $0x10,%esp
  102f44:	b8 63 4c 10 00       	mov    $0x104c63,%eax
  102f49:	50                   	push   %eax
  102f4a:	6a 08                	push   $0x8
  102f4c:	68 8e 00 00 00       	push   $0x8e
  102f51:	6a 15                	push   $0x15
  102f53:	e8 ae fc ff ff       	call   102c06 <hal_registerInterruptVector>
  102f58:	83 c4 10             	add    $0x10,%esp
  102f5b:	b8 72 4c 10 00       	mov    $0x104c72,%eax
  102f60:	50                   	push   %eax
  102f61:	6a 08                	push   $0x8
  102f63:	68 8e 00 00 00       	push   $0x8e
  102f68:	6a 1c                	push   $0x1c
  102f6a:	e8 97 fc ff ff       	call   102c06 <hal_registerInterruptVector>
  102f6f:	83 c4 10             	add    $0x10,%esp
  102f72:	b8 83 4c 10 00       	mov    $0x104c83,%eax
  102f77:	50                   	push   %eax
  102f78:	6a 08                	push   $0x8
  102f7a:	68 8e 00 00 00       	push   $0x8e
  102f7f:	6a 1d                	push   $0x1d
  102f81:	e8 80 fc ff ff       	call   102c06 <hal_registerInterruptVector>
  102f86:	83 c4 10             	add    $0x10,%esp
  102f89:	b8 92 4c 10 00       	mov    $0x104c92,%eax
  102f8e:	50                   	push   %eax
  102f8f:	6a 08                	push   $0x8
  102f91:	68 8e 00 00 00       	push   $0x8e
  102f96:	6a 1e                	push   $0x1e
  102f98:	e8 69 fc ff ff       	call   102c06 <hal_registerInterruptVector>
  102f9d:	83 c4 10             	add    $0x10,%esp
  102fa0:	b8 a1 4c 10 00       	mov    $0x104ca1,%eax
  102fa5:	50                   	push   %eax
  102fa6:	6a 08                	push   $0x8
  102fa8:	68 8e 00 00 00       	push   $0x8e
  102fad:	6a 1f                	push   $0x1f
  102faf:	e8 52 fc ff ff       	call   102c06 <hal_registerInterruptVector>
  102fb4:	83 c4 10             	add    $0x10,%esp
  102fb7:	b8 b2 4c 10 00       	mov    $0x104cb2,%eax
  102fbc:	50                   	push   %eax
  102fbd:	6a 08                	push   $0x8
  102fbf:	68 8e 00 00 00       	push   $0x8e
  102fc4:	6a 20                	push   $0x20
  102fc6:	e8 3b fc ff ff       	call   102c06 <hal_registerInterruptVector>
  102fcb:	83 c4 10             	add    $0x10,%esp
  102fce:	b8 cb 4c 10 00       	mov    $0x104ccb,%eax
  102fd3:	50                   	push   %eax
  102fd4:	6a 08                	push   $0x8
  102fd6:	68 8e 00 00 00       	push   $0x8e
  102fdb:	6a 21                	push   $0x21
  102fdd:	e8 24 fc ff ff       	call   102c06 <hal_registerInterruptVector>
  102fe2:	83 c4 10             	add    $0x10,%esp
  102fe5:	b8 e4 4c 10 00       	mov    $0x104ce4,%eax
  102fea:	50                   	push   %eax
  102feb:	6a 08                	push   $0x8
  102fed:	68 8e 00 00 00       	push   $0x8e
  102ff2:	6a 22                	push   $0x22
  102ff4:	e8 0d fc ff ff       	call   102c06 <hal_registerInterruptVector>
  102ff9:	83 c4 10             	add    $0x10,%esp
  102ffc:	b8 fd 4c 10 00       	mov    $0x104cfd,%eax
  103001:	50                   	push   %eax
  103002:	6a 08                	push   $0x8
  103004:	68 8e 00 00 00       	push   $0x8e
  103009:	6a 23                	push   $0x23
  10300b:	e8 f6 fb ff ff       	call   102c06 <hal_registerInterruptVector>
  103010:	83 c4 10             	add    $0x10,%esp
  103013:	b8 16 4d 10 00       	mov    $0x104d16,%eax
  103018:	50                   	push   %eax
  103019:	6a 08                	push   $0x8
  10301b:	68 8e 00 00 00       	push   $0x8e
  103020:	6a 24                	push   $0x24
  103022:	e8 df fb ff ff       	call   102c06 <hal_registerInterruptVector>
  103027:	83 c4 10             	add    $0x10,%esp
  10302a:	b8 2f 4d 10 00       	mov    $0x104d2f,%eax
  10302f:	50                   	push   %eax
  103030:	6a 08                	push   $0x8
  103032:	68 8e 00 00 00       	push   $0x8e
  103037:	6a 25                	push   $0x25
  103039:	e8 c8 fb ff ff       	call   102c06 <hal_registerInterruptVector>
  10303e:	83 c4 10             	add    $0x10,%esp
  103041:	b8 48 4d 10 00       	mov    $0x104d48,%eax
  103046:	50                   	push   %eax
  103047:	6a 08                	push   $0x8
  103049:	68 8e 00 00 00       	push   $0x8e
  10304e:	6a 26                	push   $0x26
  103050:	e8 b1 fb ff ff       	call   102c06 <hal_registerInterruptVector>
  103055:	83 c4 10             	add    $0x10,%esp
  103058:	b8 61 4d 10 00       	mov    $0x104d61,%eax
  10305d:	50                   	push   %eax
  10305e:	6a 08                	push   $0x8
  103060:	68 8e 00 00 00       	push   $0x8e
  103065:	6a 27                	push   $0x27
  103067:	e8 9a fb ff ff       	call   102c06 <hal_registerInterruptVector>
  10306c:	83 c4 10             	add    $0x10,%esp
  10306f:	b8 7a 4d 10 00       	mov    $0x104d7a,%eax
  103074:	50                   	push   %eax
  103075:	6a 08                	push   $0x8
  103077:	68 8e 00 00 00       	push   $0x8e
  10307c:	6a 28                	push   $0x28
  10307e:	e8 83 fb ff ff       	call   102c06 <hal_registerInterruptVector>
  103083:	83 c4 10             	add    $0x10,%esp
  103086:	b8 93 4d 10 00       	mov    $0x104d93,%eax
  10308b:	50                   	push   %eax
  10308c:	6a 08                	push   $0x8
  10308e:	68 8e 00 00 00       	push   $0x8e
  103093:	6a 29                	push   $0x29
  103095:	e8 6c fb ff ff       	call   102c06 <hal_registerInterruptVector>
  10309a:	83 c4 10             	add    $0x10,%esp
  10309d:	b8 ac 4d 10 00       	mov    $0x104dac,%eax
  1030a2:	50                   	push   %eax
  1030a3:	6a 08                	push   $0x8
  1030a5:	68 8e 00 00 00       	push   $0x8e
  1030aa:	6a 2a                	push   $0x2a
  1030ac:	e8 55 fb ff ff       	call   102c06 <hal_registerInterruptVector>
  1030b1:	83 c4 10             	add    $0x10,%esp
  1030b4:	b8 c5 4d 10 00       	mov    $0x104dc5,%eax
  1030b9:	50                   	push   %eax
  1030ba:	6a 08                	push   $0x8
  1030bc:	68 8e 00 00 00       	push   $0x8e
  1030c1:	6a 2b                	push   $0x2b
  1030c3:	e8 3e fb ff ff       	call   102c06 <hal_registerInterruptVector>
  1030c8:	83 c4 10             	add    $0x10,%esp
  1030cb:	b8 de 4d 10 00       	mov    $0x104dde,%eax
  1030d0:	50                   	push   %eax
  1030d1:	6a 08                	push   $0x8
  1030d3:	68 8e 00 00 00       	push   $0x8e
  1030d8:	6a 2c                	push   $0x2c
  1030da:	e8 27 fb ff ff       	call   102c06 <hal_registerInterruptVector>
  1030df:	83 c4 10             	add    $0x10,%esp
  1030e2:	b8 f7 4d 10 00       	mov    $0x104df7,%eax
  1030e7:	50                   	push   %eax
  1030e8:	6a 08                	push   $0x8
  1030ea:	68 8e 00 00 00       	push   $0x8e
  1030ef:	6a 2d                	push   $0x2d
  1030f1:	e8 10 fb ff ff       	call   102c06 <hal_registerInterruptVector>
  1030f6:	83 c4 10             	add    $0x10,%esp
  1030f9:	b8 10 4e 10 00       	mov    $0x104e10,%eax
  1030fe:	50                   	push   %eax
  1030ff:	6a 08                	push   $0x8
  103101:	68 8e 00 00 00       	push   $0x8e
  103106:	6a 2e                	push   $0x2e
  103108:	e8 f9 fa ff ff       	call   102c06 <hal_registerInterruptVector>
  10310d:	83 c4 10             	add    $0x10,%esp
  103110:	b8 29 4e 10 00       	mov    $0x104e29,%eax
  103115:	50                   	push   %eax
  103116:	6a 08                	push   $0x8
  103118:	68 8e 00 00 00       	push   $0x8e
  10311d:	6a 2f                	push   $0x2f
  10311f:	e8 e2 fa ff ff       	call   102c06 <hal_registerInterruptVector>
  103124:	83 c4 10             	add    $0x10,%esp
  103127:	b8 20 b3 10 00       	mov    $0x10b320,%eax
  10312c:	89 45 f4             	mov    %eax,-0xc(%ebp)
  10312f:	66 c7 45 f2 f7 07    	movw   $0x7f7,-0xe(%ebp)
  103135:	0f 01 5d f2          	lidtl  -0xe(%ebp)
  103139:	e8 2a fb ff ff       	call   102c68 <hal_initializePIC>
  10313e:	fb                   	sti    
  10313f:	68 d8 92 10 00       	push   $0x1092d8
  103144:	6a 01                	push   $0x1
  103146:	68 22 01 00 00       	push   $0x122
  10314b:	68 9d 91 10 00       	push   $0x10919d
  103150:	e8 4d d3 ff ff       	call   1004a2 <dprintf_internal>
  103155:	83 c4 10             	add    $0x10,%esp
  103158:	90                   	nop
  103159:	c9                   	leave  
  10315a:	c3                   	ret    

0010315b <mem_outofmemory>:
  10315b:	55                   	push   %ebp
  10315c:	89 e5                	mov    %esp,%ebp
  10315e:	83 ec 08             	sub    $0x8,%esp
  103161:	83 ec 0c             	sub    $0xc,%esp
  103164:	6a 03                	push   $0x3
  103166:	e8 ec d6 ff ff       	call   100857 <kernel_panic_prepare>
  10316b:	83 c4 10             	add    $0x10,%esp
  10316e:	68 fc 92 10 00       	push   $0x1092fc
  103173:	6a 00                	push   $0x0
  103175:	6a 31                	push   $0x31
  103177:	68 36 93 10 00       	push   $0x109336
  10317c:	e8 21 d3 ff ff       	call   1004a2 <dprintf_internal>
  103181:	83 c4 10             	add    $0x10,%esp
  103184:	83 ec 08             	sub    $0x8,%esp
  103187:	ff 75 0c             	push   0xc(%ebp)
  10318a:	ff 75 08             	push   0x8(%ebp)
  10318d:	68 48 93 10 00       	push   $0x109348
  103192:	6a 00                	push   $0x0
  103194:	6a 32                	push   $0x32
  103196:	68 36 93 10 00       	push   $0x109336
  10319b:	e8 02 d3 ff ff       	call   1004a2 <dprintf_internal>
  1031a0:	83 c4 20             	add    $0x20,%esp
  1031a3:	e8 3f d7 ff ff       	call   1008e7 <kernel_panic_finalize>
  1031a8:	90                   	nop
  1031a9:	c9                   	leave  
  1031aa:	c3                   	ret    

001031ab <mem_load_pdbr>:
  1031ab:	55                   	push   %ebp
  1031ac:	89 e5                	mov    %esp,%ebp
  1031ae:	8b 45 08             	mov    0x8(%ebp),%eax
  1031b1:	0f 22 d8             	mov    %eax,%cr3
  1031b4:	90                   	nop
  1031b5:	5d                   	pop    %ebp
  1031b6:	c3                   	ret    

001031b7 <mem_setPaging>:
  1031b7:	55                   	push   %ebp
  1031b8:	89 e5                	mov    %esp,%ebp
  1031ba:	83 ec 14             	sub    $0x14,%esp
  1031bd:	8b 45 08             	mov    0x8(%ebp),%eax
  1031c0:	88 45 ec             	mov    %al,-0x14(%ebp)
  1031c3:	80 7d ec 00          	cmpb   $0x0,-0x14(%ebp)
  1031c7:	74 25                	je     1031ee <mem_setPaging+0x37>
  1031c9:	0f 20 e0             	mov    %cr4,%eax
  1031cc:	89 45 f8             	mov    %eax,-0x8(%ebp)
  1031cf:	83 65 f8 ef          	andl   $0xffffffef,-0x8(%ebp)
  1031d3:	8b 45 f8             	mov    -0x8(%ebp),%eax
  1031d6:	0f 22 e0             	mov    %eax,%cr4
  1031d9:	0f 20 c0             	mov    %cr0,%eax
  1031dc:	89 45 f4             	mov    %eax,-0xc(%ebp)
  1031df:	81 4d f4 01 00 01 80 	orl    $0x80010001,-0xc(%ebp)
  1031e6:	8b 45 f4             	mov    -0xc(%ebp),%eax
  1031e9:	0f 22 c0             	mov    %eax,%cr0
  1031ec:	eb 13                	jmp    103201 <mem_setPaging+0x4a>
  1031ee:	0f 20 c0             	mov    %cr0,%eax
  1031f1:	89 45 fc             	mov    %eax,-0x4(%ebp)
  1031f4:	81 65 fc ff ff ff 7f 	andl   $0x7fffffff,-0x4(%ebp)
  1031fb:	8b 45 fc             	mov    -0x4(%ebp),%eax
  1031fe:	0f 22 e0             	mov    %eax,%cr4
  103201:	90                   	nop
  103202:	c9                   	leave  
  103203:	c3                   	ret    

00103204 <mem_remapPhys>:
  103204:	55                   	push   %ebp
  103205:	89 e5                	mov    %esp,%ebp
  103207:	83 ec 08             	sub    $0x8,%esp
  10320a:	81 7d 08 00 00 00 30 	cmpl   $0x30000000,0x8(%ebp)
  103211:	76 17                	jbe    10322a <mem_remapPhys+0x26>
  103213:	83 ec 04             	sub    $0x4,%esp
  103216:	68 78 93 10 00       	push   $0x109378
  10321b:	68 d8 93 10 00       	push   $0x1093d8
  103220:	6a 01                	push   $0x1
  103222:	e8 3a d4 ff ff       	call   100661 <kernel_panic_extended>
  103227:	83 c4 10             	add    $0x10,%esp
  10322a:	8b 45 08             	mov    0x8(%ebp),%eax
  10322d:	0d 00 00 00 b0       	or     $0xb0000000,%eax
  103232:	c9                   	leave  
  103233:	c3                   	ret    

00103234 <mem_switchDirectory>:
  103234:	55                   	push   %ebp
  103235:	89 e5                	mov    %esp,%ebp
  103237:	83 7d 08 00          	cmpl   $0x0,0x8(%ebp)
  10323b:	75 07                	jne    103244 <mem_switchDirectory+0x10>
  10323d:	b8 ea ff ff ff       	mov    $0xffffffea,%eax
  103242:	eb 1e                	jmp    103262 <mem_switchDirectory+0x2e>
  103244:	8b 45 08             	mov    0x8(%ebp),%eax
  103247:	a3 1c bf 10 00       	mov    %eax,0x10bf1c
  10324c:	8b 45 08             	mov    0x8(%ebp),%eax
  10324f:	25 ff ff ff 4f       	and    $0x4fffffff,%eax
  103254:	50                   	push   %eax
  103255:	e8 51 ff ff ff       	call   1031ab <mem_load_pdbr>
  10325a:	83 c4 04             	add    $0x4,%esp
  10325d:	b8 00 00 00 00       	mov    $0x0,%eax
  103262:	c9                   	leave  
  103263:	c3                   	ret    

00103264 <mem_getCurrentDirectory>:
  103264:	55                   	push   %ebp
  103265:	89 e5                	mov    %esp,%ebp
  103267:	a1 1c bf 10 00       	mov    0x10bf1c,%eax
  10326c:	5d                   	pop    %ebp
  10326d:	c3                   	ret    

0010326e <mem_getKernelDirectory>:
  10326e:	55                   	push   %ebp
  10326f:	89 e5                	mov    %esp,%ebp
  103271:	a1 20 bf 10 00       	mov    0x10bf20,%eax
  103276:	5d                   	pop    %ebp
  103277:	c3                   	ret    

00103278 <mem_getPhysicalAddress>:
  103278:	55                   	push   %ebp
  103279:	89 e5                	mov    %esp,%ebp
  10327b:	83 ec 18             	sub    $0x18,%esp
  10327e:	83 7d 08 00          	cmpl   $0x0,0x8(%ebp)
  103282:	75 07                	jne    10328b <mem_getPhysicalAddress+0x13>
  103284:	a1 1c bf 10 00       	mov    0x10bf1c,%eax
  103289:	eb 03                	jmp    10328e <mem_getPhysicalAddress+0x16>
  10328b:	8b 45 08             	mov    0x8(%ebp),%eax
  10328e:	89 45 f4             	mov    %eax,-0xc(%ebp)
  103291:	8b 45 0c             	mov    0xc(%ebp),%eax
  103294:	c1 e8 16             	shr    $0x16,%eax
  103297:	8d 14 85 00 00 00 00 	lea    0x0(,%eax,4),%edx
  10329e:	8b 45 f4             	mov    -0xc(%ebp),%eax
  1032a1:	01 d0                	add    %edx,%eax
  1032a3:	89 45 f0             	mov    %eax,-0x10(%ebp)
  1032a6:	8b 45 f0             	mov    -0x10(%ebp),%eax
  1032a9:	0f b6 00             	movzbl (%eax),%eax
  1032ac:	83 e0 01             	and    $0x1,%eax
  1032af:	84 c0                	test   %al,%al
  1032b1:	75 07                	jne    1032ba <mem_getPhysicalAddress+0x42>
  1032b3:	b8 00 00 00 00       	mov    $0x0,%eax
  1032b8:	eb 3f                	jmp    1032f9 <mem_getPhysicalAddress+0x81>
  1032ba:	8b 45 f0             	mov    -0x10(%ebp),%eax
  1032bd:	8b 00                	mov    (%eax),%eax
  1032bf:	c1 e8 0c             	shr    $0xc,%eax
  1032c2:	c1 e0 0c             	shl    $0xc,%eax
  1032c5:	83 ec 0c             	sub    $0xc,%esp
  1032c8:	50                   	push   %eax
  1032c9:	e8 36 ff ff ff       	call   103204 <mem_remapPhys>
  1032ce:	83 c4 10             	add    $0x10,%esp
  1032d1:	89 45 ec             	mov    %eax,-0x14(%ebp)
  1032d4:	8b 45 0c             	mov    0xc(%ebp),%eax
  1032d7:	c1 e8 0c             	shr    $0xc,%eax
  1032da:	25 ff 03 00 00       	and    $0x3ff,%eax
  1032df:	8d 14 85 00 00 00 00 	lea    0x0(,%eax,4),%edx
  1032e6:	8b 45 ec             	mov    -0x14(%ebp),%eax
  1032e9:	01 d0                	add    %edx,%eax
  1032eb:	89 45 e8             	mov    %eax,-0x18(%ebp)
  1032ee:	8b 45 e8             	mov    -0x18(%ebp),%eax
  1032f1:	8b 00                	mov    (%eax),%eax
  1032f3:	c1 e8 0c             	shr    $0xc,%eax
  1032f6:	c1 e0 0c             	shl    $0xc,%eax
  1032f9:	c9                   	leave  
  1032fa:	c3                   	ret    

001032fb <mem_mapAddress>:
  1032fb:	55                   	push   %ebp
  1032fc:	89 e5                	mov    %esp,%ebp
  1032fe:	83 ec 18             	sub    $0x18,%esp
  103301:	83 7d 08 00          	cmpl   $0x0,0x8(%ebp)
  103305:	75 07                	jne    10330e <mem_mapAddress+0x13>
  103307:	a1 1c bf 10 00       	mov    0x10bf1c,%eax
  10330c:	eb 03                	jmp    103311 <mem_mapAddress+0x16>
  10330e:	8b 45 08             	mov    0x8(%ebp),%eax
  103311:	89 45 f4             	mov    %eax,-0xc(%ebp)
  103314:	83 ec 04             	sub    $0x4,%esp
  103317:	6a 01                	push   $0x1
  103319:	ff 75 10             	push   0x10(%ebp)
  10331c:	ff 75 f4             	push   -0xc(%ebp)
  10331f:	e8 3a 00 00 00       	call   10335e <mem_getPage>
  103324:	83 c4 10             	add    $0x10,%esp
  103327:	89 45 f0             	mov    %eax,-0x10(%ebp)
  10332a:	83 ec 08             	sub    $0x8,%esp
  10332d:	6a 40                	push   $0x40
  10332f:	ff 75 f0             	push   -0x10(%ebp)
  103332:	e8 15 01 00 00       	call   10344c <mem_allocatePage>
  103337:	83 c4 10             	add    $0x10,%esp
  10333a:	8b 45 0c             	mov    0xc(%ebp),%eax
  10333d:	c1 e8 0c             	shr    $0xc,%eax
  103340:	25 ff ff 0f 00       	and    $0xfffff,%eax
  103345:	89 c2                	mov    %eax,%edx
  103347:	8b 45 f0             	mov    -0x10(%ebp),%eax
  10334a:	89 d1                	mov    %edx,%ecx
  10334c:	c1 e1 0c             	shl    $0xc,%ecx
  10334f:	8b 10                	mov    (%eax),%edx
  103351:	81 e2 ff 0f 00 00    	and    $0xfff,%edx
  103357:	09 ca                	or     %ecx,%edx
  103359:	89 10                	mov    %edx,(%eax)
  10335b:	90                   	nop
  10335c:	c9                   	leave  
  10335d:	c3                   	ret    

0010335e <mem_getPage>:
  10335e:	55                   	push   %ebp
  10335f:	89 e5                	mov    %esp,%ebp
  103361:	83 ec 18             	sub    $0x18,%esp
  103364:	83 7d 08 00          	cmpl   $0x0,0x8(%ebp)
  103368:	74 05                	je     10336f <mem_getPage+0x11>
  10336a:	8b 45 08             	mov    0x8(%ebp),%eax
  10336d:	eb 05                	jmp    103374 <mem_getPage+0x16>
  10336f:	a1 1c bf 10 00       	mov    0x10bf1c,%eax
  103374:	89 45 f4             	mov    %eax,-0xc(%ebp)
  103377:	8b 45 0c             	mov    0xc(%ebp),%eax
  10337a:	c1 e8 16             	shr    $0x16,%eax
  10337d:	8d 14 85 00 00 00 00 	lea    0x0(,%eax,4),%edx
  103384:	8b 45 f4             	mov    -0xc(%ebp),%eax
  103387:	01 d0                	add    %edx,%eax
  103389:	89 45 f0             	mov    %eax,-0x10(%ebp)
  10338c:	8b 45 f0             	mov    -0x10(%ebp),%eax
  10338f:	0f b6 00             	movzbl (%eax),%eax
  103392:	83 e0 01             	and    $0x1,%eax
  103395:	84 c0                	test   %al,%al
  103397:	75 75                	jne    10340e <mem_getPage+0xb0>
  103399:	83 7d 10 00          	cmpl   $0x0,0x10(%ebp)
  10339d:	0f 84 a1 00 00 00    	je     103444 <mem_getPage+0xe6>
  1033a3:	e8 3d dc ff ff       	call   100fe5 <pmm_allocateBlock>
  1033a8:	89 45 ec             	mov    %eax,-0x14(%ebp)
  1033ab:	83 ec 0c             	sub    $0xc,%esp
  1033ae:	ff 75 ec             	push   -0x14(%ebp)
  1033b1:	e8 4e fe ff ff       	call   103204 <mem_remapPhys>
  1033b6:	83 c4 10             	add    $0x10,%esp
  1033b9:	83 ec 04             	sub    $0x4,%esp
  1033bc:	68 00 10 00 00       	push   $0x1000
  1033c1:	6a 00                	push   $0x0
  1033c3:	50                   	push   %eax
  1033c4:	e8 30 2e 00 00       	call   1061f9 <memset>
  1033c9:	83 c4 10             	add    $0x10,%esp
  1033cc:	8b 45 f0             	mov    -0x10(%ebp),%eax
  1033cf:	0f b6 10             	movzbl (%eax),%edx
  1033d2:	83 ca 01             	or     $0x1,%edx
  1033d5:	88 10                	mov    %dl,(%eax)
  1033d7:	8b 45 f0             	mov    -0x10(%ebp),%eax
  1033da:	0f b6 10             	movzbl (%eax),%edx
  1033dd:	83 ca 02             	or     $0x2,%edx
  1033e0:	88 10                	mov    %dl,(%eax)
  1033e2:	8b 45 f0             	mov    -0x10(%ebp),%eax
  1033e5:	0f b6 10             	movzbl (%eax),%edx
  1033e8:	83 ca 04             	or     $0x4,%edx
  1033eb:	88 10                	mov    %dl,(%eax)
  1033ed:	8b 45 ec             	mov    -0x14(%ebp),%eax
  1033f0:	c1 e8 0c             	shr    $0xc,%eax
  1033f3:	25 ff ff 0f 00       	and    $0xfffff,%eax
  1033f8:	89 c2                	mov    %eax,%edx
  1033fa:	8b 45 f0             	mov    -0x10(%ebp),%eax
  1033fd:	89 d1                	mov    %edx,%ecx
  1033ff:	c1 e1 0c             	shl    $0xc,%ecx
  103402:	8b 10                	mov    (%eax),%edx
  103404:	81 e2 ff 0f 00 00    	and    $0xfff,%edx
  10340a:	09 ca                	or     %ecx,%edx
  10340c:	89 10                	mov    %edx,(%eax)
  10340e:	8b 45 0c             	mov    0xc(%ebp),%eax
  103411:	c1 e8 16             	shr    $0x16,%eax
  103414:	8d 14 85 00 00 00 00 	lea    0x0(,%eax,4),%edx
  10341b:	8b 45 f4             	mov    -0xc(%ebp),%eax
  10341e:	01 d0                	add    %edx,%eax
  103420:	8b 00                	mov    (%eax),%eax
  103422:	c1 e8 0c             	shr    $0xc,%eax
  103425:	c1 e0 0c             	shl    $0xc,%eax
  103428:	89 45 e8             	mov    %eax,-0x18(%ebp)
  10342b:	8b 45 0c             	mov    0xc(%ebp),%eax
  10342e:	c1 e8 0c             	shr    $0xc,%eax
  103431:	25 ff 03 00 00       	and    $0x3ff,%eax
  103436:	8d 14 85 00 00 00 00 	lea    0x0(,%eax,4),%edx
  10343d:	8b 45 e8             	mov    -0x18(%ebp),%eax
  103440:	01 d0                	add    %edx,%eax
  103442:	eb 06                	jmp    10344a <mem_getPage+0xec>
  103444:	90                   	nop
  103445:	b8 00 00 00 00       	mov    $0x0,%eax
  10344a:	c9                   	leave  
  10344b:	c3                   	ret    

0010344c <mem_allocatePage>:
  10344c:	55                   	push   %ebp
  10344d:	89 e5                	mov    %esp,%ebp
  10344f:	83 ec 18             	sub    $0x18,%esp
  103452:	8b 45 0c             	mov    0xc(%ebp),%eax
  103455:	25 80 00 00 00       	and    $0x80,%eax
  10345a:	85 c0                	test   %eax,%eax
  10345c:	74 13                	je     103471 <mem_allocatePage+0x25>
  10345e:	83 ec 0c             	sub    $0xc,%esp
  103461:	ff 75 08             	push   0x8(%ebp)
  103464:	e8 e6 00 00 00       	call   10354f <mem_freePage>
  103469:	83 c4 10             	add    $0x10,%esp
  10346c:	e9 dc 00 00 00       	jmp    10354d <mem_allocatePage+0x101>
  103471:	8b 45 08             	mov    0x8(%ebp),%eax
  103474:	8b 00                	mov    (%eax),%eax
  103476:	25 00 f0 ff ff       	and    $0xfffff000,%eax
  10347b:	85 c0                	test   %eax,%eax
  10347d:	75 33                	jne    1034b2 <mem_allocatePage+0x66>
  10347f:	8b 45 0c             	mov    0xc(%ebp),%eax
  103482:	83 e0 40             	and    $0x40,%eax
  103485:	85 c0                	test   %eax,%eax
  103487:	75 29                	jne    1034b2 <mem_allocatePage+0x66>
  103489:	e8 57 db ff ff       	call   100fe5 <pmm_allocateBlock>
  10348e:	89 45 f4             	mov    %eax,-0xc(%ebp)
  103491:	8b 45 f4             	mov    -0xc(%ebp),%eax
  103494:	c1 e8 0c             	shr    $0xc,%eax
  103497:	25 ff ff 0f 00       	and    $0xfffff,%eax
  10349c:	89 c2                	mov    %eax,%edx
  10349e:	8b 45 08             	mov    0x8(%ebp),%eax
  1034a1:	89 d1                	mov    %edx,%ecx
  1034a3:	c1 e1 0c             	shl    $0xc,%ecx
  1034a6:	8b 10                	mov    (%eax),%edx
  1034a8:	81 e2 ff 0f 00 00    	and    $0xfff,%edx
  1034ae:	09 ca                	or     %ecx,%edx
  1034b0:	89 10                	mov    %edx,(%eax)
  1034b2:	8b 45 0c             	mov    0xc(%ebp),%eax
  1034b5:	83 e0 20             	and    $0x20,%eax
  1034b8:	85 c0                	test   %eax,%eax
  1034ba:	0f 94 c2             	sete   %dl
  1034bd:	8b 45 08             	mov    0x8(%ebp),%eax
  1034c0:	89 d1                	mov    %edx,%ecx
  1034c2:	83 e1 01             	and    $0x1,%ecx
  1034c5:	0f b6 10             	movzbl (%eax),%edx
  1034c8:	83 e2 fe             	and    $0xfffffffe,%edx
  1034cb:	09 ca                	or     %ecx,%edx
  1034cd:	88 10                	mov    %dl,(%eax)
  1034cf:	8b 45 0c             	mov    0xc(%ebp),%eax
  1034d2:	83 e0 04             	and    $0x4,%eax
  1034d5:	85 c0                	test   %eax,%eax
  1034d7:	0f 94 c2             	sete   %dl
  1034da:	8b 45 08             	mov    0x8(%ebp),%eax
  1034dd:	83 e2 01             	and    $0x1,%edx
  1034e0:	8d 0c 12             	lea    (%edx,%edx,1),%ecx
  1034e3:	0f b6 10             	movzbl (%eax),%edx
  1034e6:	83 e2 fd             	and    $0xfffffffd,%edx
  1034e9:	09 ca                	or     %ecx,%edx
  1034eb:	88 10                	mov    %dl,(%eax)
  1034ed:	8b 45 0c             	mov    0xc(%ebp),%eax
  1034f0:	83 e0 02             	and    $0x2,%eax
  1034f3:	85 c0                	test   %eax,%eax
  1034f5:	0f 94 c2             	sete   %dl
  1034f8:	8b 45 08             	mov    0x8(%ebp),%eax
  1034fb:	83 e2 01             	and    $0x1,%edx
  1034fe:	8d 0c 95 00 00 00 00 	lea    0x0(,%edx,4),%ecx
  103505:	0f b6 10             	movzbl (%eax),%edx
  103508:	83 e2 fb             	and    $0xfffffffb,%edx
  10350b:	09 ca                	or     %ecx,%edx
  10350d:	88 10                	mov    %dl,(%eax)
  10350f:	8b 45 0c             	mov    0xc(%ebp),%eax
  103512:	c1 e8 03             	shr    $0x3,%eax
  103515:	83 e0 01             	and    $0x1,%eax
  103518:	8b 55 08             	mov    0x8(%ebp),%edx
  10351b:	83 e0 01             	and    $0x1,%eax
  10351e:	8d 0c c5 00 00 00 00 	lea    0x0(,%eax,8),%ecx
  103525:	0f b6 02             	movzbl (%edx),%eax
  103528:	83 e0 f7             	and    $0xfffffff7,%eax
  10352b:	09 c8                	or     %ecx,%eax
  10352d:	88 02                	mov    %al,(%edx)
  10352f:	8b 45 0c             	mov    0xc(%ebp),%eax
  103532:	c1 e8 04             	shr    $0x4,%eax
  103535:	83 e0 01             	and    $0x1,%eax
  103538:	8b 55 08             	mov    0x8(%ebp),%edx
  10353b:	83 e0 01             	and    $0x1,%eax
  10353e:	c1 e0 04             	shl    $0x4,%eax
  103541:	89 c1                	mov    %eax,%ecx
  103543:	0f b6 02             	movzbl (%edx),%eax
  103546:	83 e0 ef             	and    $0xffffffef,%eax
  103549:	09 c8                	or     %ecx,%eax
  10354b:	88 02                	mov    %al,(%edx)
  10354d:	c9                   	leave  
  10354e:	c3                   	ret    

0010354f <mem_freePage>:
  10354f:	55                   	push   %ebp
  103550:	89 e5                	mov    %esp,%ebp
  103552:	83 ec 08             	sub    $0x8,%esp
  103555:	83 7d 08 00          	cmpl   $0x0,0x8(%ebp)
  103559:	74 47                	je     1035a2 <mem_freePage+0x53>
  10355b:	8b 45 08             	mov    0x8(%ebp),%eax
  10355e:	0f b6 10             	movzbl (%eax),%edx
  103561:	83 e2 fe             	and    $0xfffffffe,%edx
  103564:	88 10                	mov    %dl,(%eax)
  103566:	8b 45 08             	mov    0x8(%ebp),%eax
  103569:	0f b6 10             	movzbl (%eax),%edx
  10356c:	83 e2 fd             	and    $0xfffffffd,%edx
  10356f:	88 10                	mov    %dl,(%eax)
  103571:	8b 45 08             	mov    0x8(%ebp),%eax
  103574:	0f b6 10             	movzbl (%eax),%edx
  103577:	83 e2 fb             	and    $0xfffffffb,%edx
  10357a:	88 10                	mov    %dl,(%eax)
  10357c:	8b 45 08             	mov    0x8(%ebp),%eax
  10357f:	8b 00                	mov    (%eax),%eax
  103581:	c1 e8 0c             	shr    $0xc,%eax
  103584:	c1 e0 0c             	shl    $0xc,%eax
  103587:	83 ec 0c             	sub    $0xc,%esp
  10358a:	50                   	push   %eax
  10358b:	e8 b0 da ff ff       	call   101040 <pmm_freeBlock>
  103590:	83 c4 10             	add    $0x10,%esp
  103593:	8b 45 08             	mov    0x8(%ebp),%eax
  103596:	8b 10                	mov    (%eax),%edx
  103598:	81 e2 ff 0f 00 00    	and    $0xfff,%edx
  10359e:	89 10                	mov    %edx,(%eax)
  1035a0:	eb 01                	jmp    1035a3 <mem_freePage+0x54>
  1035a2:	90                   	nop
  1035a3:	c9                   	leave  
  1035a4:	c3                   	ret    

001035a5 <mem_init>:
  1035a5:	55                   	push   %ebp
  1035a6:	89 e5                	mov    %esp,%ebp
  1035a8:	83 ec 58             	sub    $0x58,%esp
  1035ab:	83 7d 08 00          	cmpl   $0x0,0x8(%ebp)
  1035af:	75 12                	jne    1035c3 <mem_init+0x1e>
  1035b1:	83 ec 08             	sub    $0x8,%esp
  1035b4:	68 d8 93 10 00       	push   $0x1093d8
  1035b9:	6a 02                	push   $0x2
  1035bb:	e8 aa d1 ff ff       	call   10076a <kernel_panic>
  1035c0:	83 c4 10             	add    $0x10,%esp
  1035c3:	8b 45 08             	mov    0x8(%ebp),%eax
  1035c6:	05 00 10 00 00       	add    $0x1000,%eax
  1035cb:	25 00 f0 ff ff       	and    $0xfffff000,%eax
  1035d0:	a3 24 bf 10 00       	mov    %eax,0x10bf24
  1035d5:	e8 0b da ff ff       	call   100fe5 <pmm_allocateBlock>
  1035da:	89 45 d8             	mov    %eax,-0x28(%ebp)
  1035dd:	83 ec 04             	sub    $0x4,%esp
  1035e0:	68 00 10 00 00       	push   $0x1000
  1035e5:	6a 00                	push   $0x0
  1035e7:	ff 75 d8             	push   -0x28(%ebp)
  1035ea:	e8 0a 2c 00 00       	call   1061f9 <memset>
  1035ef:	83 c4 10             	add    $0x10,%esp
  1035f2:	e8 9e db ff ff       	call   101195 <pmm_getMaximumBlocks>
  1035f7:	c1 e0 0c             	shl    $0xc,%eax
  1035fa:	89 45 d4             	mov    %eax,-0x2c(%ebp)
  1035fd:	8b 45 d4             	mov    -0x2c(%ebp),%eax
  103600:	c1 e8 0c             	shr    $0xc,%eax
  103603:	89 45 d0             	mov    %eax,-0x30(%ebp)
  103606:	81 7d d4 00 00 00 30 	cmpl   $0x30000000,-0x2c(%ebp)
  10360d:	76 28                	jbe    103637 <mem_init+0x92>
  10360f:	8b 45 d4             	mov    -0x2c(%ebp),%eax
  103612:	c1 e8 0a             	shr    $0xa,%eax
  103615:	83 ec 08             	sub    $0x8,%esp
  103618:	50                   	push   %eax
  103619:	68 00 00 0c 00       	push   $0xc0000
  10361e:	68 dc 93 10 00       	push   $0x1093dc
  103623:	6a 02                	push   $0x2
  103625:	68 38 01 00 00       	push   $0x138
  10362a:	68 36 93 10 00       	push   $0x109336
  10362f:	e8 6e ce ff ff       	call   1004a2 <dprintf_internal>
  103634:	83 c4 20             	add    $0x20,%esp
  103637:	c7 45 f4 00 00 00 00 	movl   $0x0,-0xc(%ebp)
  10363e:	c7 45 f0 00 00 00 00 	movl   $0x0,-0x10(%ebp)
  103645:	8b 45 d0             	mov    -0x30(%ebp),%eax
  103648:	05 00 04 00 00       	add    $0x400,%eax
  10364d:	c1 e8 0a             	shr    $0xa,%eax
  103650:	89 45 cc             	mov    %eax,-0x34(%ebp)
  103653:	c7 45 ec 00 00 00 00 	movl   $0x0,-0x14(%ebp)
  10365a:	c7 45 e8 00 00 00 00 	movl   $0x0,-0x18(%ebp)
  103661:	e9 41 01 00 00       	jmp    1037a7 <mem_init+0x202>
  103666:	e8 7a d9 ff ff       	call   100fe5 <pmm_allocateBlock>
  10366b:	89 45 c8             	mov    %eax,-0x38(%ebp)
  10366e:	83 ec 04             	sub    $0x4,%esp
  103671:	68 00 10 00 00       	push   $0x1000
  103676:	6a 00                	push   $0x0
  103678:	ff 75 c8             	push   -0x38(%ebp)
  10367b:	e8 79 2b 00 00       	call   1061f9 <memset>
  103680:	83 c4 10             	add    $0x10,%esp
  103683:	83 ec 08             	sub    $0x8,%esp
  103686:	ff 75 c8             	push   -0x38(%ebp)
  103689:	ff 75 f0             	push   -0x10(%ebp)
  10368c:	68 44 94 10 00       	push   $0x109444
  103691:	6a 04                	push   $0x4
  103693:	68 46 01 00 00       	push   $0x146
  103698:	68 36 93 10 00       	push   $0x109336
  10369d:	e8 00 ce ff ff       	call   1004a2 <dprintf_internal>
  1036a2:	83 c4 20             	add    $0x20,%esp
  1036a5:	c7 45 e4 00 00 00 00 	movl   $0x0,-0x1c(%ebp)
  1036ac:	eb 7a                	jmp    103728 <mem_init+0x183>
  1036ae:	c7 45 b0 00 00 00 00 	movl   $0x0,-0x50(%ebp)
  1036b5:	0f b6 45 b0          	movzbl -0x50(%ebp),%eax
  1036b9:	83 c8 01             	or     $0x1,%eax
  1036bc:	88 45 b0             	mov    %al,-0x50(%ebp)
  1036bf:	0f b6 45 b0          	movzbl -0x50(%ebp),%eax
  1036c3:	83 c8 02             	or     $0x2,%eax
  1036c6:	88 45 b0             	mov    %al,-0x50(%ebp)
  1036c9:	0f b6 45 b0          	movzbl -0x50(%ebp),%eax
  1036cd:	83 c8 04             	or     $0x4,%eax
  1036d0:	88 45 b0             	mov    %al,-0x50(%ebp)
  1036d3:	8b 45 f4             	mov    -0xc(%ebp),%eax
  1036d6:	c1 e8 0c             	shr    $0xc,%eax
  1036d9:	25 ff ff 0f 00       	and    $0xfffff,%eax
  1036de:	c1 e0 0c             	shl    $0xc,%eax
  1036e1:	89 c2                	mov    %eax,%edx
  1036e3:	8b 45 b0             	mov    -0x50(%ebp),%eax
  1036e6:	25 ff 0f 00 00       	and    $0xfff,%eax
  1036eb:	09 d0                	or     %edx,%eax
  1036ed:	89 45 b0             	mov    %eax,-0x50(%ebp)
  1036f0:	8b 45 f4             	mov    -0xc(%ebp),%eax
  1036f3:	2d 00 00 00 50       	sub    $0x50000000,%eax
  1036f8:	c1 e8 0c             	shr    $0xc,%eax
  1036fb:	25 ff 03 00 00       	and    $0x3ff,%eax
  103700:	8d 14 85 00 00 00 00 	lea    0x0(,%eax,4),%edx
  103707:	8b 45 c8             	mov    -0x38(%ebp),%eax
  10370a:	01 c2                	add    %eax,%edx
  10370c:	8b 45 b0             	mov    -0x50(%ebp),%eax
  10370f:	89 02                	mov    %eax,(%edx)
  103711:	83 45 ec 01          	addl   $0x1,-0x14(%ebp)
  103715:	8b 45 d0             	mov    -0x30(%ebp),%eax
  103718:	39 45 ec             	cmp    %eax,-0x14(%ebp)
  10371b:	74 1a                	je     103737 <mem_init+0x192>
  10371d:	81 45 f4 00 10 00 00 	addl   $0x1000,-0xc(%ebp)
  103724:	83 45 e4 01          	addl   $0x1,-0x1c(%ebp)
  103728:	81 7d e4 ff 03 00 00 	cmpl   $0x3ff,-0x1c(%ebp)
  10372f:	0f 8e 79 ff ff ff    	jle    1036ae <mem_init+0x109>
  103735:	eb 01                	jmp    103738 <mem_init+0x193>
  103737:	90                   	nop
  103738:	8b 45 f0             	mov    -0x10(%ebp),%eax
  10373b:	2d 00 00 00 50       	sub    $0x50000000,%eax
  103740:	c1 e8 16             	shr    $0x16,%eax
  103743:	8d 14 85 00 00 00 00 	lea    0x0(,%eax,4),%edx
  10374a:	8b 45 d8             	mov    -0x28(%ebp),%eax
  10374d:	01 d0                	add    %edx,%eax
  10374f:	89 45 c4             	mov    %eax,-0x3c(%ebp)
  103752:	8b 45 c4             	mov    -0x3c(%ebp),%eax
  103755:	0f b6 10             	movzbl (%eax),%edx
  103758:	83 ca 01             	or     $0x1,%edx
  10375b:	88 10                	mov    %dl,(%eax)
  10375d:	8b 45 c4             	mov    -0x3c(%ebp),%eax
  103760:	0f b6 10             	movzbl (%eax),%edx
  103763:	83 ca 02             	or     $0x2,%edx
  103766:	88 10                	mov    %dl,(%eax)
  103768:	8b 45 c4             	mov    -0x3c(%ebp),%eax
  10376b:	0f b6 10             	movzbl (%eax),%edx
  10376e:	83 ca 04             	or     $0x4,%edx
  103771:	88 10                	mov    %dl,(%eax)
  103773:	8b 45 c8             	mov    -0x38(%ebp),%eax
  103776:	c1 e8 0c             	shr    $0xc,%eax
  103779:	25 ff ff 0f 00       	and    $0xfffff,%eax
  10377e:	89 c2                	mov    %eax,%edx
  103780:	8b 45 c4             	mov    -0x3c(%ebp),%eax
  103783:	89 d1                	mov    %edx,%ecx
  103785:	c1 e1 0c             	shl    $0xc,%ecx
  103788:	8b 10                	mov    (%eax),%edx
  10378a:	81 e2 ff 0f 00 00    	and    $0xfff,%edx
  103790:	09 ca                	or     %ecx,%edx
  103792:	89 10                	mov    %edx,(%eax)
  103794:	81 45 f0 00 00 40 00 	addl   $0x400000,-0x10(%ebp)
  10379b:	8b 45 d0             	mov    -0x30(%ebp),%eax
  10379e:	39 45 ec             	cmp    %eax,-0x14(%ebp)
  1037a1:	74 12                	je     1037b5 <mem_init+0x210>
  1037a3:	83 45 e8 01          	addl   $0x1,-0x18(%ebp)
  1037a7:	8b 45 e8             	mov    -0x18(%ebp),%eax
  1037aa:	3b 45 cc             	cmp    -0x34(%ebp),%eax
  1037ad:	0f 8c b3 fe ff ff    	jl     103666 <mem_init+0xc1>
  1037b3:	eb 01                	jmp    1037b6 <mem_init+0x211>
  1037b5:	90                   	nop
  1037b6:	a1 24 bf 10 00       	mov    0x10bf24,%eax
  1037bb:	05 ff 0f 00 00       	add    $0xfff,%eax
  1037c0:	25 00 f0 ff ff       	and    $0xfffff000,%eax
  1037c5:	89 45 c0             	mov    %eax,-0x40(%ebp)
  1037c8:	8b 45 c0             	mov    -0x40(%ebp),%eax
  1037cb:	c1 e8 0c             	shr    $0xc,%eax
  1037ce:	89 45 bc             	mov    %eax,-0x44(%ebp)
  1037d1:	8b 45 bc             	mov    -0x44(%ebp),%eax
  1037d4:	05 00 04 00 00       	add    $0x400,%eax
  1037d9:	c1 e8 0a             	shr    $0xa,%eax
  1037dc:	89 45 cc             	mov    %eax,-0x34(%ebp)
  1037df:	c7 45 ec 00 00 00 00 	movl   $0x0,-0x14(%ebp)
  1037e6:	c7 45 f4 00 00 00 00 	movl   $0x0,-0xc(%ebp)
  1037ed:	c7 45 f0 00 00 00 00 	movl   $0x0,-0x10(%ebp)
  1037f4:	c7 45 e0 00 00 00 00 	movl   $0x0,-0x20(%ebp)
  1037fb:	e9 1e 01 00 00       	jmp    10391e <mem_init+0x379>
  103800:	e8 e0 d7 ff ff       	call   100fe5 <pmm_allocateBlock>
  103805:	89 45 b8             	mov    %eax,-0x48(%ebp)
  103808:	83 ec 04             	sub    $0x4,%esp
  10380b:	68 00 10 00 00       	push   $0x1000
  103810:	6a 00                	push   $0x0
  103812:	ff 75 b8             	push   -0x48(%ebp)
  103815:	e8 df 29 00 00       	call   1061f9 <memset>
  10381a:	83 c4 10             	add    $0x10,%esp
  10381d:	83 ec 08             	sub    $0x8,%esp
  103820:	ff 75 b8             	push   -0x48(%ebp)
  103823:	ff 75 f0             	push   -0x10(%ebp)
  103826:	68 44 94 10 00       	push   $0x109444
  10382b:	6a 04                	push   $0x4
  10382d:	68 72 01 00 00       	push   $0x172
  103832:	68 36 93 10 00       	push   $0x109336
  103837:	e8 66 cc ff ff       	call   1004a2 <dprintf_internal>
  10383c:	83 c4 20             	add    $0x20,%esp
  10383f:	c7 45 dc 00 00 00 00 	movl   $0x0,-0x24(%ebp)
  103846:	eb 6b                	jmp    1038b3 <mem_init+0x30e>
  103848:	c7 45 ac 00 00 00 00 	movl   $0x0,-0x54(%ebp)
  10384f:	0f b6 45 ac          	movzbl -0x54(%ebp),%eax
  103853:	83 c8 01             	or     $0x1,%eax
  103856:	88 45 ac             	mov    %al,-0x54(%ebp)
  103859:	0f b6 45 ac          	movzbl -0x54(%ebp),%eax
  10385d:	83 c8 02             	or     $0x2,%eax
  103860:	88 45 ac             	mov    %al,-0x54(%ebp)
  103863:	8b 45 f4             	mov    -0xc(%ebp),%eax
  103866:	c1 e8 0c             	shr    $0xc,%eax
  103869:	25 ff ff 0f 00       	and    $0xfffff,%eax
  10386e:	c1 e0 0c             	shl    $0xc,%eax
  103871:	89 c2                	mov    %eax,%edx
  103873:	8b 45 ac             	mov    -0x54(%ebp),%eax
  103876:	25 ff 0f 00 00       	and    $0xfff,%eax
  10387b:	09 d0                	or     %edx,%eax
  10387d:	89 45 ac             	mov    %eax,-0x54(%ebp)
  103880:	8b 45 f4             	mov    -0xc(%ebp),%eax
  103883:	c1 e8 0c             	shr    $0xc,%eax
  103886:	25 ff 03 00 00       	and    $0x3ff,%eax
  10388b:	8d 14 85 00 00 00 00 	lea    0x0(,%eax,4),%edx
  103892:	8b 45 b8             	mov    -0x48(%ebp),%eax
  103895:	01 c2                	add    %eax,%edx
  103897:	8b 45 ac             	mov    -0x54(%ebp),%eax
  10389a:	89 02                	mov    %eax,(%edx)
  10389c:	83 45 ec 01          	addl   $0x1,-0x14(%ebp)
  1038a0:	8b 45 bc             	mov    -0x44(%ebp),%eax
  1038a3:	39 45 ec             	cmp    %eax,-0x14(%ebp)
  1038a6:	74 16                	je     1038be <mem_init+0x319>
  1038a8:	81 45 f4 00 10 00 00 	addl   $0x1000,-0xc(%ebp)
  1038af:	83 45 dc 01          	addl   $0x1,-0x24(%ebp)
  1038b3:	81 7d dc ff 03 00 00 	cmpl   $0x3ff,-0x24(%ebp)
  1038ba:	7e 8c                	jle    103848 <mem_init+0x2a3>
  1038bc:	eb 01                	jmp    1038bf <mem_init+0x31a>
  1038be:	90                   	nop
  1038bf:	8b 45 f0             	mov    -0x10(%ebp),%eax
  1038c2:	c1 e8 16             	shr    $0x16,%eax
  1038c5:	8d 14 85 00 00 00 00 	lea    0x0(,%eax,4),%edx
  1038cc:	8b 45 d8             	mov    -0x28(%ebp),%eax
  1038cf:	01 d0                	add    %edx,%eax
  1038d1:	89 45 b4             	mov    %eax,-0x4c(%ebp)
  1038d4:	8b 45 b4             	mov    -0x4c(%ebp),%eax
  1038d7:	0f b6 10             	movzbl (%eax),%edx
  1038da:	83 ca 01             	or     $0x1,%edx
  1038dd:	88 10                	mov    %dl,(%eax)
  1038df:	8b 45 b4             	mov    -0x4c(%ebp),%eax
  1038e2:	0f b6 10             	movzbl (%eax),%edx
  1038e5:	83 ca 02             	or     $0x2,%edx
  1038e8:	88 10                	mov    %dl,(%eax)
  1038ea:	8b 45 b8             	mov    -0x48(%ebp),%eax
  1038ed:	c1 e8 0c             	shr    $0xc,%eax
  1038f0:	25 ff ff 0f 00       	and    $0xfffff,%eax
  1038f5:	89 c2                	mov    %eax,%edx
  1038f7:	8b 45 b4             	mov    -0x4c(%ebp),%eax
  1038fa:	89 d1                	mov    %edx,%ecx
  1038fc:	c1 e1 0c             	shl    $0xc,%ecx
  1038ff:	8b 10                	mov    (%eax),%edx
  103901:	81 e2 ff 0f 00 00    	and    $0xfff,%edx
  103907:	09 ca                	or     %ecx,%edx
  103909:	89 10                	mov    %edx,(%eax)
  10390b:	81 45 f0 00 00 40 00 	addl   $0x400000,-0x10(%ebp)
  103912:	8b 45 bc             	mov    -0x44(%ebp),%eax
  103915:	39 45 ec             	cmp    %eax,-0x14(%ebp)
  103918:	74 12                	je     10392c <mem_init+0x387>
  10391a:	83 45 e0 01          	addl   $0x1,-0x20(%ebp)
  10391e:	8b 45 e0             	mov    -0x20(%ebp),%eax
  103921:	3b 45 cc             	cmp    -0x34(%ebp),%eax
  103924:	0f 8c d6 fe ff ff    	jl     103800 <mem_init+0x25b>
  10392a:	eb 01                	jmp    10392d <mem_init+0x388>
  10392c:	90                   	nop
  10392d:	68 6c 94 10 00       	push   $0x10946c
  103932:	6a 01                	push   $0x1
  103934:	68 93 01 00 00       	push   $0x193
  103939:	68 36 93 10 00       	push   $0x109336
  10393e:	e8 5f cb ff ff       	call   1004a2 <dprintf_internal>
  103943:	83 c4 10             	add    $0x10,%esp
  103946:	83 ec 0c             	sub    $0xc,%esp
  103949:	ff 75 08             	push   0x8(%ebp)
  10394c:	68 8c 94 10 00       	push   $0x10948c
  103951:	6a 04                	push   $0x4
  103953:	68 94 01 00 00       	push   $0x194
  103958:	68 36 93 10 00       	push   $0x109336
  10395d:	e8 40 cb ff ff       	call   1004a2 <dprintf_internal>
  103962:	83 c4 20             	add    $0x20,%esp
  103965:	a1 24 bf 10 00       	mov    0x10bf24,%eax
  10396a:	83 ec 0c             	sub    $0xc,%esp
  10396d:	50                   	push   %eax
  10396e:	68 b0 94 10 00       	push   $0x1094b0
  103973:	6a 04                	push   $0x4
  103975:	68 95 01 00 00       	push   $0x195
  10397a:	68 36 93 10 00       	push   $0x109336
  10397f:	e8 1e cb ff ff       	call   1004a2 <dprintf_internal>
  103984:	83 c4 20             	add    $0x20,%esp
  103987:	83 ec 0c             	sub    $0xc,%esp
  10398a:	ff 75 d8             	push   -0x28(%ebp)
  10398d:	68 d4 94 10 00       	push   $0x1094d4
  103992:	6a 01                	push   $0x1
  103994:	68 97 01 00 00       	push   $0x197
  103999:	68 36 93 10 00       	push   $0x109336
  10399e:	e8 ff ca ff ff       	call   1004a2 <dprintf_internal>
  1039a3:	83 c4 20             	add    $0x20,%esp
  1039a6:	8b 45 d8             	mov    -0x28(%ebp),%eax
  1039a9:	a3 20 bf 10 00       	mov    %eax,0x10bf20
  1039ae:	a1 20 bf 10 00       	mov    0x10bf20,%eax
  1039b3:	83 ec 0c             	sub    $0xc,%esp
  1039b6:	50                   	push   %eax
  1039b7:	e8 78 f8 ff ff       	call   103234 <mem_switchDirectory>
  1039bc:	83 c4 10             	add    $0x10,%esp
  1039bf:	83 ec 0c             	sub    $0xc,%esp
  1039c2:	6a 01                	push   $0x1
  1039c4:	e8 ee f7 ff ff       	call   1031b7 <mem_setPaging>
  1039c9:	83 c4 10             	add    $0x10,%esp
  1039cc:	90                   	nop
  1039cd:	c9                   	leave  
  1039ce:	c3                   	ret    

001039cf <mem_sbrk>:
  1039cf:	55                   	push   %ebp
  1039d0:	89 e5                	mov    %esp,%ebp
  1039d2:	83 ec 28             	sub    $0x28,%esp
  1039d5:	a1 24 bf 10 00       	mov    0x10bf24,%eax
  1039da:	85 c0                	test   %eax,%eax
  1039dc:	75 17                	jne    1039f5 <mem_sbrk+0x26>
  1039de:	83 ec 04             	sub    $0x4,%esp
  1039e1:	68 fa 94 10 00       	push   $0x1094fa
  1039e6:	68 d8 93 10 00       	push   $0x1093d8
  1039eb:	6a 02                	push   $0x2
  1039ed:	e8 6f cc ff ff       	call   100661 <kernel_panic_extended>
  1039f2:	83 c4 10             	add    $0x10,%esp
  1039f5:	83 7d 08 00          	cmpl   $0x0,0x8(%ebp)
  1039f9:	75 0a                	jne    103a05 <mem_sbrk+0x36>
  1039fb:	a1 24 bf 10 00       	mov    0x10bf24,%eax
  103a00:	e9 3b 01 00 00       	jmp    103b40 <mem_sbrk+0x171>
  103a05:	8b 45 08             	mov    0x8(%ebp),%eax
  103a08:	25 ff 0f 00 00       	and    $0xfff,%eax
  103a0d:	85 c0                	test   %eax,%eax
  103a0f:	74 19                	je     103a2a <mem_sbrk+0x5b>
  103a11:	68 00 10 00 00       	push   $0x1000
  103a16:	68 10 95 10 00       	push   $0x109510
  103a1b:	68 d8 93 10 00       	push   $0x1093d8
  103a20:	6a 02                	push   $0x2
  103a22:	e8 3a cc ff ff       	call   100661 <kernel_panic_extended>
  103a27:	83 c4 10             	add    $0x10,%esp
  103a2a:	83 7d 08 00          	cmpl   $0x0,0x8(%ebp)
  103a2e:	79 5f                	jns    103a8f <mem_sbrk+0xc0>
  103a30:	a1 24 bf 10 00       	mov    0x10bf24,%eax
  103a35:	89 45 f4             	mov    %eax,-0xc(%ebp)
  103a38:	eb 25                	jmp    103a5f <mem_sbrk+0x90>
  103a3a:	83 ec 04             	sub    $0x4,%esp
  103a3d:	6a 00                	push   $0x0
  103a3f:	ff 75 f4             	push   -0xc(%ebp)
  103a42:	6a 00                	push   $0x0
  103a44:	e8 15 f9 ff ff       	call   10335e <mem_getPage>
  103a49:	83 c4 10             	add    $0x10,%esp
  103a4c:	83 ec 0c             	sub    $0xc,%esp
  103a4f:	50                   	push   %eax
  103a50:	e8 fa fa ff ff       	call   10354f <mem_freePage>
  103a55:	83 c4 10             	add    $0x10,%esp
  103a58:	81 6d f4 00 10 00 00 	subl   $0x1000,-0xc(%ebp)
  103a5f:	8b 15 24 bf 10 00    	mov    0x10bf24,%edx
  103a65:	8b 45 08             	mov    0x8(%ebp),%eax
  103a68:	01 d0                	add    %edx,%eax
  103a6a:	39 45 f4             	cmp    %eax,-0xc(%ebp)
  103a6d:	73 cb                	jae    103a3a <mem_sbrk+0x6b>
  103a6f:	a1 24 bf 10 00       	mov    0x10bf24,%eax
  103a74:	89 45 e0             	mov    %eax,-0x20(%ebp)
  103a77:	8b 15 24 bf 10 00    	mov    0x10bf24,%edx
  103a7d:	8b 45 08             	mov    0x8(%ebp),%eax
  103a80:	01 d0                	add    %edx,%eax
  103a82:	a3 24 bf 10 00       	mov    %eax,0x10bf24
  103a87:	8b 45 e0             	mov    -0x20(%ebp),%eax
  103a8a:	e9 b1 00 00 00       	jmp    103b40 <mem_sbrk+0x171>
  103a8f:	a1 24 bf 10 00       	mov    0x10bf24,%eax
  103a94:	89 45 f0             	mov    %eax,-0x10(%ebp)
  103a97:	eb 78                	jmp    103b11 <mem_sbrk+0x142>
  103a99:	83 ec 04             	sub    $0x4,%esp
  103a9c:	6a 00                	push   $0x0
  103a9e:	ff 75 f0             	push   -0x10(%ebp)
  103aa1:	6a 00                	push   $0x0
  103aa3:	e8 b6 f8 ff ff       	call   10335e <mem_getPage>
  103aa8:	83 c4 10             	add    $0x10,%esp
  103aab:	89 45 e8             	mov    %eax,-0x18(%ebp)
  103aae:	8b 45 e8             	mov    -0x18(%ebp),%eax
  103ab1:	0f b6 00             	movzbl (%eax),%eax
  103ab4:	83 e0 01             	and    $0x1,%eax
  103ab7:	84 c0                	test   %al,%al
  103ab9:	74 2a                	je     103ae5 <mem_sbrk+0x116>
  103abb:	8b 45 f0             	mov    -0x10(%ebp),%eax
  103abe:	05 00 10 00 00       	add    $0x1000,%eax
  103ac3:	83 ec 08             	sub    $0x8,%esp
  103ac6:	50                   	push   %eax
  103ac7:	ff 75 f0             	push   -0x10(%ebp)
  103aca:	68 40 95 10 00       	push   $0x109540
  103acf:	6a 02                	push   $0x2
  103ad1:	68 c4 01 00 00       	push   $0x1c4
  103ad6:	68 36 93 10 00       	push   $0x109336
  103adb:	e8 c2 c9 ff ff       	call   1004a2 <dprintf_internal>
  103ae0:	83 c4 20             	add    $0x20,%esp
  103ae3:	eb 25                	jmp    103b0a <mem_sbrk+0x13b>
  103ae5:	83 ec 04             	sub    $0x4,%esp
  103ae8:	6a 01                	push   $0x1
  103aea:	ff 75 f0             	push   -0x10(%ebp)
  103aed:	6a 00                	push   $0x0
  103aef:	e8 6a f8 ff ff       	call   10335e <mem_getPage>
  103af4:	83 c4 10             	add    $0x10,%esp
  103af7:	89 45 e4             	mov    %eax,-0x1c(%ebp)
  103afa:	83 ec 08             	sub    $0x8,%esp
  103afd:	6a 02                	push   $0x2
  103aff:	ff 75 e4             	push   -0x1c(%ebp)
  103b02:	e8 45 f9 ff ff       	call   10344c <mem_allocatePage>
  103b07:	83 c4 10             	add    $0x10,%esp
  103b0a:	81 45 f0 00 10 00 00 	addl   $0x1000,-0x10(%ebp)
  103b11:	8b 15 24 bf 10 00    	mov    0x10bf24,%edx
  103b17:	8b 45 08             	mov    0x8(%ebp),%eax
  103b1a:	01 d0                	add    %edx,%eax
  103b1c:	39 45 f0             	cmp    %eax,-0x10(%ebp)
  103b1f:	0f 82 74 ff ff ff    	jb     103a99 <mem_sbrk+0xca>
  103b25:	a1 24 bf 10 00       	mov    0x10bf24,%eax
  103b2a:	89 45 ec             	mov    %eax,-0x14(%ebp)
  103b2d:	8b 15 24 bf 10 00    	mov    0x10bf24,%edx
  103b33:	8b 45 08             	mov    0x8(%ebp),%eax
  103b36:	01 d0                	add    %edx,%eax
  103b38:	a3 24 bf 10 00       	mov    %eax,0x10bf24
  103b3d:	8b 45 ec             	mov    -0x14(%ebp),%eax
  103b40:	c9                   	leave  
  103b41:	c3                   	ret    

00103b42 <hal_init_stage1>:
  103b42:	55                   	push   %ebp
  103b43:	89 e5                	mov    %esp,%ebp
  103b45:	83 ec 08             	sub    $0x8,%esp
  103b48:	e8 f2 0c 00 00       	call   10483f <serial_initialize>
  103b4d:	83 ec 0c             	sub    $0xc,%esp
  103b50:	68 18 49 10 00       	push   $0x104918
  103b55:	e8 c8 ca ff ff       	call   100622 <debug_setOutput>
  103b5a:	83 c4 10             	add    $0x10,%esp
  103b5d:	e8 e9 00 00 00       	call   103c4b <arch_say_hello>
  103b62:	e8 d8 f1 ff ff       	call   102d3f <hal_initializeInterrupts>
  103b67:	e8 ad 09 00 00       	call   104519 <clock_initialize>
  103b6c:	e8 ce 0e 00 00       	call   104a3f <pit_initialize>
  103b71:	90                   	nop
  103b72:	c9                   	leave  
  103b73:	c3                   	ret    

00103b74 <hal_init_stage2>:
  103b74:	55                   	push   %ebp
  103b75:	89 e5                	mov    %esp,%ebp
  103b77:	90                   	nop
  103b78:	5d                   	pop    %ebp
  103b79:	c3                   	ret    

00103b7a <hal_init>:
  103b7a:	55                   	push   %ebp
  103b7b:	89 e5                	mov    %esp,%ebp
  103b7d:	83 ec 08             	sub    $0x8,%esp
  103b80:	83 7d 08 01          	cmpl   $0x1,0x8(%ebp)
  103b84:	75 07                	jne    103b8d <hal_init+0x13>
  103b86:	e8 b7 ff ff ff       	call   103b42 <hal_init_stage1>
  103b8b:	eb 0b                	jmp    103b98 <hal_init+0x1e>
  103b8d:	83 7d 08 02          	cmpl   $0x2,0x8(%ebp)
  103b91:	75 05                	jne    103b98 <hal_init+0x1e>
  103b93:	e8 dc ff ff ff       	call   103b74 <hal_init_stage2>
  103b98:	90                   	nop
  103b99:	c9                   	leave  
  103b9a:	c3                   	ret    

00103b9b <outportb>:
  103b9b:	55                   	push   %ebp
  103b9c:	89 e5                	mov    %esp,%ebp
  103b9e:	83 ec 08             	sub    $0x8,%esp
  103ba1:	8b 55 08             	mov    0x8(%ebp),%edx
  103ba4:	8b 45 0c             	mov    0xc(%ebp),%eax
  103ba7:	66 89 55 fc          	mov    %dx,-0x4(%ebp)
  103bab:	88 45 f8             	mov    %al,-0x8(%ebp)
  103bae:	0f b7 55 fc          	movzwl -0x4(%ebp),%edx
  103bb2:	0f b6 45 f8          	movzbl -0x8(%ebp),%eax
  103bb6:	ee                   	out    %al,(%dx)
  103bb7:	90                   	nop
  103bb8:	c9                   	leave  
  103bb9:	c3                   	ret    

00103bba <outportw>:
  103bba:	55                   	push   %ebp
  103bbb:	89 e5                	mov    %esp,%ebp
  103bbd:	83 ec 08             	sub    $0x8,%esp
  103bc0:	8b 55 08             	mov    0x8(%ebp),%edx
  103bc3:	8b 45 0c             	mov    0xc(%ebp),%eax
  103bc6:	66 89 55 fc          	mov    %dx,-0x4(%ebp)
  103bca:	66 89 45 f8          	mov    %ax,-0x8(%ebp)
  103bce:	0f b7 55 fc          	movzwl -0x4(%ebp),%edx
  103bd2:	0f b7 45 f8          	movzwl -0x8(%ebp),%eax
  103bd6:	66 ef                	out    %ax,(%dx)
  103bd8:	90                   	nop
  103bd9:	c9                   	leave  
  103bda:	c3                   	ret    

00103bdb <outportl>:
  103bdb:	55                   	push   %ebp
  103bdc:	89 e5                	mov    %esp,%ebp
  103bde:	83 ec 04             	sub    $0x4,%esp
  103be1:	8b 45 08             	mov    0x8(%ebp),%eax
  103be4:	66 89 45 fc          	mov    %ax,-0x4(%ebp)
  103be8:	0f b7 55 fc          	movzwl -0x4(%ebp),%edx
  103bec:	8b 45 0c             	mov    0xc(%ebp),%eax
  103bef:	ef                   	out    %eax,(%dx)
  103bf0:	90                   	nop
  103bf1:	c9                   	leave  
  103bf2:	c3                   	ret    

00103bf3 <inportb>:
  103bf3:	55                   	push   %ebp
  103bf4:	89 e5                	mov    %esp,%ebp
  103bf6:	83 ec 14             	sub    $0x14,%esp
  103bf9:	8b 45 08             	mov    0x8(%ebp),%eax
  103bfc:	66 89 45 ec          	mov    %ax,-0x14(%ebp)
  103c00:	0f b7 45 ec          	movzwl -0x14(%ebp),%eax
  103c04:	89 c2                	mov    %eax,%edx
  103c06:	ec                   	in     (%dx),%al
  103c07:	88 45 ff             	mov    %al,-0x1(%ebp)
  103c0a:	0f b6 45 ff          	movzbl -0x1(%ebp),%eax
  103c0e:	c9                   	leave  
  103c0f:	c3                   	ret    

00103c10 <inportw>:
  103c10:	55                   	push   %ebp
  103c11:	89 e5                	mov    %esp,%ebp
  103c13:	83 ec 14             	sub    $0x14,%esp
  103c16:	8b 45 08             	mov    0x8(%ebp),%eax
  103c19:	66 89 45 ec          	mov    %ax,-0x14(%ebp)
  103c1d:	0f b7 45 ec          	movzwl -0x14(%ebp),%eax
  103c21:	89 c2                	mov    %eax,%edx
  103c23:	66 ed                	in     (%dx),%ax
  103c25:	66 89 45 fe          	mov    %ax,-0x2(%ebp)
  103c29:	0f b7 45 fe          	movzwl -0x2(%ebp),%eax
  103c2d:	c9                   	leave  
  103c2e:	c3                   	ret    

00103c2f <inportl>:
  103c2f:	55                   	push   %ebp
  103c30:	89 e5                	mov    %esp,%ebp
  103c32:	83 ec 14             	sub    $0x14,%esp
  103c35:	8b 45 08             	mov    0x8(%ebp),%eax
  103c38:	66 89 45 ec          	mov    %ax,-0x14(%ebp)
  103c3c:	0f b7 45 ec          	movzwl -0x14(%ebp),%eax
  103c40:	89 c2                	mov    %eax,%edx
  103c42:	ed                   	in     (%dx),%eax
  103c43:	89 45 fc             	mov    %eax,-0x4(%ebp)
  103c46:	8b 45 fc             	mov    -0x4(%ebp),%eax
  103c49:	c9                   	leave  
  103c4a:	c3                   	ret    

00103c4b <arch_say_hello>:
  103c4b:	55                   	push   %ebp
  103c4c:	89 e5                	mov    %esp,%ebp
  103c4e:	57                   	push   %edi
  103c4f:	56                   	push   %esi
  103c50:	53                   	push   %ebx
  103c51:	83 ec 0c             	sub    $0xc,%esp
  103c54:	a1 10 a0 10 00       	mov    0x10a010,%eax
  103c59:	83 ec 0c             	sub    $0xc,%esp
  103c5c:	50                   	push   %eax
  103c5d:	68 68 95 10 00       	push   $0x109568
  103c62:	6a 00                	push   $0x0
  103c64:	6a 2c                	push   $0x2c
  103c66:	68 6c 95 10 00       	push   $0x10956c
  103c6b:	e8 32 c8 ff ff       	call   1004a2 <dprintf_internal>
  103c70:	83 c4 20             	add    $0x20,%esp
  103c73:	8b 3d 0c a0 10 00    	mov    0x10a00c,%edi
  103c79:	8b 35 14 a0 10 00    	mov    0x10a014,%esi
  103c7f:	8b 1d 18 a0 10 00    	mov    0x10a018,%ebx
  103c85:	8b 0d 2c 80 10 00    	mov    0x10802c,%ecx
  103c8b:	8b 15 28 80 10 00    	mov    0x108028,%edx
  103c91:	a1 24 80 10 00       	mov    0x108024,%eax
  103c96:	83 ec 08             	sub    $0x8,%esp
  103c99:	57                   	push   %edi
  103c9a:	56                   	push   %esi
  103c9b:	53                   	push   %ebx
  103c9c:	51                   	push   %ecx
  103c9d:	52                   	push   %edx
  103c9e:	50                   	push   %eax
  103c9f:	68 80 95 10 00       	push   $0x109580
  103ca4:	6a 00                	push   $0x0
  103ca6:	6a 2d                	push   $0x2d
  103ca8:	68 6c 95 10 00       	push   $0x10956c
  103cad:	e8 f0 c7 ff ff       	call   1004a2 <dprintf_internal>
  103cb2:	83 c4 30             	add    $0x30,%esp
  103cb5:	8b 0d 08 a0 10 00    	mov    0x10a008,%ecx
  103cbb:	8b 15 04 a0 10 00    	mov    0x10a004,%edx
  103cc1:	a1 1c a0 10 00       	mov    0x10a01c,%eax
  103cc6:	83 ec 04             	sub    $0x4,%esp
  103cc9:	51                   	push   %ecx
  103cca:	52                   	push   %edx
  103ccb:	50                   	push   %eax
  103ccc:	68 ab 95 10 00       	push   $0x1095ab
  103cd1:	6a 00                	push   $0x0
  103cd3:	6a 35                	push   $0x35
  103cd5:	68 6c 95 10 00       	push   $0x10956c
  103cda:	e8 c3 c7 ff ff       	call   1004a2 <dprintf_internal>
  103cdf:	83 c4 20             	add    $0x20,%esp
  103ce2:	90                   	nop
  103ce3:	8d 65 f4             	lea    -0xc(%ebp),%esp
  103ce6:	5b                   	pop    %ebx
  103ce7:	5e                   	pop    %esi
  103ce8:	5f                   	pop    %edi
  103ce9:	5d                   	pop    %ebp
  103cea:	c3                   	ret    

00103ceb <arch_panic_prepare>:
  103ceb:	55                   	push   %ebp
  103cec:	89 e5                	mov    %esp,%ebp
  103cee:	90                   	nop
  103cef:	5d                   	pop    %ebp
  103cf0:	c3                   	ret    

00103cf1 <arch_panic_finalize>:
  103cf1:	55                   	push   %ebp
  103cf2:	89 e5                	mov    %esp,%ebp
  103cf4:	fa                   	cli    
  103cf5:	f4                   	hlt    
  103cf6:	90                   	nop
  103cf7:	eb fd                	jmp    103cf6 <arch_panic_finalize+0x5>

00103cf9 <arch_allocate_structure>:
  103cf9:	55                   	push   %ebp
  103cfa:	89 e5                	mov    %esp,%ebp
  103cfc:	83 ec 18             	sub    $0x18,%esp
  103cff:	a1 fc a0 10 00       	mov    0x10a0fc,%eax
  103d04:	89 45 f4             	mov    %eax,-0xc(%ebp)
  103d07:	8b 15 fc a0 10 00    	mov    0x10a0fc,%edx
  103d0d:	8b 45 08             	mov    0x8(%ebp),%eax
  103d10:	01 d0                	add    %edx,%eax
  103d12:	a3 fc a0 10 00       	mov    %eax,0x10a0fc
  103d17:	8b 45 f4             	mov    -0xc(%ebp),%eax
  103d1a:	83 ec 04             	sub    $0x4,%esp
  103d1d:	ff 75 08             	push   0x8(%ebp)
  103d20:	6a 00                	push   $0x0
  103d22:	50                   	push   %eax
  103d23:	e8 d1 24 00 00       	call   1061f9 <memset>
  103d28:	83 c4 10             	add    $0x10,%esp
  103d2b:	8b 45 f4             	mov    -0xc(%ebp),%eax
  103d2e:	c9                   	leave  
  103d2f:	c3                   	ret    

00103d30 <arch_relocate_structure>:
  103d30:	55                   	push   %ebp
  103d31:	89 e5                	mov    %esp,%ebp
  103d33:	83 ec 18             	sub    $0x18,%esp
  103d36:	83 ec 0c             	sub    $0xc,%esp
  103d39:	ff 75 0c             	push   0xc(%ebp)
  103d3c:	e8 b8 ff ff ff       	call   103cf9 <arch_allocate_structure>
  103d41:	83 c4 10             	add    $0x10,%esp
  103d44:	89 45 f4             	mov    %eax,-0xc(%ebp)
  103d47:	8b 55 08             	mov    0x8(%ebp),%edx
  103d4a:	8b 45 f4             	mov    -0xc(%ebp),%eax
  103d4d:	83 ec 04             	sub    $0x4,%esp
  103d50:	ff 75 0c             	push   0xc(%ebp)
  103d53:	52                   	push   %edx
  103d54:	50                   	push   %eax
  103d55:	e8 5e 24 00 00       	call   1061b8 <memcpy>
  103d5a:	83 c4 10             	add    $0x10,%esp
  103d5d:	8b 45 f4             	mov    -0xc(%ebp),%eax
  103d60:	c9                   	leave  
  103d61:	c3                   	ret    

00103d62 <arch_main>:
  103d62:	55                   	push   %ebp
  103d63:	89 e5                	mov    %esp,%ebp
  103d65:	56                   	push   %esi
  103d66:	53                   	push   %ebx
  103d67:	83 ec 20             	sub    $0x20,%esp
  103d6a:	83 ec 0c             	sub    $0xc,%esp
  103d6d:	6a 01                	push   $0x1
  103d6f:	e8 06 fe ff ff       	call   103b7a <hal_init>
  103d74:	83 c4 10             	add    $0x10,%esp
  103d77:	a1 fc a0 10 00       	mov    0x10a0fc,%eax
  103d7c:	05 00 10 00 00       	add    $0x1000,%eax
  103d81:	a3 fc a0 10 00       	mov    %eax,0x10a0fc
  103d86:	a1 fc a0 10 00       	mov    0x10a0fc,%eax
  103d8b:	25 00 f0 ff ff       	and    $0xfffff000,%eax
  103d90:	a3 fc a0 10 00       	mov    %eax,0x10a0fc
  103d95:	c7 45 f4 00 00 00 00 	movl   $0x0,-0xc(%ebp)
  103d9c:	81 7d 0c 02 b0 ad 2b 	cmpl   $0x2badb002,0xc(%ebp)
  103da3:	75 29                	jne    103dce <arch_main+0x6c>
  103da5:	68 c6 95 10 00       	push   $0x1095c6
  103daa:	6a 01                	push   $0x1
  103dac:	6a 7c                	push   $0x7c
  103dae:	68 6c 95 10 00       	push   $0x10956c
  103db3:	e8 ea c6 ff ff       	call   1004a2 <dprintf_internal>
  103db8:	83 c4 10             	add    $0x10,%esp
  103dbb:	83 ec 0c             	sub    $0xc,%esp
  103dbe:	ff 75 08             	push   0x8(%ebp)
  103dc1:	e8 10 e6 ff ff       	call   1023d6 <arch_parse_multiboot1>
  103dc6:	83 c4 10             	add    $0x10,%esp
  103dc9:	89 45 f4             	mov    %eax,-0xc(%ebp)
  103dcc:	eb 4a                	jmp    103e18 <arch_main+0xb6>
  103dce:	81 7d 0c 89 62 d7 36 	cmpl   $0x36d76289,0xc(%ebp)
  103dd5:	75 2a                	jne    103e01 <arch_main+0x9f>
  103dd7:	68 e4 95 10 00       	push   $0x1095e4
  103ddc:	6a 01                	push   $0x1
  103dde:	6a 7f                	push   $0x7f
  103de0:	68 6c 95 10 00       	push   $0x10956c
  103de5:	e8 b8 c6 ff ff       	call   1004a2 <dprintf_internal>
  103dea:	83 c4 10             	add    $0x10,%esp
  103ded:	83 ec 08             	sub    $0x8,%esp
  103df0:	68 02 96 10 00       	push   $0x109602
  103df5:	6a 00                	push   $0x0
  103df7:	e8 6e c9 ff ff       	call   10076a <kernel_panic>
  103dfc:	83 c4 10             	add    $0x10,%esp
  103dff:	eb 17                	jmp    103e18 <arch_main+0xb6>
  103e01:	83 ec 04             	sub    $0x4,%esp
  103e04:	68 08 96 10 00       	push   $0x109608
  103e09:	68 02 96 10 00       	push   $0x109602
  103e0e:	6a 02                	push   $0x2
  103e10:	e8 4c c8 ff ff       	call   100661 <kernel_panic_extended>
  103e15:	83 c4 10             	add    $0x10,%esp
  103e18:	8b 45 f4             	mov    -0xc(%ebp),%eax
  103e1b:	8b 10                	mov    (%eax),%edx
  103e1d:	8b 45 f4             	mov    -0xc(%ebp),%eax
  103e20:	8b 40 04             	mov    0x4(%eax),%eax
  103e23:	83 ec 08             	sub    $0x8,%esp
  103e26:	52                   	push   %edx
  103e27:	50                   	push   %eax
  103e28:	68 40 96 10 00       	push   $0x109640
  103e2d:	6a 01                	push   $0x1
  103e2f:	68 85 00 00 00       	push   $0x85
  103e34:	68 6c 95 10 00       	push   $0x10956c
  103e39:	e8 64 c6 ff ff       	call   1004a2 <dprintf_internal>
  103e3e:	83 c4 20             	add    $0x20,%esp
  103e41:	8b 45 f4             	mov    -0xc(%ebp),%eax
  103e44:	8b 40 14             	mov    0x14(%eax),%eax
  103e47:	83 ec 0c             	sub    $0xc,%esp
  103e4a:	50                   	push   %eax
  103e4b:	68 68 96 10 00       	push   $0x109668
  103e50:	6a 01                	push   $0x1
  103e52:	68 86 00 00 00       	push   $0x86
  103e57:	68 6c 95 10 00       	push   $0x10956c
  103e5c:	e8 41 c6 ff ff       	call   1004a2 <dprintf_internal>
  103e61:	83 c4 20             	add    $0x20,%esp
  103e64:	8b 45 f4             	mov    -0xc(%ebp),%eax
  103e67:	8b 40 14             	mov    0x14(%eax),%eax
  103e6a:	c1 e0 0a             	shl    $0xa,%eax
  103e6d:	c1 e8 0c             	shr    $0xc,%eax
  103e70:	83 ec 0c             	sub    $0xc,%esp
  103e73:	50                   	push   %eax
  103e74:	e8 80 fe ff ff       	call   103cf9 <arch_allocate_structure>
  103e79:	83 c4 10             	add    $0x10,%esp
  103e7c:	89 45 f0             	mov    %eax,-0x10(%ebp)
  103e7f:	8b 45 f4             	mov    -0xc(%ebp),%eax
  103e82:	8b 40 14             	mov    0x14(%eax),%eax
  103e85:	c1 e0 0a             	shl    $0xa,%eax
  103e88:	83 ec 08             	sub    $0x8,%esp
  103e8b:	ff 75 f0             	push   -0x10(%ebp)
  103e8e:	50                   	push   %eax
  103e8f:	e8 c9 cd ff ff       	call   100c5d <pmm_init>
  103e94:	83 c4 10             	add    $0x10,%esp
  103e97:	a1 fc a0 10 00       	mov    0x10a0fc,%eax
  103e9c:	83 ec 08             	sub    $0x8,%esp
  103e9f:	50                   	push   %eax
  103ea0:	ff 75 f4             	push   -0xc(%ebp)
  103ea3:	e8 53 e9 ff ff       	call   1027fb <arch_mark_memory>
  103ea8:	83 c4 10             	add    $0x10,%esp
  103eab:	c7 45 ec a6 ff 10 00 	movl   $0x10ffa6,-0x14(%ebp)
  103eb2:	c7 45 e8 b0 00 10 00 	movl   $0x1000b0,-0x18(%ebp)
  103eb9:	a1 fc a0 10 00       	mov    0x10a0fc,%eax
  103ebe:	2b 45 ec             	sub    -0x14(%ebp),%eax
  103ec1:	c1 e8 0a             	shr    $0xa,%eax
  103ec4:	89 c2                	mov    %eax,%edx
  103ec6:	8b 45 ec             	mov    -0x14(%ebp),%eax
  103ec9:	2b 45 e8             	sub    -0x18(%ebp),%eax
  103ecc:	c1 e8 0a             	shr    $0xa,%eax
  103ecf:	83 ec 08             	sub    $0x8,%esp
  103ed2:	52                   	push   %edx
  103ed3:	50                   	push   %eax
  103ed4:	68 98 96 10 00       	push   $0x109698
  103ed9:	6a 01                	push   $0x1
  103edb:	68 92 00 00 00       	push   $0x92
  103ee0:	68 6c 95 10 00       	push   $0x10956c
  103ee5:	e8 b8 c5 ff ff       	call   1004a2 <dprintf_internal>
  103eea:	83 c4 20             	add    $0x20,%esp
  103eed:	a1 fc a0 10 00       	mov    0x10a0fc,%eax
  103ef2:	83 ec 0c             	sub    $0xc,%esp
  103ef5:	50                   	push   %eax
  103ef6:	e8 aa f6 ff ff       	call   1035a5 <mem_init>
  103efb:	83 c4 10             	add    $0x10,%esp
  103efe:	e8 37 d3 ff ff       	call   10123a <alloc_getInfo>
  103f03:	89 45 e4             	mov    %eax,-0x1c(%ebp)
  103f06:	8b 45 e4             	mov    -0x1c(%ebp),%eax
  103f09:	8b 80 88 00 00 00    	mov    0x88(%eax),%eax
  103f0f:	85 c0                	test   %eax,%eax
  103f11:	74 07                	je     103f1a <arch_main+0x1b8>
  103f13:	be e0 96 10 00       	mov    $0x1096e0,%esi
  103f18:	eb 05                	jmp    103f1f <arch_main+0x1bd>
  103f1a:	be ea 96 10 00       	mov    $0x1096ea,%esi
  103f1f:	8b 45 e4             	mov    -0x1c(%ebp),%eax
  103f22:	8b 80 8c 00 00 00    	mov    0x8c(%eax),%eax
  103f28:	85 c0                	test   %eax,%eax
  103f2a:	74 07                	je     103f33 <arch_main+0x1d1>
  103f2c:	bb e0 96 10 00       	mov    $0x1096e0,%ebx
  103f31:	eb 05                	jmp    103f38 <arch_main+0x1d6>
  103f33:	bb ea 96 10 00       	mov    $0x1096ea,%ebx
  103f38:	8b 45 e4             	mov    -0x1c(%ebp),%eax
  103f3b:	8b 88 84 00 00 00    	mov    0x84(%eax),%ecx
  103f41:	8b 45 e4             	mov    -0x1c(%ebp),%eax
  103f44:	8b 90 80 00 00 00    	mov    0x80(%eax),%edx
  103f4a:	8b 45 e4             	mov    -0x1c(%ebp),%eax
  103f4d:	83 ec 0c             	sub    $0xc,%esp
  103f50:	56                   	push   %esi
  103f51:	53                   	push   %ebx
  103f52:	51                   	push   %ecx
  103f53:	52                   	push   %edx
  103f54:	50                   	push   %eax
  103f55:	68 f8 96 10 00       	push   $0x1096f8
  103f5a:	6a 01                	push   $0x1
  103f5c:	68 9c 00 00 00       	push   $0x9c
  103f61:	68 6c 95 10 00       	push   $0x10956c
  103f66:	e8 37 c5 ff ff       	call   1004a2 <dprintf_internal>
  103f6b:	83 c4 30             	add    $0x30,%esp
  103f6e:	83 ec 0c             	sub    $0xc,%esp
  103f71:	6a 02                	push   $0x2
  103f73:	e8 02 fc ff ff       	call   103b7a <hal_init>
  103f78:	83 c4 10             	add    $0x10,%esp
  103f7b:	90                   	nop
  103f7c:	eb fd                	jmp    103f7b <arch_main+0x219>

00103f7e <is_year_leap>:
  103f7e:	55                   	push   %ebp
  103f7f:	89 e5                	mov    %esp,%ebp
  103f81:	8b 45 08             	mov    0x8(%ebp),%eax
  103f84:	83 e0 03             	and    $0x3,%eax
  103f87:	85 c0                	test   %eax,%eax
  103f89:	75 50                	jne    103fdb <is_year_leap+0x5d>
  103f8b:	8b 4d 08             	mov    0x8(%ebp),%ecx
  103f8e:	ba 1f 85 eb 51       	mov    $0x51eb851f,%edx
  103f93:	89 c8                	mov    %ecx,%eax
  103f95:	f7 ea                	imul   %edx
  103f97:	89 d0                	mov    %edx,%eax
  103f99:	c1 f8 05             	sar    $0x5,%eax
  103f9c:	89 ca                	mov    %ecx,%edx
  103f9e:	c1 fa 1f             	sar    $0x1f,%edx
  103fa1:	29 d0                	sub    %edx,%eax
  103fa3:	6b d0 64             	imul   $0x64,%eax,%edx
  103fa6:	89 c8                	mov    %ecx,%eax
  103fa8:	29 d0                	sub    %edx,%eax
  103faa:	85 c0                	test   %eax,%eax
  103fac:	75 26                	jne    103fd4 <is_year_leap+0x56>
  103fae:	8b 4d 08             	mov    0x8(%ebp),%ecx
  103fb1:	ba 1f 85 eb 51       	mov    $0x51eb851f,%edx
  103fb6:	89 c8                	mov    %ecx,%eax
  103fb8:	f7 ea                	imul   %edx
  103fba:	89 d0                	mov    %edx,%eax
  103fbc:	c1 f8 07             	sar    $0x7,%eax
  103fbf:	89 ca                	mov    %ecx,%edx
  103fc1:	c1 fa 1f             	sar    $0x1f,%edx
  103fc4:	29 d0                	sub    %edx,%eax
  103fc6:	69 d0 90 01 00 00    	imul   $0x190,%eax,%edx
  103fcc:	89 c8                	mov    %ecx,%eax
  103fce:	29 d0                	sub    %edx,%eax
  103fd0:	85 c0                	test   %eax,%eax
  103fd2:	75 07                	jne    103fdb <is_year_leap+0x5d>
  103fd4:	b8 01 00 00 00       	mov    $0x1,%eax
  103fd9:	eb 05                	jmp    103fe0 <is_year_leap+0x62>
  103fdb:	b8 00 00 00 00       	mov    $0x0,%eax
  103fe0:	83 e0 01             	and    $0x1,%eax
  103fe3:	5d                   	pop    %ebp
  103fe4:	c3                   	ret    

00103fe5 <get_days_in_month>:
  103fe5:	55                   	push   %ebp
  103fe6:	89 e5                	mov    %esp,%ebp
  103fe8:	83 7d 08 0c          	cmpl   $0xc,0x8(%ebp)
  103fec:	77 79                	ja     104067 <get_days_in_month+0x82>
  103fee:	8b 45 08             	mov    0x8(%ebp),%eax
  103ff1:	c1 e0 02             	shl    $0x2,%eax
  103ff4:	05 3c 97 10 00       	add    $0x10973c,%eax
  103ff9:	8b 00                	mov    (%eax),%eax
  103ffb:	ff e0                	jmp    *%eax
  103ffd:	b8 1f 00 00 00       	mov    $0x1f,%eax
  104002:	eb 68                	jmp    10406c <get_days_in_month+0x87>
  104004:	ff 75 0c             	push   0xc(%ebp)
  104007:	e8 72 ff ff ff       	call   103f7e <is_year_leap>
  10400c:	83 c4 04             	add    $0x4,%esp
  10400f:	84 c0                	test   %al,%al
  104011:	74 07                	je     10401a <get_days_in_month+0x35>
  104013:	b8 1d 00 00 00       	mov    $0x1d,%eax
  104018:	eb 52                	jmp    10406c <get_days_in_month+0x87>
  10401a:	b8 1c 00 00 00       	mov    $0x1c,%eax
  10401f:	eb 4b                	jmp    10406c <get_days_in_month+0x87>
  104021:	b8 1f 00 00 00       	mov    $0x1f,%eax
  104026:	eb 44                	jmp    10406c <get_days_in_month+0x87>
  104028:	b8 1e 00 00 00       	mov    $0x1e,%eax
  10402d:	eb 3d                	jmp    10406c <get_days_in_month+0x87>
  10402f:	b8 1f 00 00 00       	mov    $0x1f,%eax
  104034:	eb 36                	jmp    10406c <get_days_in_month+0x87>
  104036:	b8 1e 00 00 00       	mov    $0x1e,%eax
  10403b:	eb 2f                	jmp    10406c <get_days_in_month+0x87>
  10403d:	b8 1f 00 00 00       	mov    $0x1f,%eax
  104042:	eb 28                	jmp    10406c <get_days_in_month+0x87>
  104044:	b8 1f 00 00 00       	mov    $0x1f,%eax
  104049:	eb 21                	jmp    10406c <get_days_in_month+0x87>
  10404b:	b8 1e 00 00 00       	mov    $0x1e,%eax
  104050:	eb 1a                	jmp    10406c <get_days_in_month+0x87>
  104052:	b8 1f 00 00 00       	mov    $0x1f,%eax
  104057:	eb 13                	jmp    10406c <get_days_in_month+0x87>
  104059:	b8 1e 00 00 00       	mov    $0x1e,%eax
  10405e:	eb 0c                	jmp    10406c <get_days_in_month+0x87>
  104060:	b8 1f 00 00 00       	mov    $0x1f,%eax
  104065:	eb 05                	jmp    10406c <get_days_in_month+0x87>
  104067:	b8 00 00 00 00       	mov    $0x0,%eax
  10406c:	c9                   	leave  
  10406d:	c3                   	ret    

0010406e <years_to_seconds>:
  10406e:	55                   	push   %ebp
  10406f:	89 e5                	mov    %esp,%ebp
  104071:	83 ec 10             	sub    $0x10,%esp
  104074:	c7 45 f8 00 00 00 00 	movl   $0x0,-0x8(%ebp)
  10407b:	c7 45 fc 00 00 00 00 	movl   $0x0,-0x4(%ebp)
  104082:	81 7d 08 cf 07 00 00 	cmpl   $0x7cf,0x8(%ebp)
  104089:	7f 2f                	jg     1040ba <years_to_seconds+0x4c>
  10408b:	81 45 08 d0 07 00 00 	addl   $0x7d0,0x8(%ebp)
  104092:	eb 26                	jmp    1040ba <years_to_seconds+0x4c>
  104094:	81 45 f8 6d 01 00 00 	addl   $0x16d,-0x8(%ebp)
  10409b:	83 55 fc 00          	adcl   $0x0,-0x4(%ebp)
  10409f:	ff 75 08             	push   0x8(%ebp)
  1040a2:	e8 d7 fe ff ff       	call   103f7e <is_year_leap>
  1040a7:	83 c4 04             	add    $0x4,%esp
  1040aa:	84 c0                	test   %al,%al
  1040ac:	74 08                	je     1040b6 <years_to_seconds+0x48>
  1040ae:	83 45 f8 01          	addl   $0x1,-0x8(%ebp)
  1040b2:	83 55 fc 00          	adcl   $0x0,-0x4(%ebp)
  1040b6:	83 6d 08 01          	subl   $0x1,0x8(%ebp)
  1040ba:	81 7d 08 b1 07 00 00 	cmpl   $0x7b1,0x8(%ebp)
  1040c1:	7f d1                	jg     104094 <years_to_seconds+0x26>
  1040c3:	8b 45 fc             	mov    -0x4(%ebp),%eax
  1040c6:	69 d0 80 51 01 00    	imul   $0x15180,%eax,%edx
  1040cc:	8b 45 f8             	mov    -0x8(%ebp),%eax
  1040cf:	6b c0 00             	imul   $0x0,%eax,%eax
  1040d2:	8d 0c 02             	lea    (%edx,%eax,1),%ecx
  1040d5:	8b 45 f8             	mov    -0x8(%ebp),%eax
  1040d8:	ba 80 51 01 00       	mov    $0x15180,%edx
  1040dd:	f7 e2                	mul    %edx
  1040df:	01 d1                	add    %edx,%ecx
  1040e1:	89 ca                	mov    %ecx,%edx
  1040e3:	c9                   	leave  
  1040e4:	c3                   	ret    

001040e5 <months_to_seconds>:
  1040e5:	55                   	push   %ebp
  1040e6:	89 e5                	mov    %esp,%ebp
  1040e8:	83 ec 10             	sub    $0x10,%esp
  1040eb:	81 7d 0c cf 07 00 00 	cmpl   $0x7cf,0xc(%ebp)
  1040f2:	7f 07                	jg     1040fb <months_to_seconds+0x16>
  1040f4:	81 45 0c d0 07 00 00 	addl   $0x7d0,0xc(%ebp)
  1040fb:	c7 45 fc 00 00 00 00 	movl   $0x0,-0x4(%ebp)
  104102:	c7 45 f8 01 00 00 00 	movl   $0x1,-0x8(%ebp)
  104109:	eb 15                	jmp    104120 <months_to_seconds+0x3b>
  10410b:	ff 75 0c             	push   0xc(%ebp)
  10410e:	ff 75 f8             	push   -0x8(%ebp)
  104111:	e8 cf fe ff ff       	call   103fe5 <get_days_in_month>
  104116:	83 c4 08             	add    $0x8,%esp
  104119:	01 45 fc             	add    %eax,-0x4(%ebp)
  10411c:	83 45 f8 01          	addl   $0x1,-0x8(%ebp)
  104120:	8b 45 f8             	mov    -0x8(%ebp),%eax
  104123:	3b 45 08             	cmp    0x8(%ebp),%eax
  104126:	7c e3                	jl     10410b <months_to_seconds+0x26>
  104128:	8b 45 fc             	mov    -0x4(%ebp),%eax
  10412b:	69 c0 80 51 01 00    	imul   $0x15180,%eax,%eax
  104131:	99                   	cltd   
  104132:	c9                   	leave  
  104133:	c3                   	ret    

00104134 <clock_isCMOSUpdateInProgress>:
  104134:	55                   	push   %ebp
  104135:	89 e5                	mov    %esp,%ebp
  104137:	83 ec 08             	sub    $0x8,%esp
  10413a:	83 ec 08             	sub    $0x8,%esp
  10413d:	6a 0a                	push   $0xa
  10413f:	6a 70                	push   $0x70
  104141:	e8 55 fa ff ff       	call   103b9b <outportb>
  104146:	83 c4 10             	add    $0x10,%esp
  104149:	83 ec 0c             	sub    $0xc,%esp
  10414c:	6a 71                	push   $0x71
  10414e:	e8 a0 fa ff ff       	call   103bf3 <inportb>
  104153:	83 c4 10             	add    $0x10,%esp
  104156:	0f b6 c0             	movzbl %al,%eax
  104159:	25 80 00 00 00       	and    $0x80,%eax
  10415e:	c9                   	leave  
  10415f:	c3                   	ret    

00104160 <clock_dumpCMOS>:
  104160:	55                   	push   %ebp
  104161:	89 e5                	mov    %esp,%ebp
  104163:	83 ec 18             	sub    $0x18,%esp
  104166:	66 c7 45 f6 00 00    	movw   $0x0,-0xa(%ebp)
  10416c:	eb 3f                	jmp    1041ad <clock_dumpCMOS+0x4d>
  10416e:	0f b7 45 f6          	movzwl -0xa(%ebp),%eax
  104172:	0f b6 c0             	movzbl %al,%eax
  104175:	83 ec 08             	sub    $0x8,%esp
  104178:	50                   	push   %eax
  104179:	6a 70                	push   $0x70
  10417b:	e8 1b fa ff ff       	call   103b9b <outportb>
  104180:	83 c4 10             	add    $0x10,%esp
  104183:	83 ec 0c             	sub    $0xc,%esp
  104186:	6a 71                	push   $0x71
  104188:	e8 66 fa ff ff       	call   103bf3 <inportb>
  10418d:	83 c4 10             	add    $0x10,%esp
  104190:	0f b7 55 f6          	movzwl -0xa(%ebp),%edx
  104194:	8d 0c 12             	lea    (%edx,%edx,1),%ecx
  104197:	8b 55 08             	mov    0x8(%ebp),%edx
  10419a:	01 ca                	add    %ecx,%edx
  10419c:	0f b6 c0             	movzbl %al,%eax
  10419f:	66 89 02             	mov    %ax,(%edx)
  1041a2:	0f b7 45 f6          	movzwl -0xa(%ebp),%eax
  1041a6:	83 c0 01             	add    $0x1,%eax
  1041a9:	66 89 45 f6          	mov    %ax,-0xa(%ebp)
  1041ad:	66 83 7d f6 7f       	cmpw   $0x7f,-0xa(%ebp)
  1041b2:	76 ba                	jbe    10416e <clock_dumpCMOS+0xe>
  1041b4:	90                   	nop
  1041b5:	90                   	nop
  1041b6:	c9                   	leave  
  1041b7:	c3                   	ret    

001041b8 <clock_convertCMOSToUnix>:
  1041b8:	55                   	push   %ebp
  1041b9:	89 e5                	mov    %esp,%ebp
  1041bb:	57                   	push   %edi
  1041bc:	56                   	push   %esi
  1041bd:	53                   	push   %ebx
  1041be:	81 ec 1c 02 00 00    	sub    $0x21c,%esp
  1041c4:	90                   	nop
  1041c5:	e8 6a ff ff ff       	call   104134 <clock_isCMOSUpdateInProgress>
  1041ca:	85 c0                	test   %eax,%eax
  1041cc:	75 f7                	jne    1041c5 <clock_convertCMOSToUnix+0xd>
  1041ce:	83 ec 0c             	sub    $0xc,%esp
  1041d1:	8d 85 e0 fe ff ff    	lea    -0x120(%ebp),%eax
  1041d7:	50                   	push   %eax
  1041d8:	e8 83 ff ff ff       	call   104160 <clock_dumpCMOS>
  1041dd:	83 c4 10             	add    $0x10,%esp
  1041e0:	83 ec 04             	sub    $0x4,%esp
  1041e3:	68 80 00 00 00       	push   $0x80
  1041e8:	8d 85 e0 fe ff ff    	lea    -0x120(%ebp),%eax
  1041ee:	50                   	push   %eax
  1041ef:	8d 85 e0 fd ff ff    	lea    -0x220(%ebp),%eax
  1041f5:	50                   	push   %eax
  1041f6:	e8 bd 1f 00 00       	call   1061b8 <memcpy>
  1041fb:	83 c4 10             	add    $0x10,%esp
  1041fe:	90                   	nop
  1041ff:	e8 30 ff ff ff       	call   104134 <clock_isCMOSUpdateInProgress>
  104204:	85 c0                	test   %eax,%eax
  104206:	75 f7                	jne    1041ff <clock_convertCMOSToUnix+0x47>
  104208:	83 ec 0c             	sub    $0xc,%esp
  10420b:	8d 85 e0 fe ff ff    	lea    -0x120(%ebp),%eax
  104211:	50                   	push   %eax
  104212:	e8 49 ff ff ff       	call   104160 <clock_dumpCMOS>
  104217:	83 c4 10             	add    $0x10,%esp
  10421a:	0f b7 95 e0 fd ff ff 	movzwl -0x220(%ebp),%edx
  104221:	0f b7 85 e0 fe ff ff 	movzwl -0x120(%ebp),%eax
  104228:	66 39 c2             	cmp    %ax,%dx
  10422b:	75 b3                	jne    1041e0 <clock_convertCMOSToUnix+0x28>
  10422d:	0f b7 95 e4 fd ff ff 	movzwl -0x21c(%ebp),%edx
  104234:	0f b7 85 e4 fe ff ff 	movzwl -0x11c(%ebp),%eax
  10423b:	66 39 c2             	cmp    %ax,%dx
  10423e:	75 a0                	jne    1041e0 <clock_convertCMOSToUnix+0x28>
  104240:	0f b7 95 e8 fd ff ff 	movzwl -0x218(%ebp),%edx
  104247:	0f b7 85 e8 fe ff ff 	movzwl -0x118(%ebp),%eax
  10424e:	66 39 c2             	cmp    %ax,%dx
  104251:	75 8d                	jne    1041e0 <clock_convertCMOSToUnix+0x28>
  104253:	0f b7 95 ee fd ff ff 	movzwl -0x212(%ebp),%edx
  10425a:	0f b7 85 ee fe ff ff 	movzwl -0x112(%ebp),%eax
  104261:	66 39 c2             	cmp    %ax,%dx
  104264:	0f 85 76 ff ff ff    	jne    1041e0 <clock_convertCMOSToUnix+0x28>
  10426a:	0f b7 95 f0 fd ff ff 	movzwl -0x210(%ebp),%edx
  104271:	0f b7 85 f0 fe ff ff 	movzwl -0x110(%ebp),%eax
  104278:	66 39 c2             	cmp    %ax,%dx
  10427b:	0f 85 5f ff ff ff    	jne    1041e0 <clock_convertCMOSToUnix+0x28>
  104281:	0f b7 95 f2 fd ff ff 	movzwl -0x20e(%ebp),%edx
  104288:	0f b7 85 f2 fe ff ff 	movzwl -0x10e(%ebp),%eax
  10428f:	66 39 c2             	cmp    %ax,%dx
  104292:	0f 85 48 ff ff ff    	jne    1041e0 <clock_convertCMOSToUnix+0x28>
  104298:	0f b7 85 f2 fe ff ff 	movzwl -0x10e(%ebp),%eax
  10429f:	66 c1 e8 04          	shr    $0x4,%ax
  1042a3:	0f b7 d0             	movzwl %ax,%edx
  1042a6:	89 d0                	mov    %edx,%eax
  1042a8:	c1 e0 02             	shl    $0x2,%eax
  1042ab:	01 d0                	add    %edx,%eax
  1042ad:	01 c0                	add    %eax,%eax
  1042af:	89 c2                	mov    %eax,%edx
  1042b1:	0f b7 85 f2 fe ff ff 	movzwl -0x10e(%ebp),%eax
  1042b8:	0f b7 c0             	movzwl %ax,%eax
  1042bb:	83 e0 0f             	and    $0xf,%eax
  1042be:	01 d0                	add    %edx,%eax
  1042c0:	83 e8 01             	sub    $0x1,%eax
  1042c3:	83 ec 0c             	sub    $0xc,%esp
  1042c6:	50                   	push   %eax
  1042c7:	e8 a2 fd ff ff       	call   10406e <years_to_seconds>
  1042cc:	83 c4 10             	add    $0x10,%esp
  1042cf:	89 c6                	mov    %eax,%esi
  1042d1:	89 d7                	mov    %edx,%edi
  1042d3:	0f b7 85 f2 fe ff ff 	movzwl -0x10e(%ebp),%eax
  1042da:	66 c1 e8 04          	shr    $0x4,%ax
  1042de:	0f b7 d0             	movzwl %ax,%edx
  1042e1:	89 d0                	mov    %edx,%eax
  1042e3:	c1 e0 02             	shl    $0x2,%eax
  1042e6:	01 d0                	add    %edx,%eax
  1042e8:	01 c0                	add    %eax,%eax
  1042ea:	89 c2                	mov    %eax,%edx
  1042ec:	0f b7 85 f2 fe ff ff 	movzwl -0x10e(%ebp),%eax
  1042f3:	0f b7 c0             	movzwl %ax,%eax
  1042f6:	83 e0 0f             	and    $0xf,%eax
  1042f9:	8d 0c 02             	lea    (%edx,%eax,1),%ecx
  1042fc:	0f b7 85 f0 fe ff ff 	movzwl -0x110(%ebp),%eax
  104303:	66 c1 e8 04          	shr    $0x4,%ax
  104307:	0f b7 d0             	movzwl %ax,%edx
  10430a:	89 d0                	mov    %edx,%eax
  10430c:	c1 e0 02             	shl    $0x2,%eax
  10430f:	01 d0                	add    %edx,%eax
  104311:	01 c0                	add    %eax,%eax
  104313:	89 c2                	mov    %eax,%edx
  104315:	0f b7 85 f0 fe ff ff 	movzwl -0x110(%ebp),%eax
  10431c:	0f b7 c0             	movzwl %ax,%eax
  10431f:	83 e0 0f             	and    $0xf,%eax
  104322:	01 d0                	add    %edx,%eax
  104324:	83 ec 08             	sub    $0x8,%esp
  104327:	51                   	push   %ecx
  104328:	50                   	push   %eax
  104329:	e8 b7 fd ff ff       	call   1040e5 <months_to_seconds>
  10432e:	83 c4 10             	add    $0x10,%esp
  104331:	01 c6                	add    %eax,%esi
  104333:	11 d7                	adc    %edx,%edi
  104335:	89 f1                	mov    %esi,%ecx
  104337:	89 fb                	mov    %edi,%ebx
  104339:	0f b7 85 ee fe ff ff 	movzwl -0x112(%ebp),%eax
  104340:	66 c1 e8 04          	shr    $0x4,%ax
  104344:	0f b7 d0             	movzwl %ax,%edx
  104347:	89 d0                	mov    %edx,%eax
  104349:	c1 e0 02             	shl    $0x2,%eax
  10434c:	01 d0                	add    %edx,%eax
  10434e:	01 c0                	add    %eax,%eax
  104350:	89 c2                	mov    %eax,%edx
  104352:	0f b7 85 ee fe ff ff 	movzwl -0x112(%ebp),%eax
  104359:	0f b7 c0             	movzwl %ax,%eax
  10435c:	83 e0 0f             	and    $0xf,%eax
  10435f:	01 d0                	add    %edx,%eax
  104361:	83 e8 01             	sub    $0x1,%eax
  104364:	69 c0 80 51 01 00    	imul   $0x15180,%eax,%eax
  10436a:	99                   	cltd   
  10436b:	01 c1                	add    %eax,%ecx
  10436d:	11 d3                	adc    %edx,%ebx
  10436f:	0f b7 85 e8 fe ff ff 	movzwl -0x118(%ebp),%eax
  104376:	66 c1 e8 04          	shr    $0x4,%ax
  10437a:	0f b7 d0             	movzwl %ax,%edx
  10437d:	89 d0                	mov    %edx,%eax
  10437f:	c1 e0 02             	shl    $0x2,%eax
  104382:	01 d0                	add    %edx,%eax
  104384:	01 c0                	add    %eax,%eax
  104386:	89 c2                	mov    %eax,%edx
  104388:	0f b7 85 e8 fe ff ff 	movzwl -0x118(%ebp),%eax
  10438f:	0f b7 c0             	movzwl %ax,%eax
  104392:	83 e0 0f             	and    $0xf,%eax
  104395:	01 d0                	add    %edx,%eax
  104397:	69 c0 10 0e 00 00    	imul   $0xe10,%eax,%eax
  10439d:	99                   	cltd   
  10439e:	01 c1                	add    %eax,%ecx
  1043a0:	11 d3                	adc    %edx,%ebx
  1043a2:	0f b7 85 e4 fe ff ff 	movzwl -0x11c(%ebp),%eax
  1043a9:	66 c1 e8 04          	shr    $0x4,%ax
  1043ad:	0f b7 d0             	movzwl %ax,%edx
  1043b0:	89 d0                	mov    %edx,%eax
  1043b2:	c1 e0 02             	shl    $0x2,%eax
  1043b5:	01 d0                	add    %edx,%eax
  1043b7:	01 c0                	add    %eax,%eax
  1043b9:	89 c2                	mov    %eax,%edx
  1043bb:	0f b7 85 e4 fe ff ff 	movzwl -0x11c(%ebp),%eax
  1043c2:	0f b7 c0             	movzwl %ax,%eax
  1043c5:	83 e0 0f             	and    $0xf,%eax
  1043c8:	01 d0                	add    %edx,%eax
  1043ca:	6b c0 3c             	imul   $0x3c,%eax,%eax
  1043cd:	99                   	cltd   
  1043ce:	01 c1                	add    %eax,%ecx
  1043d0:	11 d3                	adc    %edx,%ebx
  1043d2:	0f b7 85 e0 fe ff ff 	movzwl -0x120(%ebp),%eax
  1043d9:	66 c1 e8 04          	shr    $0x4,%ax
  1043dd:	0f b7 d0             	movzwl %ax,%edx
  1043e0:	89 d0                	mov    %edx,%eax
  1043e2:	c1 e0 02             	shl    $0x2,%eax
  1043e5:	01 d0                	add    %edx,%eax
  1043e7:	01 c0                	add    %eax,%eax
  1043e9:	89 c2                	mov    %eax,%edx
  1043eb:	0f b7 85 e0 fe ff ff 	movzwl -0x120(%ebp),%eax
  1043f2:	0f b7 c0             	movzwl %ax,%eax
  1043f5:	83 e0 0f             	and    $0xf,%eax
  1043f8:	01 d0                	add    %edx,%eax
  1043fa:	99                   	cltd   
  1043fb:	01 c8                	add    %ecx,%eax
  1043fd:	11 da                	adc    %ebx,%edx
  1043ff:	89 45 e0             	mov    %eax,-0x20(%ebp)
  104402:	89 55 e4             	mov    %edx,-0x1c(%ebp)
  104405:	8b 45 e0             	mov    -0x20(%ebp),%eax
  104408:	8b 55 e4             	mov    -0x1c(%ebp),%edx
  10440b:	8d 65 f4             	lea    -0xc(%ebp),%esp
  10440e:	5b                   	pop    %ebx
  10440f:	5e                   	pop    %esi
  104410:	5f                   	pop    %edi
  104411:	5d                   	pop    %ebp
  104412:	c3                   	ret    

00104413 <clock_readTSC>:
  104413:	55                   	push   %ebp
  104414:	89 e5                	mov    %esp,%ebp
  104416:	53                   	push   %ebx
  104417:	83 ec 14             	sub    $0x14,%esp
  10441a:	0f 31                	rdtsc  
  10441c:	89 45 f4             	mov    %eax,-0xc(%ebp)
  10441f:	89 55 f0             	mov    %edx,-0x10(%ebp)
  104422:	8b 45 f0             	mov    -0x10(%ebp),%eax
  104425:	ba 00 00 00 00       	mov    $0x0,%edx
  10442a:	89 c2                	mov    %eax,%edx
  10442c:	31 c0                	xor    %eax,%eax
  10442e:	8b 4d f4             	mov    -0xc(%ebp),%ecx
  104431:	bb 00 00 00 00       	mov    $0x0,%ebx
  104436:	09 c8                	or     %ecx,%eax
  104438:	09 da                	or     %ebx,%edx
  10443a:	8b 5d fc             	mov    -0x4(%ebp),%ebx
  10443d:	c9                   	leave  
  10443e:	c3                   	ret    

0010443f <clock_getTSCSpeed>:
  10443f:	55                   	push   %ebp
  104440:	89 e5                	mov    %esp,%ebp
  104442:	a1 38 bf 10 00       	mov    0x10bf38,%eax
  104447:	8b 15 3c bf 10 00    	mov    0x10bf3c,%edx
  10444d:	5d                   	pop    %ebp
  10444e:	c3                   	ret    

0010444f <clock_readTicks>:
  10444f:	55                   	push   %ebp
  104450:	89 e5                	mov    %esp,%ebp
  104452:	57                   	push   %edi
  104453:	56                   	push   %esi
  104454:	e8 ba ff ff ff       	call   104413 <clock_readTSC>
  104459:	89 c6                	mov    %eax,%esi
  10445b:	89 d7                	mov    %edx,%edi
  10445d:	e8 dd ff ff ff       	call   10443f <clock_getTSCSpeed>
  104462:	ba 00 00 00 00       	mov    $0x0,%edx
  104467:	52                   	push   %edx
  104468:	50                   	push   %eax
  104469:	57                   	push   %edi
  10446a:	56                   	push   %esi
  10446b:	e8 c0 2c 00 00       	call   107130 <__udivdi3>
  104470:	83 c4 10             	add    $0x10,%esp
  104473:	8d 65 f8             	lea    -0x8(%ebp),%esp
  104476:	5e                   	pop    %esi
  104477:	5f                   	pop    %edi
  104478:	5d                   	pop    %ebp
  104479:	c3                   	ret    

0010447a <clock_getTickCounts>:
  10447a:	55                   	push   %ebp
  10447b:	89 e5                	mov    %esp,%ebp
  10447d:	53                   	push   %ebx
  10447e:	83 ec 14             	sub    $0x14,%esp
  104481:	8b 45 08             	mov    0x8(%ebp),%eax
  104484:	89 45 f0             	mov    %eax,-0x10(%ebp)
  104487:	8b 45 0c             	mov    0xc(%ebp),%eax
  10448a:	89 45 f4             	mov    %eax,-0xc(%ebp)
  10448d:	8b 0d 30 bf 10 00    	mov    0x10bf30,%ecx
  104493:	8b 1d 34 bf 10 00    	mov    0x10bf34,%ebx
  104499:	8b 45 f0             	mov    -0x10(%ebp),%eax
  10449c:	8b 55 f4             	mov    -0xc(%ebp),%edx
  10449f:	29 c8                	sub    %ecx,%eax
  1044a1:	19 da                	sbb    %ebx,%edx
  1044a3:	8b 4d 14             	mov    0x14(%ebp),%ecx
  1044a6:	89 01                	mov    %eax,(%ecx)
  1044a8:	89 51 04             	mov    %edx,0x4(%ecx)
  1044ab:	8b 45 14             	mov    0x14(%ebp),%eax
  1044ae:	8b 50 04             	mov    0x4(%eax),%edx
  1044b1:	8b 00                	mov    (%eax),%eax
  1044b3:	6a 00                	push   $0x0
  1044b5:	68 40 42 0f 00       	push   $0xf4240
  1044ba:	52                   	push   %edx
  1044bb:	50                   	push   %eax
  1044bc:	e8 6f 2c 00 00       	call   107130 <__udivdi3>
  1044c1:	83 c4 10             	add    $0x10,%esp
  1044c4:	8b 4d 10             	mov    0x10(%ebp),%ecx
  1044c7:	89 01                	mov    %eax,(%ecx)
  1044c9:	89 51 04             	mov    %edx,0x4(%ecx)
  1044cc:	8b 45 14             	mov    0x14(%ebp),%eax
  1044cf:	8b 50 04             	mov    0x4(%eax),%edx
  1044d2:	8b 00                	mov    (%eax),%eax
  1044d4:	6a 00                	push   $0x0
  1044d6:	68 40 42 0f 00       	push   $0xf4240
  1044db:	52                   	push   %edx
  1044dc:	50                   	push   %eax
  1044dd:	e8 6e 2d 00 00       	call   107250 <__umoddi3>
  1044e2:	83 c4 10             	add    $0x10,%esp
  1044e5:	8b 4d 14             	mov    0x14(%ebp),%ecx
  1044e8:	89 01                	mov    %eax,(%ecx)
  1044ea:	89 51 04             	mov    %edx,0x4(%ecx)
  1044ed:	90                   	nop
  1044ee:	8b 5d fc             	mov    -0x4(%ebp),%ebx
  1044f1:	c9                   	leave  
  1044f2:	c3                   	ret    

001044f3 <clock_setBoottime>:
  1044f3:	55                   	push   %ebp
  1044f4:	89 e5                	mov    %esp,%ebp
  1044f6:	83 ec 08             	sub    $0x8,%esp
  1044f9:	8b 45 08             	mov    0x8(%ebp),%eax
  1044fc:	89 45 f8             	mov    %eax,-0x8(%ebp)
  1044ff:	8b 45 0c             	mov    0xc(%ebp),%eax
  104502:	89 45 fc             	mov    %eax,-0x4(%ebp)
  104505:	8b 45 f8             	mov    -0x8(%ebp),%eax
  104508:	8b 55 fc             	mov    -0x4(%ebp),%edx
  10450b:	a3 28 bf 10 00       	mov    %eax,0x10bf28
  104510:	89 15 2c bf 10 00    	mov    %edx,0x10bf2c
  104516:	90                   	nop
  104517:	c9                   	leave  
  104518:	c3                   	ret    

00104519 <clock_initialize>:
  104519:	55                   	push   %ebp
  10451a:	89 e5                	mov    %esp,%ebp
  10451c:	53                   	push   %ebx
  10451d:	83 ec 44             	sub    $0x44,%esp
  104520:	e8 93 fc ff ff       	call   1041b8 <clock_convertCMOSToUnix>
  104525:	a3 28 bf 10 00       	mov    %eax,0x10bf28
  10452a:	89 15 2c bf 10 00    	mov    %edx,0x10bf2c
  104530:	e4 61                	in     $0x61,%al
  104532:	24 dd                	and    $0xdd,%al
  104534:	0c 01                	or     $0x1,%al
  104536:	e6 61                	out    %al,$0x61
  104538:	b0 b2                	mov    $0xb2,%al
  10453a:	e6 43                	out    %al,$0x43
  10453c:	b0 9b                	mov    $0x9b,%al
  10453e:	e6 42                	out    %al,$0x42
  104540:	e4 60                	in     $0x60,%al
  104542:	b0 2e                	mov    $0x2e,%al
  104544:	e6 42                	out    %al,$0x42
  104546:	e4 61                	in     $0x61,%al
  104548:	24 de                	and    $0xde,%al
  10454a:	e6 61                	out    %al,$0x61
  10454c:	0c 01                	or     $0x1,%al
  10454e:	e6 61                	out    %al,$0x61
  104550:	0f 31                	rdtsc  
  104552:	89 c3                	mov    %eax,%ebx
  104554:	89 d1                	mov    %edx,%ecx
  104556:	e4 61                	in     $0x61,%al
  104558:	24 20                	and    $0x20,%al
  10455a:	74 0a                	je     104566 <clock_initialize+0x4d>
  10455c:	e4 61                	in     $0x61,%al
  10455e:	24 20                	and    $0x20,%al
  104560:	75 fa                	jne    10455c <clock_initialize+0x43>
  104562:	0f 31                	rdtsc  
  104564:	eb 08                	jmp    10456e <clock_initialize+0x55>
  104566:	e4 61                	in     $0x61,%al
  104568:	24 20                	and    $0x20,%al
  10456a:	74 fa                	je     104566 <clock_initialize+0x4d>
  10456c:	0f 31                	rdtsc  
  10456e:	89 45 f4             	mov    %eax,-0xc(%ebp)
  104571:	89 55 f0             	mov    %edx,-0x10(%ebp)
  104574:	89 5d ec             	mov    %ebx,-0x14(%ebp)
  104577:	89 4d e8             	mov    %ecx,-0x18(%ebp)
  10457a:	8b 45 f0             	mov    -0x10(%ebp),%eax
  10457d:	ba 00 00 00 00       	mov    $0x0,%edx
  104582:	89 c2                	mov    %eax,%edx
  104584:	31 c0                	xor    %eax,%eax
  104586:	8b 4d f4             	mov    -0xc(%ebp),%ecx
  104589:	bb 00 00 00 00       	mov    $0x0,%ebx
  10458e:	09 c8                	or     %ecx,%eax
  104590:	09 da                	or     %ebx,%edx
  104592:	89 45 e0             	mov    %eax,-0x20(%ebp)
  104595:	89 55 e4             	mov    %edx,-0x1c(%ebp)
  104598:	8b 45 e8             	mov    -0x18(%ebp),%eax
  10459b:	ba 00 00 00 00       	mov    $0x0,%edx
  1045a0:	89 c2                	mov    %eax,%edx
  1045a2:	31 c0                	xor    %eax,%eax
  1045a4:	8b 4d ec             	mov    -0x14(%ebp),%ecx
  1045a7:	bb 00 00 00 00       	mov    $0x0,%ebx
  1045ac:	09 c8                	or     %ecx,%eax
  1045ae:	09 da                	or     %ebx,%edx
  1045b0:	89 45 d8             	mov    %eax,-0x28(%ebp)
  1045b3:	89 55 dc             	mov    %edx,-0x24(%ebp)
  1045b6:	8b 45 e0             	mov    -0x20(%ebp),%eax
  1045b9:	8b 55 e4             	mov    -0x1c(%ebp),%edx
  1045bc:	2b 45 d8             	sub    -0x28(%ebp),%eax
  1045bf:	1b 55 dc             	sbb    -0x24(%ebp),%edx
  1045c2:	6a 00                	push   $0x0
  1045c4:	68 10 27 00 00       	push   $0x2710
  1045c9:	52                   	push   %edx
  1045ca:	50                   	push   %eax
  1045cb:	e8 60 2b 00 00       	call   107130 <__udivdi3>
  1045d0:	83 c4 10             	add    $0x10,%esp
  1045d3:	a3 38 bf 10 00       	mov    %eax,0x10bf38
  1045d8:	89 15 3c bf 10 00    	mov    %edx,0x10bf3c
  1045de:	a1 38 bf 10 00       	mov    0x10bf38,%eax
  1045e3:	8b 15 3c bf 10 00    	mov    0x10bf3c,%edx
  1045e9:	89 c1                	mov    %eax,%ecx
  1045eb:	09 d1                	or     %edx,%ecx
  1045ed:	75 2d                	jne    10461c <clock_initialize+0x103>
  1045ef:	68 70 97 10 00       	push   $0x109770
  1045f4:	6a 02                	push   $0x2
  1045f6:	68 09 01 00 00       	push   $0x109
  1045fb:	68 ad 97 10 00       	push   $0x1097ad
  104600:	e8 9d be ff ff       	call   1004a2 <dprintf_internal>
  104605:	83 c4 10             	add    $0x10,%esp
  104608:	c7 05 38 bf 10 00 d0 	movl   $0x7d0,0x10bf38
  10460f:	07 00 00 
  104612:	c7 05 3c bf 10 00 00 	movl   $0x0,0x10bf3c
  104619:	00 00 00 
  10461c:	a1 38 bf 10 00       	mov    0x10bf38,%eax
  104621:	8b 15 3c bf 10 00    	mov    0x10bf3c,%edx
  104627:	52                   	push   %edx
  104628:	50                   	push   %eax
  104629:	ff 75 dc             	push   -0x24(%ebp)
  10462c:	ff 75 d8             	push   -0x28(%ebp)
  10462f:	e8 fc 2a 00 00       	call   107130 <__udivdi3>
  104634:	83 c4 10             	add    $0x10,%esp
  104637:	a3 30 bf 10 00       	mov    %eax,0x10bf30
  10463c:	89 15 34 bf 10 00    	mov    %edx,0x10bf34
  104642:	a1 38 bf 10 00       	mov    0x10bf38,%eax
  104647:	8b 15 3c bf 10 00    	mov    0x10bf3c,%edx
  10464d:	83 ec 08             	sub    $0x8,%esp
  104650:	52                   	push   %edx
  104651:	50                   	push   %eax
  104652:	68 c4 97 10 00       	push   $0x1097c4
  104657:	6a 01                	push   $0x1
  104659:	68 0f 01 00 00       	push   $0x10f
  10465e:	68 ad 97 10 00       	push   $0x1097ad
  104663:	e8 3a be ff ff       	call   1004a2 <dprintf_internal>
  104668:	83 c4 20             	add    $0x20,%esp
  10466b:	a1 28 bf 10 00       	mov    0x10bf28,%eax
  104670:	8b 15 2c bf 10 00    	mov    0x10bf2c,%edx
  104676:	83 ec 08             	sub    $0x8,%esp
  104679:	52                   	push   %edx
  10467a:	50                   	push   %eax
  10467b:	68 ec 97 10 00       	push   $0x1097ec
  104680:	6a 01                	push   $0x1
  104682:	68 10 01 00 00       	push   $0x110
  104687:	68 ad 97 10 00       	push   $0x1097ad
  10468c:	e8 11 be ff ff       	call   1004a2 <dprintf_internal>
  104691:	83 c4 20             	add    $0x20,%esp
  104694:	a1 30 bf 10 00       	mov    0x10bf30,%eax
  104699:	8b 15 34 bf 10 00    	mov    0x10bf34,%edx
  10469f:	83 ec 08             	sub    $0x8,%esp
  1046a2:	52                   	push   %edx
  1046a3:	50                   	push   %eax
  1046a4:	68 1e 98 10 00       	push   $0x10981e
  1046a9:	6a 01                	push   $0x1
  1046ab:	68 11 01 00 00       	push   $0x111
  1046b0:	68 ad 97 10 00       	push   $0x1097ad
  1046b5:	e8 e8 bd ff ff       	call   1004a2 <dprintf_internal>
  1046ba:	83 c4 20             	add    $0x20,%esp
  1046bd:	a1 28 bf 10 00       	mov    0x10bf28,%eax
  1046c2:	8b 15 2c bf 10 00    	mov    0x10bf2c,%edx
  1046c8:	89 45 d0             	mov    %eax,-0x30(%ebp)
  1046cb:	89 55 d4             	mov    %edx,-0x2c(%ebp)
  1046ce:	c7 45 c0 4f 44 10 00 	movl   $0x10444f,-0x40(%ebp)
  1046d5:	c7 45 c4 13 44 10 00 	movl   $0x104413,-0x3c(%ebp)
  1046dc:	c7 45 c8 7a 44 10 00 	movl   $0x10447a,-0x38(%ebp)
  1046e3:	c7 45 cc f3 44 10 00 	movl   $0x1044f3,-0x34(%ebp)
  1046ea:	83 ec 08             	sub    $0x8,%esp
  1046ed:	ff 75 d4             	push   -0x2c(%ebp)
  1046f0:	ff 75 d0             	push   -0x30(%ebp)
  1046f3:	ff 75 cc             	push   -0x34(%ebp)
  1046f6:	ff 75 c8             	push   -0x38(%ebp)
  1046f9:	ff 75 c4             	push   -0x3c(%ebp)
  1046fc:	ff 75 c0             	push   -0x40(%ebp)
  1046ff:	e8 4e bc ff ff       	call   100352 <clock_setDevice>
  104704:	83 c4 20             	add    $0x20,%esp
  104707:	90                   	nop
  104708:	8b 5d fc             	mov    -0x4(%ebp),%ebx
  10470b:	c9                   	leave  
  10470c:	c3                   	ret    

0010470d <serial_getDefaultCOMPort>:
  10470d:	55                   	push   %ebp
  10470e:	89 e5                	mov    %esp,%ebp
  104710:	a1 d0 80 10 00       	mov    0x1080d0,%eax
  104715:	83 f8 04             	cmp    $0x4,%eax
  104718:	74 30                	je     10474a <serial_getDefaultCOMPort+0x3d>
  10471a:	83 f8 04             	cmp    $0x4,%eax
  10471d:	7f 32                	jg     104751 <serial_getDefaultCOMPort+0x44>
  10471f:	83 f8 03             	cmp    $0x3,%eax
  104722:	74 1f                	je     104743 <serial_getDefaultCOMPort+0x36>
  104724:	83 f8 03             	cmp    $0x3,%eax
  104727:	7f 28                	jg     104751 <serial_getDefaultCOMPort+0x44>
  104729:	83 f8 01             	cmp    $0x1,%eax
  10472c:	74 07                	je     104735 <serial_getDefaultCOMPort+0x28>
  10472e:	83 f8 02             	cmp    $0x2,%eax
  104731:	74 09                	je     10473c <serial_getDefaultCOMPort+0x2f>
  104733:	eb 1c                	jmp    104751 <serial_getDefaultCOMPort+0x44>
  104735:	b8 f8 03 00 00       	mov    $0x3f8,%eax
  10473a:	eb 1a                	jmp    104756 <serial_getDefaultCOMPort+0x49>
  10473c:	b8 f8 02 00 00       	mov    $0x2f8,%eax
  104741:	eb 13                	jmp    104756 <serial_getDefaultCOMPort+0x49>
  104743:	b8 e8 03 00 00       	mov    $0x3e8,%eax
  104748:	eb 0c                	jmp    104756 <serial_getDefaultCOMPort+0x49>
  10474a:	b8 e8 02 00 00       	mov    $0x2e8,%eax
  10474f:	eb 05                	jmp    104756 <serial_getDefaultCOMPort+0x49>
  104751:	b8 f8 03 00 00       	mov    $0x3f8,%eax
  104756:	5d                   	pop    %ebp
  104757:	c3                   	ret    

00104758 <serial_setBaudRate>:
  104758:	55                   	push   %ebp
  104759:	89 e5                	mov    %esp,%ebp
  10475b:	83 ec 28             	sub    $0x28,%esp
  10475e:	8b 45 08             	mov    0x8(%ebp),%eax
  104761:	66 89 45 e4          	mov    %ax,-0x1c(%ebp)
  104765:	0f b7 4d e4          	movzwl -0x1c(%ebp),%ecx
  104769:	b8 00 c2 01 00       	mov    $0x1c200,%eax
  10476e:	99                   	cltd   
  10476f:	f7 f9                	idiv   %ecx
  104771:	89 d0                	mov    %edx,%eax
  104773:	85 c0                	test   %eax,%eax
  104775:	74 0a                	je     104781 <serial_setBaudRate+0x29>
  104777:	b8 ea ff ff ff       	mov    $0xffffffea,%eax
  10477c:	e9 bc 00 00 00       	jmp    10483d <serial_setBaudRate+0xe5>
  104781:	0f b7 05 00 a1 10 00 	movzwl 0x10a100,%eax
  104788:	83 c0 04             	add    $0x4,%eax
  10478b:	0f b7 c0             	movzwl %ax,%eax
  10478e:	83 ec 0c             	sub    $0xc,%esp
  104791:	50                   	push   %eax
  104792:	e8 5c f4 ff ff       	call   103bf3 <inportb>
  104797:	83 c4 10             	add    $0x10,%esp
  10479a:	88 45 f7             	mov    %al,-0x9(%ebp)
  10479d:	0f b6 45 f7          	movzbl -0x9(%ebp),%eax
  1047a1:	83 c8 80             	or     $0xffffff80,%eax
  1047a4:	0f b6 d0             	movzbl %al,%edx
  1047a7:	0f b7 05 00 a1 10 00 	movzwl 0x10a100,%eax
  1047ae:	83 c0 04             	add    $0x4,%eax
  1047b1:	0f b7 c0             	movzwl %ax,%eax
  1047b4:	83 ec 08             	sub    $0x8,%esp
  1047b7:	52                   	push   %edx
  1047b8:	50                   	push   %eax
  1047b9:	e8 dd f3 ff ff       	call   103b9b <outportb>
  1047be:	83 c4 10             	add    $0x10,%esp
  1047c1:	0f b7 4d e4          	movzwl -0x1c(%ebp),%ecx
  1047c5:	b8 00 c2 01 00       	mov    $0x1c200,%eax
  1047ca:	99                   	cltd   
  1047cb:	f7 f9                	idiv   %ecx
  1047cd:	89 45 f0             	mov    %eax,-0x10(%ebp)
  1047d0:	8b 45 f0             	mov    -0x10(%ebp),%eax
  1047d3:	0f b6 d0             	movzbl %al,%edx
  1047d6:	0f b7 05 00 a1 10 00 	movzwl 0x10a100,%eax
  1047dd:	0f b7 c0             	movzwl %ax,%eax
  1047e0:	83 ec 08             	sub    $0x8,%esp
  1047e3:	52                   	push   %edx
  1047e4:	50                   	push   %eax
  1047e5:	e8 b1 f3 ff ff       	call   103b9b <outportb>
  1047ea:	83 c4 10             	add    $0x10,%esp
  1047ed:	8b 45 f0             	mov    -0x10(%ebp),%eax
  1047f0:	c1 e8 08             	shr    $0x8,%eax
  1047f3:	0f b6 d0             	movzbl %al,%edx
  1047f6:	0f b7 05 00 a1 10 00 	movzwl 0x10a100,%eax
  1047fd:	83 c0 01             	add    $0x1,%eax
  104800:	0f b7 c0             	movzwl %ax,%eax
  104803:	83 ec 08             	sub    $0x8,%esp
  104806:	52                   	push   %edx
  104807:	50                   	push   %eax
  104808:	e8 8e f3 ff ff       	call   103b9b <outportb>
  10480d:	83 c4 10             	add    $0x10,%esp
  104810:	0f b6 55 f7          	movzbl -0x9(%ebp),%edx
  104814:	0f b7 05 00 a1 10 00 	movzwl 0x10a100,%eax
  10481b:	83 c0 04             	add    $0x4,%eax
  10481e:	0f b7 c0             	movzwl %ax,%eax
  104821:	83 ec 08             	sub    $0x8,%esp
  104824:	52                   	push   %edx
  104825:	50                   	push   %eax
  104826:	e8 70 f3 ff ff       	call   103b9b <outportb>
  10482b:	83 c4 10             	add    $0x10,%esp
  10482e:	0f b7 45 e4          	movzwl -0x1c(%ebp),%eax
  104832:	66 a3 02 a1 10 00    	mov    %ax,0x10a102
  104838:	b8 00 00 00 00       	mov    $0x0,%eax
  10483d:	c9                   	leave  
  10483e:	c3                   	ret    

0010483f <serial_initialize>:
  10483f:	55                   	push   %ebp
  104840:	89 e5                	mov    %esp,%ebp
  104842:	83 ec 08             	sub    $0x8,%esp
  104845:	e8 c3 fe ff ff       	call   10470d <serial_getDefaultCOMPort>
  10484a:	66 a3 00 a1 10 00    	mov    %ax,0x10a100
  104850:	0f b7 05 00 a1 10 00 	movzwl 0x10a100,%eax
  104857:	83 c0 04             	add    $0x4,%eax
  10485a:	0f b7 c0             	movzwl %ax,%eax
  10485d:	83 ec 08             	sub    $0x8,%esp
  104860:	6a 00                	push   $0x0
  104862:	50                   	push   %eax
  104863:	e8 33 f3 ff ff       	call   103b9b <outportb>
  104868:	83 c4 10             	add    $0x10,%esp
  10486b:	0f b7 05 00 a1 10 00 	movzwl 0x10a100,%eax
  104872:	83 c0 01             	add    $0x1,%eax
  104875:	0f b7 c0             	movzwl %ax,%eax
  104878:	83 ec 08             	sub    $0x8,%esp
  10487b:	6a 00                	push   $0x0
  10487d:	50                   	push   %eax
  10487e:	e8 18 f3 ff ff       	call   103b9b <outportb>
  104883:	83 c4 10             	add    $0x10,%esp
  104886:	0f b7 05 00 a1 10 00 	movzwl 0x10a100,%eax
  10488d:	83 c0 05             	add    $0x5,%eax
  104890:	0f b7 c0             	movzwl %ax,%eax
  104893:	83 ec 08             	sub    $0x8,%esp
  104896:	6a 0b                	push   $0xb
  104898:	50                   	push   %eax
  104899:	e8 fd f2 ff ff       	call   103b9b <outportb>
  10489e:	83 c4 10             	add    $0x10,%esp
  1048a1:	a1 d4 80 10 00       	mov    0x1080d4,%eax
  1048a6:	0f b7 c0             	movzwl %ax,%eax
  1048a9:	83 ec 0c             	sub    $0xc,%esp
  1048ac:	50                   	push   %eax
  1048ad:	e8 a6 fe ff ff       	call   104758 <serial_setBaudRate>
  1048b2:	83 c4 10             	add    $0x10,%esp
  1048b5:	0f b7 05 00 a1 10 00 	movzwl 0x10a100,%eax
  1048bc:	83 c0 04             	add    $0x4,%eax
  1048bf:	0f b7 c0             	movzwl %ax,%eax
  1048c2:	83 ec 08             	sub    $0x8,%esp
  1048c5:	6a 03                	push   $0x3
  1048c7:	50                   	push   %eax
  1048c8:	e8 ce f2 ff ff       	call   103b9b <outportb>
  1048cd:	83 c4 10             	add    $0x10,%esp
  1048d0:	0f b7 05 00 a1 10 00 	movzwl 0x10a100,%eax
  1048d7:	83 c0 03             	add    $0x3,%eax
  1048da:	0f b7 c0             	movzwl %ax,%eax
  1048dd:	83 ec 08             	sub    $0x8,%esp
  1048e0:	6a 07                	push   $0x7
  1048e2:	50                   	push   %eax
  1048e3:	e8 b3 f2 ff ff       	call   103b9b <outportb>
  1048e8:	83 c4 10             	add    $0x10,%esp
  1048eb:	0f b7 05 00 a1 10 00 	movzwl 0x10a100,%eax
  1048f2:	0f b7 c0             	movzwl %ax,%eax
  1048f5:	83 ec 0c             	sub    $0xc,%esp
  1048f8:	50                   	push   %eax
  1048f9:	e8 f5 f2 ff ff       	call   103bf3 <inportb>
  1048fe:	83 c4 10             	add    $0x10,%esp
  104901:	83 ec 0c             	sub    $0xc,%esp
  104904:	68 18 49 10 00       	push   $0x104918
  104909:	e8 d3 ba ff ff       	call   1003e1 <serial_setWriteMethod>
  10490e:	83 c4 10             	add    $0x10,%esp
  104911:	b8 00 00 00 00       	mov    $0x0,%eax
  104916:	c9                   	leave  
  104917:	c3                   	ret    

00104918 <serial_writeCharacter>:
  104918:	55                   	push   %ebp
  104919:	89 e5                	mov    %esp,%ebp
  10491b:	83 ec 18             	sub    $0x18,%esp
  10491e:	8b 45 08             	mov    0x8(%ebp),%eax
  104921:	88 45 f4             	mov    %al,-0xc(%ebp)
  104924:	90                   	nop
  104925:	0f b7 05 00 a1 10 00 	movzwl 0x10a100,%eax
  10492c:	83 c0 06             	add    $0x6,%eax
  10492f:	0f b7 c0             	movzwl %ax,%eax
  104932:	83 ec 0c             	sub    $0xc,%esp
  104935:	50                   	push   %eax
  104936:	e8 b8 f2 ff ff       	call   103bf3 <inportb>
  10493b:	83 c4 10             	add    $0x10,%esp
  10493e:	0f b6 c0             	movzbl %al,%eax
  104941:	83 e0 20             	and    $0x20,%eax
  104944:	85 c0                	test   %eax,%eax
  104946:	74 dd                	je     104925 <serial_writeCharacter+0xd>
  104948:	0f b6 45 f4          	movzbl -0xc(%ebp),%eax
  10494c:	0f b6 d0             	movzbl %al,%edx
  10494f:	0f b7 05 00 a1 10 00 	movzwl 0x10a100,%eax
  104956:	0f b7 c0             	movzwl %ax,%eax
  104959:	83 ec 08             	sub    $0x8,%esp
  10495c:	52                   	push   %edx
  10495d:	50                   	push   %eax
  10495e:	e8 38 f2 ff ff       	call   103b9b <outportb>
  104963:	83 c4 10             	add    $0x10,%esp
  104966:	b8 00 00 00 00       	mov    $0x0,%eax
  10496b:	c9                   	leave  
  10496c:	c3                   	ret    

0010496d <serial_receiveCharacter>:
  10496d:	55                   	push   %ebp
  10496e:	89 e5                	mov    %esp,%ebp
  104970:	83 ec 08             	sub    $0x8,%esp
  104973:	90                   	nop
  104974:	0f b7 05 00 a1 10 00 	movzwl 0x10a100,%eax
  10497b:	83 c0 06             	add    $0x6,%eax
  10497e:	0f b7 c0             	movzwl %ax,%eax
  104981:	83 ec 0c             	sub    $0xc,%esp
  104984:	50                   	push   %eax
  104985:	e8 69 f2 ff ff       	call   103bf3 <inportb>
  10498a:	83 c4 10             	add    $0x10,%esp
  10498d:	0f b6 c0             	movzbl %al,%eax
  104990:	83 e0 01             	and    $0x1,%eax
  104993:	85 c0                	test   %eax,%eax
  104995:	74 dd                	je     104974 <serial_receiveCharacter+0x7>
  104997:	0f b7 05 00 a1 10 00 	movzwl 0x10a100,%eax
  10499e:	0f b7 c0             	movzwl %ax,%eax
  1049a1:	83 ec 0c             	sub    $0xc,%esp
  1049a4:	50                   	push   %eax
  1049a5:	e8 49 f2 ff ff       	call   103bf3 <inportb>
  1049aa:	83 c4 10             	add    $0x10,%esp
  1049ad:	c9                   	leave  
  1049ae:	c3                   	ret    

001049af <pit_setTimerPhase>:
  1049af:	55                   	push   %ebp
  1049b0:	89 e5                	mov    %esp,%ebp
  1049b2:	83 ec 18             	sub    $0x18,%esp
  1049b5:	b8 dc 34 12 00       	mov    $0x1234dc,%eax
  1049ba:	99                   	cltd   
  1049bb:	f7 7d 08             	idivl  0x8(%ebp)
  1049be:	89 45 f4             	mov    %eax,-0xc(%ebp)
  1049c1:	83 ec 08             	sub    $0x8,%esp
  1049c4:	6a 34                	push   $0x34
  1049c6:	6a 43                	push   $0x43
  1049c8:	e8 ce f1 ff ff       	call   103b9b <outportb>
  1049cd:	83 c4 10             	add    $0x10,%esp
  1049d0:	8b 45 f4             	mov    -0xc(%ebp),%eax
  1049d3:	0f b6 c0             	movzbl %al,%eax
  1049d6:	83 ec 08             	sub    $0x8,%esp
  1049d9:	50                   	push   %eax
  1049da:	6a 40                	push   $0x40
  1049dc:	e8 ba f1 ff ff       	call   103b9b <outportb>
  1049e1:	83 c4 10             	add    $0x10,%esp
  1049e4:	8b 45 f4             	mov    -0xc(%ebp),%eax
  1049e7:	c1 f8 08             	sar    $0x8,%eax
  1049ea:	0f b6 c0             	movzbl %al,%eax
  1049ed:	83 ec 08             	sub    $0x8,%esp
  1049f0:	50                   	push   %eax
  1049f1:	6a 40                	push   $0x40
  1049f3:	e8 a3 f1 ff ff       	call   103b9b <outportb>
  1049f8:	83 c4 10             	add    $0x10,%esp
  1049fb:	90                   	nop
  1049fc:	c9                   	leave  
  1049fd:	c3                   	ret    

001049fe <pit_irqHandler>:
  1049fe:	55                   	push   %ebp
  1049ff:	89 e5                	mov    %esp,%ebp
  104a01:	83 ec 08             	sub    $0x8,%esp
  104a04:	a1 40 bf 10 00       	mov    0x10bf40,%eax
  104a09:	8b 15 44 bf 10 00    	mov    0x10bf44,%edx
  104a0f:	83 c0 01             	add    $0x1,%eax
  104a12:	83 d2 00             	adc    $0x0,%edx
  104a15:	a3 40 bf 10 00       	mov    %eax,0x10bf40
  104a1a:	89 15 44 bf 10 00    	mov    %edx,0x10bf44
  104a20:	a1 40 bf 10 00       	mov    0x10bf40,%eax
  104a25:	8b 15 44 bf 10 00    	mov    0x10bf44,%edx
  104a2b:	83 ec 08             	sub    $0x8,%esp
  104a2e:	52                   	push   %edx
  104a2f:	50                   	push   %eax
  104a30:	e8 7b b6 ff ff       	call   1000b0 <clock_update>
  104a35:	83 c4 10             	add    $0x10,%esp
  104a38:	b8 00 00 00 00       	mov    $0x0,%eax
  104a3d:	c9                   	leave  
  104a3e:	c3                   	ret    

00104a3f <pit_initialize>:
  104a3f:	55                   	push   %ebp
  104a40:	89 e5                	mov    %esp,%ebp
  104a42:	83 ec 08             	sub    $0x8,%esp
  104a45:	83 ec 0c             	sub    $0xc,%esp
  104a48:	6a 64                	push   $0x64
  104a4a:	e8 60 ff ff ff       	call   1049af <pit_setTimerPhase>
  104a4f:	83 c4 10             	add    $0x10,%esp
  104a52:	83 ec 08             	sub    $0x8,%esp
  104a55:	68 fe 49 10 00       	push   $0x1049fe
  104a5a:	6a 00                	push   $0x0
  104a5c:	e8 65 e1 ff ff       	call   102bc6 <hal_registerInterruptHandler>
  104a61:	83 c4 10             	add    $0x10,%esp
  104a64:	68 3c 98 10 00       	push   $0x10983c
  104a69:	6a 01                	push   $0x1
  104a6b:	6a 39                	push   $0x39
  104a6d:	68 65 98 10 00       	push   $0x109865
  104a72:	e8 2b ba ff ff       	call   1004a2 <dprintf_internal>
  104a77:	83 c4 10             	add    $0x10,%esp
  104a7a:	90                   	nop
  104a7b:	c9                   	leave  
  104a7c:	c3                   	ret    
  104a7d:	66 90                	xchg   %ax,%ax
  104a7f:	90                   	nop

00104a80 <halCommonExceptionHandler>:
  104a80:	60                   	pusha  
  104a81:	0f a8                	push   %gs
  104a83:	06                   	push   %es
  104a84:	1e                   	push   %ds
  104a85:	0f 20 c0             	mov    %cr0,%eax
  104a88:	50                   	push   %eax
  104a89:	0f 20 d0             	mov    %cr2,%eax
  104a8c:	50                   	push   %eax
  104a8d:	0f 20 d8             	mov    %cr3,%eax
  104a90:	50                   	push   %eax
  104a91:	0f 20 e0             	mov    %cr4,%eax
  104a94:	50                   	push   %eax
  104a95:	83 ec 0c             	sub    $0xc,%esp
  104a98:	0f 01 0c 24          	sidtl  (%esp)
  104a9c:	0f 01 44 24 06       	sgdtl  0x6(%esp)
  104aa1:	8d 44 24 1c          	lea    0x1c(%esp),%eax
  104aa5:	54                   	push   %esp
  104aa6:	50                   	push   %eax
  104aa7:	ff 35 42 4e 10 00    	push   0x104e42
  104aad:	e8 0f df ff ff       	call   1029c1 <hal_exceptionHandler>
  104ab2:	83 c4 0c             	add    $0xc,%esp
  104ab5:	83 c4 1c             	add    $0x1c,%esp
  104ab8:	59                   	pop    %ecx
  104ab9:	8e d9                	mov    %ecx,%ds
  104abb:	59                   	pop    %ecx
  104abc:	8e c1                	mov    %ecx,%es
  104abe:	59                   	pop    %ecx
  104abf:	8e e9                	mov    %ecx,%gs
  104ac1:	61                   	popa   
  104ac2:	cf                   	iret   

00104ac3 <halCommonIRQHandler>:
  104ac3:	60                   	pusha  
  104ac4:	0f a8                	push   %gs
  104ac6:	06                   	push   %es
  104ac7:	1e                   	push   %ds
  104ac8:	0f 20 c0             	mov    %cr0,%eax
  104acb:	50                   	push   %eax
  104acc:	0f 20 d0             	mov    %cr2,%eax
  104acf:	50                   	push   %eax
  104ad0:	0f 20 d8             	mov    %cr3,%eax
  104ad3:	50                   	push   %eax
  104ad4:	0f 20 e0             	mov    %cr4,%eax
  104ad7:	50                   	push   %eax
  104ad8:	83 ec 0c             	sub    $0xc,%esp
  104adb:	0f 01 0c 24          	sidtl  (%esp)
  104adf:	0f 01 44 24 06       	sgdtl  0x6(%esp)
  104ae4:	8d 44 24 1c          	lea    0x1c(%esp),%eax
  104ae8:	54                   	push   %esp
  104ae9:	50                   	push   %eax
  104aea:	ff 35 46 4e 10 00    	push   0x104e46
  104af0:	ff 35 42 4e 10 00    	push   0x104e42
  104af6:	e8 6a e0 ff ff       	call   102b65 <hal_interruptHandler>
  104afb:	83 c4 10             	add    $0x10,%esp
  104afe:	83 c4 1c             	add    $0x1c,%esp
  104b01:	59                   	pop    %ecx
  104b02:	8e d9                	mov    %ecx,%ds
  104b04:	59                   	pop    %ecx
  104b05:	8e c1                	mov    %ecx,%es
  104b07:	59                   	pop    %ecx
  104b08:	8e e9                	mov    %ecx,%gs
  104b0a:	61                   	popa   
  104b0b:	cf                   	iret   

00104b0c <halDivisionException>:
  104b0c:	6a 00                	push   $0x0
  104b0e:	c7 05 42 4e 10 00 00 	movl   $0x0,0x104e42
  104b15:	00 00 00 
  104b18:	e9 63 ff ff ff       	jmp    104a80 <halCommonExceptionHandler>

00104b1d <halDebugException>:
  104b1d:	6a 00                	push   $0x0
  104b1f:	c7 05 42 4e 10 00 01 	movl   $0x1,0x104e42
  104b26:	00 00 00 
  104b29:	e9 52 ff ff ff       	jmp    104a80 <halCommonExceptionHandler>

00104b2e <halNMIException>:
  104b2e:	6a 00                	push   $0x0
  104b30:	c7 05 42 4e 10 00 02 	movl   $0x2,0x104e42
  104b37:	00 00 00 
  104b3a:	e9 41 ff ff ff       	jmp    104a80 <halCommonExceptionHandler>

00104b3f <halBreakpointException>:
  104b3f:	6a 00                	push   $0x0
  104b41:	c7 05 42 4e 10 00 03 	movl   $0x3,0x104e42
  104b48:	00 00 00 
  104b4b:	e9 30 ff ff ff       	jmp    104a80 <halCommonExceptionHandler>

00104b50 <halOverflowException>:
  104b50:	6a 00                	push   $0x0
  104b52:	c7 05 42 4e 10 00 04 	movl   $0x4,0x104e42
  104b59:	00 00 00 
  104b5c:	e9 1f ff ff ff       	jmp    104a80 <halCommonExceptionHandler>

00104b61 <halBoundException>:
  104b61:	6a 00                	push   $0x0
  104b63:	c7 05 42 4e 10 00 05 	movl   $0x5,0x104e42
  104b6a:	00 00 00 
  104b6d:	e9 0e ff ff ff       	jmp    104a80 <halCommonExceptionHandler>

00104b72 <halInvalidOpcodeException>:
  104b72:	6a 00                	push   $0x0
  104b74:	c7 05 42 4e 10 00 06 	movl   $0x6,0x104e42
  104b7b:	00 00 00 
  104b7e:	e9 fd fe ff ff       	jmp    104a80 <halCommonExceptionHandler>

00104b83 <halNoFPUException>:
  104b83:	6a 00                	push   $0x0
  104b85:	c7 05 42 4e 10 00 07 	movl   $0x7,0x104e42
  104b8c:	00 00 00 
  104b8f:	e9 ec fe ff ff       	jmp    104a80 <halCommonExceptionHandler>

00104b94 <halDoubleFaultException>:
  104b94:	c7 05 42 4e 10 00 08 	movl   $0x8,0x104e42
  104b9b:	00 00 00 
  104b9e:	e9 dd fe ff ff       	jmp    104a80 <halCommonExceptionHandler>

00104ba3 <halCoprocessorSegmentException>:
  104ba3:	6a 00                	push   $0x0
  104ba5:	c7 05 42 4e 10 00 09 	movl   $0x9,0x104e42
  104bac:	00 00 00 
  104baf:	e9 cc fe ff ff       	jmp    104a80 <halCommonExceptionHandler>

00104bb4 <halInvalidTSSException>:
  104bb4:	c7 05 42 4e 10 00 0a 	movl   $0xa,0x104e42
  104bbb:	00 00 00 
  104bbe:	e9 bd fe ff ff       	jmp    104a80 <halCommonExceptionHandler>

00104bc3 <halSegmentNotPresentException>:
  104bc3:	c7 05 42 4e 10 00 0b 	movl   $0xb,0x104e42
  104bca:	00 00 00 
  104bcd:	e9 ae fe ff ff       	jmp    104a80 <halCommonExceptionHandler>

00104bd2 <halStackSegmentException>:
  104bd2:	c7 05 42 4e 10 00 0c 	movl   $0xc,0x104e42
  104bd9:	00 00 00 
  104bdc:	e9 9f fe ff ff       	jmp    104a80 <halCommonExceptionHandler>

00104be1 <halGeneralProtectionException>:
  104be1:	c7 05 42 4e 10 00 0d 	movl   $0xd,0x104e42
  104be8:	00 00 00 
  104beb:	e9 90 fe ff ff       	jmp    104a80 <halCommonExceptionHandler>

00104bf0 <halPageFaultException>:
  104bf0:	c7 05 42 4e 10 00 0e 	movl   $0xe,0x104e42
  104bf7:	00 00 00 
  104bfa:	e9 81 fe ff ff       	jmp    104a80 <halCommonExceptionHandler>

00104bff <halReservedException>:
  104bff:	6a 00                	push   $0x0
  104c01:	c7 05 42 4e 10 00 0f 	movl   $0xf,0x104e42
  104c08:	00 00 00 
  104c0b:	e9 70 fe ff ff       	jmp    104a80 <halCommonExceptionHandler>

00104c10 <halFloatingPointException>:
  104c10:	6a 00                	push   $0x0
  104c12:	c7 05 42 4e 10 00 10 	movl   $0x10,0x104e42
  104c19:	00 00 00 
  104c1c:	e9 5f fe ff ff       	jmp    104a80 <halCommonExceptionHandler>

00104c21 <halAlignmentCheck>:
  104c21:	c7 05 42 4e 10 00 11 	movl   $0x11,0x104e42
  104c28:	00 00 00 
  104c2b:	e9 50 fe ff ff       	jmp    104a80 <halCommonExceptionHandler>

00104c30 <halMachineCheck>:
  104c30:	6a 00                	push   $0x0
  104c32:	c7 05 42 4e 10 00 12 	movl   $0x12,0x104e42
  104c39:	00 00 00 
  104c3c:	e9 3f fe ff ff       	jmp    104a80 <halCommonExceptionHandler>

00104c41 <halSIMDFloatingPointException>:
  104c41:	6a 00                	push   $0x0
  104c43:	c7 05 42 4e 10 00 13 	movl   $0x13,0x104e42
  104c4a:	00 00 00 
  104c4d:	e9 2e fe ff ff       	jmp    104a80 <halCommonExceptionHandler>

00104c52 <halVirtualizationException>:
  104c52:	6a 00                	push   $0x0
  104c54:	c7 05 42 4e 10 00 14 	movl   $0x14,0x104e42
  104c5b:	00 00 00 
  104c5e:	e9 1d fe ff ff       	jmp    104a80 <halCommonExceptionHandler>

00104c63 <halControlProtectionException>:
  104c63:	c7 05 42 4e 10 00 15 	movl   $0x15,0x104e42
  104c6a:	00 00 00 
  104c6d:	e9 0e fe ff ff       	jmp    104a80 <halCommonExceptionHandler>

00104c72 <halHypervisorInjectionException>:
  104c72:	6a 00                	push   $0x0
  104c74:	c7 05 42 4e 10 00 1c 	movl   $0x1c,0x104e42
  104c7b:	00 00 00 
  104c7e:	e9 fd fd ff ff       	jmp    104a80 <halCommonExceptionHandler>

00104c83 <halVMMCommunicationException>:
  104c83:	c7 05 42 4e 10 00 1d 	movl   $0x1d,0x104e42
  104c8a:	00 00 00 
  104c8d:	e9 ee fd ff ff       	jmp    104a80 <halCommonExceptionHandler>

00104c92 <halSecurityException>:
  104c92:	c7 05 42 4e 10 00 1e 	movl   $0x1e,0x104e42
  104c99:	00 00 00 
  104c9c:	e9 df fd ff ff       	jmp    104a80 <halCommonExceptionHandler>

00104ca1 <halReserved2Exception>:
  104ca1:	6a 00                	push   $0x0
  104ca3:	c7 05 42 4e 10 00 1f 	movl   $0x1f,0x104e42
  104caa:	00 00 00 
  104cad:	e9 ce fd ff ff       	jmp    104a80 <halCommonExceptionHandler>

00104cb2 <halIRQ0>:
  104cb2:	c7 05 42 4e 10 00 20 	movl   $0x20,0x104e42
  104cb9:	00 00 00 
  104cbc:	c7 05 46 4e 10 00 00 	movl   $0x0,0x104e46
  104cc3:	00 00 00 
  104cc6:	e9 f8 fd ff ff       	jmp    104ac3 <halCommonIRQHandler>

00104ccb <halIRQ1>:
  104ccb:	c7 05 42 4e 10 00 21 	movl   $0x21,0x104e42
  104cd2:	00 00 00 
  104cd5:	c7 05 46 4e 10 00 01 	movl   $0x1,0x104e46
  104cdc:	00 00 00 
  104cdf:	e9 df fd ff ff       	jmp    104ac3 <halCommonIRQHandler>

00104ce4 <halIRQ2>:
  104ce4:	c7 05 42 4e 10 00 22 	movl   $0x22,0x104e42
  104ceb:	00 00 00 
  104cee:	c7 05 46 4e 10 00 02 	movl   $0x2,0x104e46
  104cf5:	00 00 00 
  104cf8:	e9 c6 fd ff ff       	jmp    104ac3 <halCommonIRQHandler>

00104cfd <halIRQ3>:
  104cfd:	c7 05 42 4e 10 00 23 	movl   $0x23,0x104e42
  104d04:	00 00 00 
  104d07:	c7 05 46 4e 10 00 03 	movl   $0x3,0x104e46
  104d0e:	00 00 00 
  104d11:	e9 ad fd ff ff       	jmp    104ac3 <halCommonIRQHandler>

00104d16 <halIRQ4>:
  104d16:	c7 05 42 4e 10 00 24 	movl   $0x24,0x104e42
  104d1d:	00 00 00 
  104d20:	c7 05 46 4e 10 00 04 	movl   $0x4,0x104e46
  104d27:	00 00 00 
  104d2a:	e9 94 fd ff ff       	jmp    104ac3 <halCommonIRQHandler>

00104d2f <halIRQ5>:
  104d2f:	c7 05 42 4e 10 00 25 	movl   $0x25,0x104e42
  104d36:	00 00 00 
  104d39:	c7 05 46 4e 10 00 05 	movl   $0x5,0x104e46
  104d40:	00 00 00 
  104d43:	e9 7b fd ff ff       	jmp    104ac3 <halCommonIRQHandler>

00104d48 <halIRQ6>:
  104d48:	c7 05 42 4e 10 00 26 	movl   $0x26,0x104e42
  104d4f:	00 00 00 
  104d52:	c7 05 46 4e 10 00 06 	movl   $0x6,0x104e46
  104d59:	00 00 00 
  104d5c:	e9 62 fd ff ff       	jmp    104ac3 <halCommonIRQHandler>

00104d61 <halIRQ7>:
  104d61:	c7 05 42 4e 10 00 27 	movl   $0x27,0x104e42
  104d68:	00 00 00 
  104d6b:	c7 05 46 4e 10 00 07 	movl   $0x7,0x104e46
  104d72:	00 00 00 
  104d75:	e9 49 fd ff ff       	jmp    104ac3 <halCommonIRQHandler>

00104d7a <halIRQ8>:
  104d7a:	c7 05 42 4e 10 00 28 	movl   $0x28,0x104e42
  104d81:	00 00 00 
  104d84:	c7 05 46 4e 10 00 08 	movl   $0x8,0x104e46
  104d8b:	00 00 00 
  104d8e:	e9 30 fd ff ff       	jmp    104ac3 <halCommonIRQHandler>

00104d93 <halIRQ9>:
  104d93:	c7 05 42 4e 10 00 29 	movl   $0x29,0x104e42
  104d9a:	00 00 00 
  104d9d:	c7 05 46 4e 10 00 09 	movl   $0x9,0x104e46
  104da4:	00 00 00 
  104da7:	e9 17 fd ff ff       	jmp    104ac3 <halCommonIRQHandler>

00104dac <halIRQ10>:
  104dac:	c7 05 42 4e 10 00 2a 	movl   $0x2a,0x104e42
  104db3:	00 00 00 
  104db6:	c7 05 46 4e 10 00 0a 	movl   $0xa,0x104e46
  104dbd:	00 00 00 
  104dc0:	e9 fe fc ff ff       	jmp    104ac3 <halCommonIRQHandler>

00104dc5 <halIRQ11>:
  104dc5:	c7 05 42 4e 10 00 2b 	movl   $0x2b,0x104e42
  104dcc:	00 00 00 
  104dcf:	c7 05 46 4e 10 00 0b 	movl   $0xb,0x104e46
  104dd6:	00 00 00 
  104dd9:	e9 e5 fc ff ff       	jmp    104ac3 <halCommonIRQHandler>

00104dde <halIRQ12>:
  104dde:	c7 05 42 4e 10 00 2c 	movl   $0x2c,0x104e42
  104de5:	00 00 00 
  104de8:	c7 05 46 4e 10 00 0c 	movl   $0xc,0x104e46
  104def:	00 00 00 
  104df2:	e9 cc fc ff ff       	jmp    104ac3 <halCommonIRQHandler>

00104df7 <halIRQ13>:
  104df7:	c7 05 42 4e 10 00 2d 	movl   $0x2d,0x104e42
  104dfe:	00 00 00 
  104e01:	c7 05 46 4e 10 00 0d 	movl   $0xd,0x104e46
  104e08:	00 00 00 
  104e0b:	e9 b3 fc ff ff       	jmp    104ac3 <halCommonIRQHandler>

00104e10 <halIRQ14>:
  104e10:	c7 05 42 4e 10 00 2e 	movl   $0x2e,0x104e42
  104e17:	00 00 00 
  104e1a:	c7 05 46 4e 10 00 0e 	movl   $0xe,0x104e46
  104e21:	00 00 00 
  104e24:	e9 9a fc ff ff       	jmp    104ac3 <halCommonIRQHandler>

00104e29 <halIRQ15>:
  104e29:	c7 05 42 4e 10 00 2f 	movl   $0x2f,0x104e42
  104e30:	00 00 00 
  104e33:	c7 05 46 4e 10 00 0f 	movl   $0xf,0x104e46
  104e3a:	00 00 00 
  104e3d:	e9 81 fc ff ff       	jmp    104ac3 <halCommonIRQHandler>

00104e42 <halExceptionIndex>:
  104e42:	00 00                	add    %al,(%eax)
	...

00104e46 <halIRQIndex>:
  104e46:	00 00                	add    %al,(%eax)
	...

00104e4a <hal_installGDT>:
  104e4a:	0f 01 15 68 4e 10 00 	lgdtl  0x104e68
  104e51:	66 b8 10 00          	mov    $0x10,%ax
  104e55:	8e d8                	mov    %eax,%ds
  104e57:	8e c0                	mov    %eax,%es
  104e59:	8e e0                	mov    %eax,%fs
  104e5b:	8e e8                	mov    %eax,%gs
  104e5d:	8e d0                	mov    %eax,%ss
  104e5f:	ea 66 4e 10 00 08 00 	ljmp   $0x8,$0x104e66

00104e66 <hal_finishedFlushingGDT>:
  104e66:	c3                   	ret    
  104e67:	90                   	nop

00104e68 <gdtr>:
  104e68:	27                   	daa    
  104e69:	00 6e 4e             	add    %ch,0x4e(%esi)
  104e6c:	10 00                	adc    %al,(%eax)

00104e6e <gdt_base>:
	...
  104e76:	ff                   	(bad)  
  104e77:	ff 00                	incl   (%eax)
  104e79:	00 00                	add    %al,(%eax)
  104e7b:	9a cf 00 ff ff 00 00 	lcall  $0x0,$0xffff00cf
  104e82:	00 92 cf 00 ff ff    	add    %dl,-0xff31(%edx)
  104e88:	00 00                	add    %al,(%eax)
  104e8a:	00 fa                	add    %bh,%dl
  104e8c:	cf                   	iret   
  104e8d:	00 ff                	add    %bh,%bh
  104e8f:	ff 00                	incl   (%eax)
  104e91:	00 00                	add    %al,(%eax)
  104e93:	f2 cf                	repnz iret 
	...

00104e96 <_start>:
  104e96:	bc 50 ff 10 00       	mov    $0x10ff50,%esp
  104e9b:	31 ed                	xor    %ebp,%ebp
  104e9d:	54                   	push   %esp
  104e9e:	50                   	push   %eax
  104e9f:	53                   	push   %ebx
  104ea0:	e8 bd ee ff ff       	call   103d62 <arch_main>
  104ea5:	fa                   	cli    
  104ea6:	f4                   	hlt    
  104ea7:	eb fe                	jmp    104ea7 <_start+0x11>

00104ea9 <print_dec>:
  104ea9:	55                   	push   %ebp
  104eaa:	89 e5                	mov    %esp,%ebp
  104eac:	53                   	push   %ebx
  104ead:	81 ec c4 00 00 00    	sub    $0xc4,%esp
  104eb3:	8b 45 08             	mov    0x8(%ebp),%eax
  104eb6:	89 85 40 ff ff ff    	mov    %eax,-0xc0(%ebp)
  104ebc:	8b 45 0c             	mov    0xc(%ebp),%eax
  104ebf:	89 85 44 ff ff ff    	mov    %eax,-0xbc(%ebp)
  104ec5:	c7 45 f4 00 00 00 00 	movl   $0x0,-0xc(%ebp)
  104ecc:	c7 45 e8 01 00 00 00 	movl   $0x1,-0x18(%ebp)
  104ed3:	c7 45 ec 00 00 00 00 	movl   $0x0,-0x14(%ebp)
  104eda:	c7 45 e0 09 00 00 00 	movl   $0x9,-0x20(%ebp)
  104ee1:	c7 45 e4 00 00 00 00 	movl   $0x0,-0x1c(%ebp)
  104ee8:	83 7d 24 ff          	cmpl   $0xffffffff,0x24(%ebp)
  104eec:	75 07                	jne    104ef5 <print_dec+0x4c>
  104eee:	c7 45 24 01 00 00 00 	movl   $0x1,0x24(%ebp)
  104ef5:	8b 85 40 ff ff ff    	mov    -0xc0(%ebp),%eax
  104efb:	0b 85 44 ff ff ff    	or     -0xbc(%ebp),%eax
  104f01:	75 10                	jne    104f13 <print_dec+0x6a>
  104f03:	c7 45 e8 00 00 00 00 	movl   $0x0,-0x18(%ebp)
  104f0a:	c7 45 ec 00 00 00 00 	movl   $0x0,-0x14(%ebp)
  104f11:	eb 48                	jmp    104f5b <print_dec+0xb2>
  104f13:	8b 85 40 ff ff ff    	mov    -0xc0(%ebp),%eax
  104f19:	8b 95 44 ff ff ff    	mov    -0xbc(%ebp),%edx
  104f1f:	89 45 d8             	mov    %eax,-0x28(%ebp)
  104f22:	89 55 dc             	mov    %edx,-0x24(%ebp)
  104f25:	eb 22                	jmp    104f49 <print_dec+0xa0>
  104f27:	8b 45 d8             	mov    -0x28(%ebp),%eax
  104f2a:	8b 55 dc             	mov    -0x24(%ebp),%edx
  104f2d:	6a 00                	push   $0x0
  104f2f:	6a 0a                	push   $0xa
  104f31:	52                   	push   %edx
  104f32:	50                   	push   %eax
  104f33:	e8 f8 21 00 00       	call   107130 <__udivdi3>
  104f38:	83 c4 10             	add    $0x10,%esp
  104f3b:	89 45 d8             	mov    %eax,-0x28(%ebp)
  104f3e:	89 55 dc             	mov    %edx,-0x24(%ebp)
  104f41:	83 45 e8 01          	addl   $0x1,-0x18(%ebp)
  104f45:	83 55 ec 00          	adcl   $0x0,-0x14(%ebp)
  104f49:	ba 09 00 00 00       	mov    $0x9,%edx
  104f4e:	b8 00 00 00 00       	mov    $0x0,%eax
  104f53:	3b 55 d8             	cmp    -0x28(%ebp),%edx
  104f56:	1b 45 dc             	sbb    -0x24(%ebp),%eax
  104f59:	72 cc                	jb     104f27 <print_dec+0x7e>
  104f5b:	8b 45 24             	mov    0x24(%ebp),%eax
  104f5e:	99                   	cltd   
  104f5f:	8b 4d ec             	mov    -0x14(%ebp),%ecx
  104f62:	39 45 e8             	cmp    %eax,-0x18(%ebp)
  104f65:	19 d1                	sbb    %edx,%ecx
  104f67:	73 0a                	jae    104f73 <print_dec+0xca>
  104f69:	8b 45 24             	mov    0x24(%ebp),%eax
  104f6c:	99                   	cltd   
  104f6d:	89 45 e8             	mov    %eax,-0x18(%ebp)
  104f70:	89 55 ec             	mov    %edx,-0x14(%ebp)
  104f73:	c7 45 d4 00 00 00 00 	movl   $0x0,-0x2c(%ebp)
  104f7a:	83 7d 20 00          	cmpl   $0x0,0x20(%ebp)
  104f7e:	0f 84 20 01 00 00    	je     1050a4 <print_dec+0x1fb>
  104f84:	eb 29                	jmp    104faf <print_dec+0x106>
  104f86:	83 7d 1c 00          	cmpl   $0x0,0x1c(%ebp)
  104f8a:	74 07                	je     104f93 <print_dec+0xea>
  104f8c:	b8 30 00 00 00       	mov    $0x30,%eax
  104f91:	eb 05                	jmp    104f98 <print_dec+0xef>
  104f93:	b8 20 00 00 00       	mov    $0x20,%eax
  104f98:	83 ec 08             	sub    $0x8,%esp
  104f9b:	50                   	push   %eax
  104f9c:	ff 75 18             	push   0x18(%ebp)
  104f9f:	8b 45 14             	mov    0x14(%ebp),%eax
  104fa2:	ff d0                	call   *%eax
  104fa4:	83 c4 10             	add    $0x10,%esp
  104fa7:	83 45 f4 01          	addl   $0x1,-0xc(%ebp)
  104fab:	83 45 d4 01          	addl   $0x1,-0x2c(%ebp)
  104faf:	8b 45 d4             	mov    -0x2c(%ebp),%eax
  104fb2:	89 c1                	mov    %eax,%ecx
  104fb4:	89 c3                	mov    %eax,%ebx
  104fb6:	c1 fb 1f             	sar    $0x1f,%ebx
  104fb9:	8b 45 e8             	mov    -0x18(%ebp),%eax
  104fbc:	8b 55 ec             	mov    -0x14(%ebp),%edx
  104fbf:	01 c8                	add    %ecx,%eax
  104fc1:	11 da                	adc    %ebx,%edx
  104fc3:	8b 4d 10             	mov    0x10(%ebp),%ecx
  104fc6:	bb 00 00 00 00       	mov    $0x0,%ebx
  104fcb:	39 c8                	cmp    %ecx,%eax
  104fcd:	89 d0                	mov    %edx,%eax
  104fcf:	19 d8                	sbb    %ebx,%eax
  104fd1:	72 b3                	jb     104f86 <print_dec+0xdd>
  104fd3:	8b 45 e8             	mov    -0x18(%ebp),%eax
  104fd6:	8b 55 ec             	mov    -0x14(%ebp),%edx
  104fd9:	89 45 e0             	mov    %eax,-0x20(%ebp)
  104fdc:	89 55 e4             	mov    %edx,-0x1c(%ebp)
  104fdf:	eb 78                	jmp    105059 <print_dec+0x1b0>
  104fe1:	8b 85 40 ff ff ff    	mov    -0xc0(%ebp),%eax
  104fe7:	8b 95 44 ff ff ff    	mov    -0xbc(%ebp),%edx
  104fed:	6a 00                	push   $0x0
  104fef:	6a 0a                	push   $0xa
  104ff1:	52                   	push   %edx
  104ff2:	50                   	push   %eax
  104ff3:	e8 38 21 00 00       	call   107130 <__udivdi3>
  104ff8:	83 c4 10             	add    $0x10,%esp
  104ffb:	89 45 b8             	mov    %eax,-0x48(%ebp)
  104ffe:	89 55 bc             	mov    %edx,-0x44(%ebp)
  105001:	8b 85 40 ff ff ff    	mov    -0xc0(%ebp),%eax
  105007:	8b 95 44 ff ff ff    	mov    -0xbc(%ebp),%edx
  10500d:	6a 00                	push   $0x0
  10500f:	6a 0a                	push   $0xa
  105011:	52                   	push   %edx
  105012:	50                   	push   %eax
  105013:	e8 38 22 00 00       	call   107250 <__umoddi3>
  105018:	83 c4 10             	add    $0x10,%esp
  10501b:	89 45 b0             	mov    %eax,-0x50(%ebp)
  10501e:	89 55 b4             	mov    %edx,-0x4c(%ebp)
  105021:	8b 45 b0             	mov    -0x50(%ebp),%eax
  105024:	8d 48 30             	lea    0x30(%eax),%ecx
  105027:	8b 45 e0             	mov    -0x20(%ebp),%eax
  10502a:	8b 55 e4             	mov    -0x1c(%ebp),%edx
  10502d:	83 c0 ff             	add    $0xffffffff,%eax
  105030:	83 d2 ff             	adc    $0xffffffff,%edx
  105033:	89 cb                	mov    %ecx,%ebx
  105035:	8d 8d 4c ff ff ff    	lea    -0xb4(%ebp),%ecx
  10503b:	01 c8                	add    %ecx,%eax
  10503d:	88 18                	mov    %bl,(%eax)
  10503f:	83 45 e0 ff          	addl   $0xffffffff,-0x20(%ebp)
  105043:	83 55 e4 ff          	adcl   $0xffffffff,-0x1c(%ebp)
  105047:	8b 45 b8             	mov    -0x48(%ebp),%eax
  10504a:	8b 55 bc             	mov    -0x44(%ebp),%edx
  10504d:	89 85 40 ff ff ff    	mov    %eax,-0xc0(%ebp)
  105053:	89 95 44 ff ff ff    	mov    %edx,-0xbc(%ebp)
  105059:	8b 45 e0             	mov    -0x20(%ebp),%eax
  10505c:	0b 45 e4             	or     -0x1c(%ebp),%eax
  10505f:	75 80                	jne    104fe1 <print_dec+0x138>
  105061:	eb 2c                	jmp    10508f <print_dec+0x1e6>
  105063:	8d 95 4c ff ff ff    	lea    -0xb4(%ebp),%edx
  105069:	8b 45 e0             	mov    -0x20(%ebp),%eax
  10506c:	01 d0                	add    %edx,%eax
  10506e:	0f b6 00             	movzbl (%eax),%eax
  105071:	0f be c0             	movsbl %al,%eax
  105074:	83 ec 08             	sub    $0x8,%esp
  105077:	50                   	push   %eax
  105078:	ff 75 18             	push   0x18(%ebp)
  10507b:	8b 45 14             	mov    0x14(%ebp),%eax
  10507e:	ff d0                	call   *%eax
  105080:	83 c4 10             	add    $0x10,%esp
  105083:	83 45 f4 01          	addl   $0x1,-0xc(%ebp)
  105087:	83 45 e0 01          	addl   $0x1,-0x20(%ebp)
  10508b:	83 55 e4 00          	adcl   $0x0,-0x1c(%ebp)
  10508f:	8b 45 e0             	mov    -0x20(%ebp),%eax
  105092:	8b 55 e4             	mov    -0x1c(%ebp),%edx
  105095:	3b 45 e8             	cmp    -0x18(%ebp),%eax
  105098:	89 d0                	mov    %edx,%eax
  10509a:	1b 45 ec             	sbb    -0x14(%ebp),%eax
  10509d:	72 c4                	jb     105063 <print_dec+0x1ba>
  10509f:	e9 13 01 00 00       	jmp    1051b7 <print_dec+0x30e>
  1050a4:	8b 45 e8             	mov    -0x18(%ebp),%eax
  1050a7:	8b 55 ec             	mov    -0x14(%ebp),%edx
  1050aa:	89 45 e0             	mov    %eax,-0x20(%ebp)
  1050ad:	89 55 e4             	mov    %edx,-0x1c(%ebp)
  1050b0:	eb 7c                	jmp    10512e <print_dec+0x285>
  1050b2:	8b 85 40 ff ff ff    	mov    -0xc0(%ebp),%eax
  1050b8:	8b 95 44 ff ff ff    	mov    -0xbc(%ebp),%edx
  1050be:	6a 00                	push   $0x0
  1050c0:	6a 0a                	push   $0xa
  1050c2:	52                   	push   %edx
  1050c3:	50                   	push   %eax
  1050c4:	e8 67 20 00 00       	call   107130 <__udivdi3>
  1050c9:	83 c4 10             	add    $0x10,%esp
  1050cc:	89 45 c8             	mov    %eax,-0x38(%ebp)
  1050cf:	89 55 cc             	mov    %edx,-0x34(%ebp)
  1050d2:	8b 85 40 ff ff ff    	mov    -0xc0(%ebp),%eax
  1050d8:	8b 95 44 ff ff ff    	mov    -0xbc(%ebp),%edx
  1050de:	6a 00                	push   $0x0
  1050e0:	6a 0a                	push   $0xa
  1050e2:	52                   	push   %edx
  1050e3:	50                   	push   %eax
  1050e4:	e8 67 21 00 00       	call   107250 <__umoddi3>
  1050e9:	83 c4 10             	add    $0x10,%esp
  1050ec:	89 45 c0             	mov    %eax,-0x40(%ebp)
  1050ef:	89 55 c4             	mov    %edx,-0x3c(%ebp)
  1050f2:	8b 45 c0             	mov    -0x40(%ebp),%eax
  1050f5:	8d 48 30             	lea    0x30(%eax),%ecx
  1050f8:	8b 45 e0             	mov    -0x20(%ebp),%eax
  1050fb:	8b 55 e4             	mov    -0x1c(%ebp),%edx
  1050fe:	83 c0 ff             	add    $0xffffffff,%eax
  105101:	83 d2 ff             	adc    $0xffffffff,%edx
  105104:	89 cb                	mov    %ecx,%ebx
  105106:	8d 8d 4c ff ff ff    	lea    -0xb4(%ebp),%ecx
  10510c:	01 c8                	add    %ecx,%eax
  10510e:	88 18                	mov    %bl,(%eax)
  105110:	83 45 e0 ff          	addl   $0xffffffff,-0x20(%ebp)
  105114:	83 55 e4 ff          	adcl   $0xffffffff,-0x1c(%ebp)
  105118:	8b 45 c8             	mov    -0x38(%ebp),%eax
  10511b:	8b 55 cc             	mov    -0x34(%ebp),%edx
  10511e:	89 85 40 ff ff ff    	mov    %eax,-0xc0(%ebp)
  105124:	89 95 44 ff ff ff    	mov    %edx,-0xbc(%ebp)
  10512a:	83 45 d4 01          	addl   $0x1,-0x2c(%ebp)
  10512e:	8b 45 e0             	mov    -0x20(%ebp),%eax
  105131:	0b 45 e4             	or     -0x1c(%ebp),%eax
  105134:	0f 85 78 ff ff ff    	jne    1050b2 <print_dec+0x209>
  10513a:	eb 2c                	jmp    105168 <print_dec+0x2bf>
  10513c:	8d 95 4c ff ff ff    	lea    -0xb4(%ebp),%edx
  105142:	8b 45 e0             	mov    -0x20(%ebp),%eax
  105145:	01 d0                	add    %edx,%eax
  105147:	0f b6 00             	movzbl (%eax),%eax
  10514a:	0f be c0             	movsbl %al,%eax
  10514d:	83 ec 08             	sub    $0x8,%esp
  105150:	50                   	push   %eax
  105151:	ff 75 18             	push   0x18(%ebp)
  105154:	8b 45 14             	mov    0x14(%ebp),%eax
  105157:	ff d0                	call   *%eax
  105159:	83 c4 10             	add    $0x10,%esp
  10515c:	83 45 f4 01          	addl   $0x1,-0xc(%ebp)
  105160:	83 45 e0 01          	addl   $0x1,-0x20(%ebp)
  105164:	83 55 e4 00          	adcl   $0x0,-0x1c(%ebp)
  105168:	8b 45 e0             	mov    -0x20(%ebp),%eax
  10516b:	8b 55 e4             	mov    -0x1c(%ebp),%edx
  10516e:	3b 45 e8             	cmp    -0x18(%ebp),%eax
  105171:	89 d0                	mov    %edx,%eax
  105173:	1b 45 ec             	sbb    -0x14(%ebp),%eax
  105176:	72 c4                	jb     10513c <print_dec+0x293>
  105178:	eb 29                	jmp    1051a3 <print_dec+0x2fa>
  10517a:	83 7d 1c 00          	cmpl   $0x0,0x1c(%ebp)
  10517e:	74 07                	je     105187 <print_dec+0x2de>
  105180:	b8 30 00 00 00       	mov    $0x30,%eax
  105185:	eb 05                	jmp    10518c <print_dec+0x2e3>
  105187:	b8 20 00 00 00       	mov    $0x20,%eax
  10518c:	83 ec 08             	sub    $0x8,%esp
  10518f:	50                   	push   %eax
  105190:	ff 75 18             	push   0x18(%ebp)
  105193:	8b 45 14             	mov    0x14(%ebp),%eax
  105196:	ff d0                	call   *%eax
  105198:	83 c4 10             	add    $0x10,%esp
  10519b:	83 45 f4 01          	addl   $0x1,-0xc(%ebp)
  10519f:	83 45 d4 01          	addl   $0x1,-0x2c(%ebp)
  1051a3:	8b 45 d4             	mov    -0x2c(%ebp),%eax
  1051a6:	99                   	cltd   
  1051a7:	8b 4d 10             	mov    0x10(%ebp),%ecx
  1051aa:	bb 00 00 00 00       	mov    $0x0,%ebx
  1051af:	39 c8                	cmp    %ecx,%eax
  1051b1:	89 d0                	mov    %edx,%eax
  1051b3:	19 d8                	sbb    %ebx,%eax
  1051b5:	7c c3                	jl     10517a <print_dec+0x2d1>
  1051b7:	8b 45 f4             	mov    -0xc(%ebp),%eax
  1051ba:	8b 5d fc             	mov    -0x4(%ebp),%ebx
  1051bd:	c9                   	leave  
  1051be:	c3                   	ret    

001051bf <print_hex>:
  1051bf:	55                   	push   %ebp
  1051c0:	89 e5                	mov    %esp,%ebp
  1051c2:	57                   	push   %edi
  1051c3:	56                   	push   %esi
  1051c4:	53                   	push   %ebx
  1051c5:	83 ec 3c             	sub    $0x3c,%esp
  1051c8:	8b 45 08             	mov    0x8(%ebp),%eax
  1051cb:	89 45 c0             	mov    %eax,-0x40(%ebp)
  1051ce:	8b 45 0c             	mov    0xc(%ebp),%eax
  1051d1:	89 45 c4             	mov    %eax,-0x3c(%ebp)
  1051d4:	c7 45 e4 00 00 00 00 	movl   $0x0,-0x1c(%ebp)
  1051db:	8b 45 10             	mov    0x10(%ebp),%eax
  1051de:	89 45 e0             	mov    %eax,-0x20(%ebp)
  1051e1:	c7 45 d8 01 00 00 00 	movl   $0x1,-0x28(%ebp)
  1051e8:	c7 45 dc 00 00 00 00 	movl   $0x0,-0x24(%ebp)
  1051ef:	c7 45 d0 0f 00 00 00 	movl   $0xf,-0x30(%ebp)
  1051f6:	c7 45 d4 00 00 00 00 	movl   $0x0,-0x2c(%ebp)
  1051fd:	eb 23                	jmp    105222 <print_hex+0x63>
  1051ff:	83 45 d8 01          	addl   $0x1,-0x28(%ebp)
  105203:	83 55 dc 00          	adcl   $0x0,-0x24(%ebp)
  105207:	8b 45 d0             	mov    -0x30(%ebp),%eax
  10520a:	8b 55 d4             	mov    -0x2c(%ebp),%edx
  10520d:	0f a4 c2 04          	shld   $0x4,%eax,%edx
  105211:	c1 e0 04             	shl    $0x4,%eax
  105214:	89 45 d0             	mov    %eax,-0x30(%ebp)
  105217:	89 55 d4             	mov    %edx,-0x2c(%ebp)
  10521a:	83 45 d0 0f          	addl   $0xf,-0x30(%ebp)
  10521e:	83 55 d4 00          	adcl   $0x0,-0x2c(%ebp)
  105222:	8b 45 c0             	mov    -0x40(%ebp),%eax
  105225:	8b 55 c4             	mov    -0x3c(%ebp),%edx
  105228:	8b 4d d4             	mov    -0x2c(%ebp),%ecx
  10522b:	39 45 d0             	cmp    %eax,-0x30(%ebp)
  10522e:	19 d1                	sbb    %edx,%ecx
  105230:	73 0b                	jae    10523d <print_hex+0x7e>
  105232:	8b 45 d0             	mov    -0x30(%ebp),%eax
  105235:	23 45 d4             	and    -0x2c(%ebp),%eax
  105238:	83 f8 ff             	cmp    $0xffffffff,%eax
  10523b:	75 c2                	jne    1051ff <print_hex+0x40>
  10523d:	83 7d 1c 00          	cmpl   $0x0,0x1c(%ebp)
  105241:	75 52                	jne    105295 <print_hex+0xd6>
  105243:	83 7d 28 01          	cmpl   $0x1,0x28(%ebp)
  105247:	75 4c                	jne    105295 <print_hex+0xd6>
  105249:	eb 18                	jmp    105263 <print_hex+0xa4>
  10524b:	83 ec 08             	sub    $0x8,%esp
  10524e:	6a 20                	push   $0x20
  105250:	ff 75 18             	push   0x18(%ebp)
  105253:	8b 45 14             	mov    0x14(%ebp),%eax
  105256:	ff d0                	call   *%eax
  105258:	83 c4 10             	add    $0x10,%esp
  10525b:	83 45 e4 01          	addl   $0x1,-0x1c(%ebp)
  10525f:	83 6d e0 01          	subl   $0x1,-0x20(%ebp)
  105263:	8b 45 e0             	mov    -0x20(%ebp),%eax
  105266:	99                   	cltd   
  105267:	83 7d 20 00          	cmpl   $0x0,0x20(%ebp)
  10526b:	74 0c                	je     105279 <print_hex+0xba>
  10526d:	be 02 00 00 00       	mov    $0x2,%esi
  105272:	bf 00 00 00 00       	mov    $0x0,%edi
  105277:	eb 0a                	jmp    105283 <print_hex+0xc4>
  105279:	be 00 00 00 00       	mov    $0x0,%esi
  10527e:	bf 00 00 00 00       	mov    $0x0,%edi
  105283:	8b 4d d8             	mov    -0x28(%ebp),%ecx
  105286:	8b 5d dc             	mov    -0x24(%ebp),%ebx
  105289:	01 f1                	add    %esi,%ecx
  10528b:	11 fb                	adc    %edi,%ebx
  10528d:	39 c1                	cmp    %eax,%ecx
  10528f:	89 df                	mov    %ebx,%edi
  105291:	19 d7                	sbb    %edx,%edi
  105293:	7c b6                	jl     10524b <print_hex+0x8c>
  105295:	83 7d 20 00          	cmpl   $0x0,0x20(%ebp)
  105299:	74 39                	je     1052d4 <print_hex+0x115>
  10529b:	83 ec 08             	sub    $0x8,%esp
  10529e:	6a 30                	push   $0x30
  1052a0:	ff 75 18             	push   0x18(%ebp)
  1052a3:	8b 45 14             	mov    0x14(%ebp),%eax
  1052a6:	ff d0                	call   *%eax
  1052a8:	83 c4 10             	add    $0x10,%esp
  1052ab:	83 45 e4 01          	addl   $0x1,-0x1c(%ebp)
  1052af:	83 7d 24 00          	cmpl   $0x0,0x24(%ebp)
  1052b3:	74 07                	je     1052bc <print_hex+0xfd>
  1052b5:	b8 58 00 00 00       	mov    $0x58,%eax
  1052ba:	eb 05                	jmp    1052c1 <print_hex+0x102>
  1052bc:	b8 78 00 00 00       	mov    $0x78,%eax
  1052c1:	83 ec 08             	sub    $0x8,%esp
  1052c4:	50                   	push   %eax
  1052c5:	ff 75 18             	push   0x18(%ebp)
  1052c8:	8b 45 14             	mov    0x14(%ebp),%eax
  1052cb:	ff d0                	call   *%eax
  1052cd:	83 c4 10             	add    $0x10,%esp
  1052d0:	83 45 e4 01          	addl   $0x1,-0x1c(%ebp)
  1052d4:	83 7d 1c 00          	cmpl   $0x0,0x1c(%ebp)
  1052d8:	74 52                	je     10532c <print_hex+0x16d>
  1052da:	83 7d 28 01          	cmpl   $0x1,0x28(%ebp)
  1052de:	75 4c                	jne    10532c <print_hex+0x16d>
  1052e0:	eb 18                	jmp    1052fa <print_hex+0x13b>
  1052e2:	83 ec 08             	sub    $0x8,%esp
  1052e5:	6a 30                	push   $0x30
  1052e7:	ff 75 18             	push   0x18(%ebp)
  1052ea:	8b 45 14             	mov    0x14(%ebp),%eax
  1052ed:	ff d0                	call   *%eax
  1052ef:	83 c4 10             	add    $0x10,%esp
  1052f2:	83 45 e4 01          	addl   $0x1,-0x1c(%ebp)
  1052f6:	83 6d e0 01          	subl   $0x1,-0x20(%ebp)
  1052fa:	8b 45 e0             	mov    -0x20(%ebp),%eax
  1052fd:	99                   	cltd   
  1052fe:	83 7d 20 00          	cmpl   $0x0,0x20(%ebp)
  105302:	74 0c                	je     105310 <print_hex+0x151>
  105304:	be 02 00 00 00       	mov    $0x2,%esi
  105309:	bf 00 00 00 00       	mov    $0x0,%edi
  10530e:	eb 0a                	jmp    10531a <print_hex+0x15b>
  105310:	be 00 00 00 00       	mov    $0x0,%esi
  105315:	bf 00 00 00 00       	mov    $0x0,%edi
  10531a:	8b 4d d8             	mov    -0x28(%ebp),%ecx
  10531d:	8b 5d dc             	mov    -0x24(%ebp),%ebx
  105320:	01 f1                	add    %esi,%ecx
  105322:	11 fb                	adc    %edi,%ebx
  105324:	39 c1                	cmp    %eax,%ecx
  105326:	89 df                	mov    %ebx,%edi
  105328:	19 d7                	sbb    %edx,%edi
  10532a:	7c b6                	jl     1052e2 <print_hex+0x123>
  10532c:	8b 45 d8             	mov    -0x28(%ebp),%eax
  10532f:	89 45 e0             	mov    %eax,-0x20(%ebp)
  105332:	eb 52                	jmp    105386 <print_hex+0x1c7>
  105334:	83 7d 24 00          	cmpl   $0x0,0x24(%ebp)
  105338:	74 07                	je     105341 <print_hex+0x182>
  10533a:	bb 80 98 10 00       	mov    $0x109880,%ebx
  10533f:	eb 05                	jmp    105346 <print_hex+0x187>
  105341:	bb 91 98 10 00       	mov    $0x109891,%ebx
  105346:	8b 45 e0             	mov    -0x20(%ebp),%eax
  105349:	8d 0c 85 00 00 00 00 	lea    0x0(,%eax,4),%ecx
  105350:	8b 45 c0             	mov    -0x40(%ebp),%eax
  105353:	8b 55 c4             	mov    -0x3c(%ebp),%edx
  105356:	0f ad d0             	shrd   %cl,%edx,%eax
  105359:	d3 ea                	shr    %cl,%edx
  10535b:	f6 c1 20             	test   $0x20,%cl
  10535e:	74 04                	je     105364 <print_hex+0x1a5>
  105360:	89 d0                	mov    %edx,%eax
  105362:	31 d2                	xor    %edx,%edx
  105364:	83 e0 0f             	and    $0xf,%eax
  105367:	01 d8                	add    %ebx,%eax
  105369:	0f b6 00             	movzbl (%eax),%eax
  10536c:	88 45 cf             	mov    %al,-0x31(%ebp)
  10536f:	0f be 45 cf          	movsbl -0x31(%ebp),%eax
  105373:	83 ec 08             	sub    $0x8,%esp
  105376:	50                   	push   %eax
  105377:	ff 75 18             	push   0x18(%ebp)
  10537a:	8b 45 14             	mov    0x14(%ebp),%eax
  10537d:	ff d0                	call   *%eax
  10537f:	83 c4 10             	add    $0x10,%esp
  105382:	83 45 e4 01          	addl   $0x1,-0x1c(%ebp)
  105386:	8b 45 e0             	mov    -0x20(%ebp),%eax
  105389:	8d 50 ff             	lea    -0x1(%eax),%edx
  10538c:	89 55 e0             	mov    %edx,-0x20(%ebp)
  10538f:	85 c0                	test   %eax,%eax
  105391:	7f a1                	jg     105334 <print_hex+0x175>
  105393:	83 7d 28 00          	cmpl   $0x0,0x28(%ebp)
  105397:	75 50                	jne    1053e9 <print_hex+0x22a>
  105399:	8b 45 10             	mov    0x10(%ebp),%eax
  10539c:	89 45 e0             	mov    %eax,-0x20(%ebp)
  10539f:	eb 18                	jmp    1053b9 <print_hex+0x1fa>
  1053a1:	83 ec 08             	sub    $0x8,%esp
  1053a4:	6a 20                	push   $0x20
  1053a6:	ff 75 18             	push   0x18(%ebp)
  1053a9:	8b 45 14             	mov    0x14(%ebp),%eax
  1053ac:	ff d0                	call   *%eax
  1053ae:	83 c4 10             	add    $0x10,%esp
  1053b1:	83 45 e4 01          	addl   $0x1,-0x1c(%ebp)
  1053b5:	83 6d e0 01          	subl   $0x1,-0x20(%ebp)
  1053b9:	8b 45 e0             	mov    -0x20(%ebp),%eax
  1053bc:	99                   	cltd   
  1053bd:	83 7d 20 00          	cmpl   $0x0,0x20(%ebp)
  1053c1:	74 0c                	je     1053cf <print_hex+0x210>
  1053c3:	be 02 00 00 00       	mov    $0x2,%esi
  1053c8:	bf 00 00 00 00       	mov    $0x0,%edi
  1053cd:	eb 0a                	jmp    1053d9 <print_hex+0x21a>
  1053cf:	be 00 00 00 00       	mov    $0x0,%esi
  1053d4:	bf 00 00 00 00       	mov    $0x0,%edi
  1053d9:	8b 4d d8             	mov    -0x28(%ebp),%ecx
  1053dc:	8b 5d dc             	mov    -0x24(%ebp),%ebx
  1053df:	01 f1                	add    %esi,%ecx
  1053e1:	11 fb                	adc    %edi,%ebx
  1053e3:	39 c1                	cmp    %eax,%ecx
  1053e5:	19 d3                	sbb    %edx,%ebx
  1053e7:	7c b8                	jl     1053a1 <print_hex+0x1e2>
  1053e9:	8b 45 e4             	mov    -0x1c(%ebp),%eax
  1053ec:	8d 65 f4             	lea    -0xc(%ebp),%esp
  1053ef:	5b                   	pop    %ebx
  1053f0:	5e                   	pop    %esi
  1053f1:	5f                   	pop    %edi
  1053f2:	5d                   	pop    %ebp
  1053f3:	c3                   	ret    

001053f4 <xvasprintf>:
  1053f4:	55                   	push   %ebp
  1053f5:	89 e5                	mov    %esp,%ebp
  1053f7:	81 ec 98 00 00 00    	sub    $0x98,%esp
  1053fd:	c7 45 f0 00 00 00 00 	movl   $0x0,-0x10(%ebp)
  105404:	8b 45 10             	mov    0x10(%ebp),%eax
  105407:	89 45 ec             	mov    %eax,-0x14(%ebp)
  10540a:	e9 c6 0b 00 00       	jmp    105fd5 <xvasprintf+0xbe1>
  10540f:	8b 45 ec             	mov    -0x14(%ebp),%eax
  105412:	0f b6 00             	movzbl (%eax),%eax
  105415:	3c 25                	cmp    $0x25,%al
  105417:	74 21                	je     10543a <xvasprintf+0x46>
  105419:	8b 45 ec             	mov    -0x14(%ebp),%eax
  10541c:	0f b6 00             	movzbl (%eax),%eax
  10541f:	0f be c0             	movsbl %al,%eax
  105422:	83 ec 08             	sub    $0x8,%esp
  105425:	50                   	push   %eax
  105426:	ff 75 0c             	push   0xc(%ebp)
  105429:	8b 45 08             	mov    0x8(%ebp),%eax
  10542c:	ff d0                	call   *%eax
  10542e:	83 c4 10             	add    $0x10,%esp
  105431:	83 45 f0 01          	addl   $0x1,-0x10(%ebp)
  105435:	e9 97 0b 00 00       	jmp    105fd1 <xvasprintf+0xbdd>
  10543a:	83 45 ec 01          	addl   $0x1,-0x14(%ebp)
  10543e:	c7 45 e8 00 00 00 00 	movl   $0x0,-0x18(%ebp)
  105445:	c7 45 e4 01 00 00 00 	movl   $0x1,-0x1c(%ebp)
  10544c:	c7 45 e0 00 00 00 00 	movl   $0x0,-0x20(%ebp)
  105453:	c7 45 dc 00 00 00 00 	movl   $0x0,-0x24(%ebp)
  10545a:	c7 45 d8 00 00 00 00 	movl   $0x0,-0x28(%ebp)
  105461:	c7 45 d4 00 00 00 00 	movl   $0x0,-0x2c(%ebp)
  105468:	c7 45 d0 ff ff ff ff 	movl   $0xffffffff,-0x30(%ebp)
  10546f:	8b 45 ec             	mov    -0x14(%ebp),%eax
  105472:	0f b6 00             	movzbl (%eax),%eax
  105475:	3c 2d                	cmp    $0x2d,%al
  105477:	75 0d                	jne    105486 <xvasprintf+0x92>
  105479:	c7 45 e4 00 00 00 00 	movl   $0x0,-0x1c(%ebp)
  105480:	83 45 ec 01          	addl   $0x1,-0x14(%ebp)
  105484:	eb e9                	jmp    10546f <xvasprintf+0x7b>
  105486:	8b 45 ec             	mov    -0x14(%ebp),%eax
  105489:	0f b6 00             	movzbl (%eax),%eax
  10548c:	3c 23                	cmp    $0x23,%al
  10548e:	75 0d                	jne    10549d <xvasprintf+0xa9>
  105490:	c7 45 d8 01 00 00 00 	movl   $0x1,-0x28(%ebp)
  105497:	83 45 ec 01          	addl   $0x1,-0x14(%ebp)
  10549b:	eb d2                	jmp    10546f <xvasprintf+0x7b>
  10549d:	8b 45 ec             	mov    -0x14(%ebp),%eax
  1054a0:	0f b6 00             	movzbl (%eax),%eax
  1054a3:	3c 2a                	cmp    $0x2a,%al
  1054a5:	75 14                	jne    1054bb <xvasprintf+0xc7>
  1054a7:	8b 45 14             	mov    0x14(%ebp),%eax
  1054aa:	8d 50 04             	lea    0x4(%eax),%edx
  1054ad:	89 55 14             	mov    %edx,0x14(%ebp)
  1054b0:	8b 00                	mov    (%eax),%eax
  1054b2:	89 45 e8             	mov    %eax,-0x18(%ebp)
  1054b5:	83 45 ec 01          	addl   $0x1,-0x14(%ebp)
  1054b9:	eb b4                	jmp    10546f <xvasprintf+0x7b>
  1054bb:	8b 45 ec             	mov    -0x14(%ebp),%eax
  1054be:	0f b6 00             	movzbl (%eax),%eax
  1054c1:	3c 30                	cmp    $0x30,%al
  1054c3:	75 0d                	jne    1054d2 <xvasprintf+0xde>
  1054c5:	c7 45 e0 01 00 00 00 	movl   $0x1,-0x20(%ebp)
  1054cc:	83 45 ec 01          	addl   $0x1,-0x14(%ebp)
  1054d0:	eb 9d                	jmp    10546f <xvasprintf+0x7b>
  1054d2:	8b 45 ec             	mov    -0x14(%ebp),%eax
  1054d5:	0f b6 00             	movzbl (%eax),%eax
  1054d8:	3c 2b                	cmp    $0x2b,%al
  1054da:	75 0d                	jne    1054e9 <xvasprintf+0xf5>
  1054dc:	c7 45 d4 01 00 00 00 	movl   $0x1,-0x2c(%ebp)
  1054e3:	83 45 ec 01          	addl   $0x1,-0x14(%ebp)
  1054e7:	eb 86                	jmp    10546f <xvasprintf+0x7b>
  1054e9:	8b 45 ec             	mov    -0x14(%ebp),%eax
  1054ec:	0f b6 00             	movzbl (%eax),%eax
  1054ef:	3c 20                	cmp    $0x20,%al
  1054f1:	75 10                	jne    105503 <xvasprintf+0x10f>
  1054f3:	c7 45 d4 02 00 00 00 	movl   $0x2,-0x2c(%ebp)
  1054fa:	83 45 ec 01          	addl   $0x1,-0x14(%ebp)
  1054fe:	e9 6c ff ff ff       	jmp    10546f <xvasprintf+0x7b>
  105503:	90                   	nop
  105504:	eb 27                	jmp    10552d <xvasprintf+0x139>
  105506:	8b 55 e8             	mov    -0x18(%ebp),%edx
  105509:	89 d0                	mov    %edx,%eax
  10550b:	c1 e0 02             	shl    $0x2,%eax
  10550e:	01 d0                	add    %edx,%eax
  105510:	01 c0                	add    %eax,%eax
  105512:	89 45 e8             	mov    %eax,-0x18(%ebp)
  105515:	8b 45 ec             	mov    -0x14(%ebp),%eax
  105518:	0f b6 00             	movzbl (%eax),%eax
  10551b:	0f be d0             	movsbl %al,%edx
  10551e:	8b 45 e8             	mov    -0x18(%ebp),%eax
  105521:	01 d0                	add    %edx,%eax
  105523:	83 e8 30             	sub    $0x30,%eax
  105526:	89 45 e8             	mov    %eax,-0x18(%ebp)
  105529:	83 45 ec 01          	addl   $0x1,-0x14(%ebp)
  10552d:	8b 45 ec             	mov    -0x14(%ebp),%eax
  105530:	0f b6 00             	movzbl (%eax),%eax
  105533:	3c 2f                	cmp    $0x2f,%al
  105535:	7e 0a                	jle    105541 <xvasprintf+0x14d>
  105537:	8b 45 ec             	mov    -0x14(%ebp),%eax
  10553a:	0f b6 00             	movzbl (%eax),%eax
  10553d:	3c 39                	cmp    $0x39,%al
  10553f:	7e c5                	jle    105506 <xvasprintf+0x112>
  105541:	8b 45 ec             	mov    -0x14(%ebp),%eax
  105544:	0f b6 00             	movzbl (%eax),%eax
  105547:	3c 2e                	cmp    $0x2e,%al
  105549:	75 5f                	jne    1055aa <xvasprintf+0x1b6>
  10554b:	83 45 ec 01          	addl   $0x1,-0x14(%ebp)
  10554f:	c7 45 d0 00 00 00 00 	movl   $0x0,-0x30(%ebp)
  105556:	8b 45 ec             	mov    -0x14(%ebp),%eax
  105559:	0f b6 00             	movzbl (%eax),%eax
  10555c:	3c 2a                	cmp    $0x2a,%al
  10555e:	75 36                	jne    105596 <xvasprintf+0x1a2>
  105560:	8b 45 14             	mov    0x14(%ebp),%eax
  105563:	8d 50 04             	lea    0x4(%eax),%edx
  105566:	89 55 14             	mov    %edx,0x14(%ebp)
  105569:	8b 00                	mov    (%eax),%eax
  10556b:	89 45 d0             	mov    %eax,-0x30(%ebp)
  10556e:	83 45 ec 01          	addl   $0x1,-0x14(%ebp)
  105572:	eb 36                	jmp    1055aa <xvasprintf+0x1b6>
  105574:	8b 55 d0             	mov    -0x30(%ebp),%edx
  105577:	89 d0                	mov    %edx,%eax
  105579:	c1 e0 02             	shl    $0x2,%eax
  10557c:	01 d0                	add    %edx,%eax
  10557e:	01 c0                	add    %eax,%eax
  105580:	89 45 d0             	mov    %eax,-0x30(%ebp)
  105583:	8b 45 ec             	mov    -0x14(%ebp),%eax
  105586:	0f b6 00             	movzbl (%eax),%eax
  105589:	0f be c0             	movsbl %al,%eax
  10558c:	83 e8 30             	sub    $0x30,%eax
  10558f:	01 45 d0             	add    %eax,-0x30(%ebp)
  105592:	83 45 ec 01          	addl   $0x1,-0x14(%ebp)
  105596:	8b 45 ec             	mov    -0x14(%ebp),%eax
  105599:	0f b6 00             	movzbl (%eax),%eax
  10559c:	3c 2f                	cmp    $0x2f,%al
  10559e:	7e 0a                	jle    1055aa <xvasprintf+0x1b6>
  1055a0:	8b 45 ec             	mov    -0x14(%ebp),%eax
  1055a3:	0f b6 00             	movzbl (%eax),%eax
  1055a6:	3c 39                	cmp    $0x39,%al
  1055a8:	7e ca                	jle    105574 <xvasprintf+0x180>
  1055aa:	8b 45 ec             	mov    -0x14(%ebp),%eax
  1055ad:	0f b6 00             	movzbl (%eax),%eax
  1055b0:	3c 6c                	cmp    $0x6c,%al
  1055b2:	75 20                	jne    1055d4 <xvasprintf+0x1e0>
  1055b4:	c7 45 dc 01 00 00 00 	movl   $0x1,-0x24(%ebp)
  1055bb:	83 45 ec 01          	addl   $0x1,-0x14(%ebp)
  1055bf:	8b 45 ec             	mov    -0x14(%ebp),%eax
  1055c2:	0f b6 00             	movzbl (%eax),%eax
  1055c5:	3c 6c                	cmp    $0x6c,%al
  1055c7:	75 0b                	jne    1055d4 <xvasprintf+0x1e0>
  1055c9:	c7 45 dc 02 00 00 00 	movl   $0x2,-0x24(%ebp)
  1055d0:	83 45 ec 01          	addl   $0x1,-0x14(%ebp)
  1055d4:	8b 45 ec             	mov    -0x14(%ebp),%eax
  1055d7:	0f b6 00             	movzbl (%eax),%eax
  1055da:	3c 6a                	cmp    $0x6a,%al
  1055dc:	75 0b                	jne    1055e9 <xvasprintf+0x1f5>
  1055de:	c7 45 dc 02 00 00 00 	movl   $0x2,-0x24(%ebp)
  1055e5:	83 45 ec 01          	addl   $0x1,-0x14(%ebp)
  1055e9:	8b 45 ec             	mov    -0x14(%ebp),%eax
  1055ec:	0f b6 00             	movzbl (%eax),%eax
  1055ef:	3c 7a                	cmp    $0x7a,%al
  1055f1:	75 0b                	jne    1055fe <xvasprintf+0x20a>
  1055f3:	c7 45 dc 01 00 00 00 	movl   $0x1,-0x24(%ebp)
  1055fa:	83 45 ec 01          	addl   $0x1,-0x14(%ebp)
  1055fe:	8b 45 ec             	mov    -0x14(%ebp),%eax
  105601:	0f b6 00             	movzbl (%eax),%eax
  105604:	3c 74                	cmp    $0x74,%al
  105606:	75 0b                	jne    105613 <xvasprintf+0x21f>
  105608:	c7 45 dc 01 00 00 00 	movl   $0x1,-0x24(%ebp)
  10560f:	83 45 ec 01          	addl   $0x1,-0x14(%ebp)
  105613:	8b 45 ec             	mov    -0x14(%ebp),%eax
  105616:	0f b6 00             	movzbl (%eax),%eax
  105619:	0f be c0             	movsbl %al,%eax
  10561c:	83 e8 25             	sub    $0x25,%eax
  10561f:	83 f8 53             	cmp    $0x53,%eax
  105622:	0f 87 8c 09 00 00    	ja     105fb4 <xvasprintf+0xbc0>
  105628:	8b 04 85 ac 98 10 00 	mov    0x1098ac(,%eax,4),%eax
  10562f:	ff e0                	jmp    *%eax
  105631:	c7 45 cc 00 00 00 00 	movl   $0x0,-0x34(%ebp)
  105638:	83 7d dc 00          	cmpl   $0x0,-0x24(%ebp)
  10563c:	74 08                	je     105646 <xvasprintf+0x252>
  10563e:	8b 45 f0             	mov    -0x10(%ebp),%eax
  105641:	e9 a0 09 00 00       	jmp    105fe6 <xvasprintf+0xbf2>
  105646:	8b 45 14             	mov    0x14(%ebp),%eax
  105649:	8d 50 04             	lea    0x4(%eax),%edx
  10564c:	89 55 14             	mov    %edx,0x14(%ebp)
  10564f:	8b 00                	mov    (%eax),%eax
  105651:	89 45 f4             	mov    %eax,-0xc(%ebp)
  105654:	83 7d f4 00          	cmpl   $0x0,-0xc(%ebp)
  105658:	75 07                	jne    105661 <xvasprintf+0x26d>
  10565a:	c7 45 f4 a2 98 10 00 	movl   $0x1098a2,-0xc(%ebp)
  105661:	83 7d d0 00          	cmpl   $0x0,-0x30(%ebp)
  105665:	0f 88 80 00 00 00    	js     1056eb <xvasprintf+0x2f7>
  10566b:	eb 38                	jmp    1056a5 <xvasprintf+0x2b1>
  10566d:	8b 45 f4             	mov    -0xc(%ebp),%eax
  105670:	8d 50 01             	lea    0x1(%eax),%edx
  105673:	89 55 f4             	mov    %edx,-0xc(%ebp)
  105676:	0f b6 00             	movzbl (%eax),%eax
  105679:	0f be c0             	movsbl %al,%eax
  10567c:	83 ec 08             	sub    $0x8,%esp
  10567f:	50                   	push   %eax
  105680:	ff 75 0c             	push   0xc(%ebp)
  105683:	8b 45 08             	mov    0x8(%ebp),%eax
  105686:	ff d0                	call   *%eax
  105688:	83 c4 10             	add    $0x10,%esp
  10568b:	83 45 f0 01          	addl   $0x1,-0x10(%ebp)
  10568f:	83 45 cc 01          	addl   $0x1,-0x34(%ebp)
  105693:	83 6d d0 01          	subl   $0x1,-0x30(%ebp)
  105697:	83 7d e8 00          	cmpl   $0x0,-0x18(%ebp)
  10569b:	74 08                	je     1056a5 <xvasprintf+0x2b1>
  10569d:	8b 45 cc             	mov    -0x34(%ebp),%eax
  1056a0:	3b 45 e8             	cmp    -0x18(%ebp),%eax
  1056a3:	74 52                	je     1056f7 <xvasprintf+0x303>
  1056a5:	8b 45 f4             	mov    -0xc(%ebp),%eax
  1056a8:	0f b6 00             	movzbl (%eax),%eax
  1056ab:	84 c0                	test   %al,%al
  1056ad:	74 66                	je     105715 <xvasprintf+0x321>
  1056af:	83 7d d0 00          	cmpl   $0x0,-0x30(%ebp)
  1056b3:	7f b8                	jg     10566d <xvasprintf+0x279>
  1056b5:	eb 5e                	jmp    105715 <xvasprintf+0x321>
  1056b7:	8b 45 f4             	mov    -0xc(%ebp),%eax
  1056ba:	8d 50 01             	lea    0x1(%eax),%edx
  1056bd:	89 55 f4             	mov    %edx,-0xc(%ebp)
  1056c0:	0f b6 00             	movzbl (%eax),%eax
  1056c3:	0f be c0             	movsbl %al,%eax
  1056c6:	83 ec 08             	sub    $0x8,%esp
  1056c9:	50                   	push   %eax
  1056ca:	ff 75 0c             	push   0xc(%ebp)
  1056cd:	8b 45 08             	mov    0x8(%ebp),%eax
  1056d0:	ff d0                	call   *%eax
  1056d2:	83 c4 10             	add    $0x10,%esp
  1056d5:	83 45 f0 01          	addl   $0x1,-0x10(%ebp)
  1056d9:	83 45 cc 01          	addl   $0x1,-0x34(%ebp)
  1056dd:	83 7d e8 00          	cmpl   $0x0,-0x18(%ebp)
  1056e1:	74 08                	je     1056eb <xvasprintf+0x2f7>
  1056e3:	8b 45 cc             	mov    -0x34(%ebp),%eax
  1056e6:	3b 45 e8             	cmp    -0x18(%ebp),%eax
  1056e9:	74 0f                	je     1056fa <xvasprintf+0x306>
  1056eb:	8b 45 f4             	mov    -0xc(%ebp),%eax
  1056ee:	0f b6 00             	movzbl (%eax),%eax
  1056f1:	84 c0                	test   %al,%al
  1056f3:	75 c2                	jne    1056b7 <xvasprintf+0x2c3>
  1056f5:	eb 1e                	jmp    105715 <xvasprintf+0x321>
  1056f7:	90                   	nop
  1056f8:	eb 1b                	jmp    105715 <xvasprintf+0x321>
  1056fa:	90                   	nop
  1056fb:	eb 18                	jmp    105715 <xvasprintf+0x321>
  1056fd:	83 ec 08             	sub    $0x8,%esp
  105700:	6a 20                	push   $0x20
  105702:	ff 75 0c             	push   0xc(%ebp)
  105705:	8b 45 08             	mov    0x8(%ebp),%eax
  105708:	ff d0                	call   *%eax
  10570a:	83 c4 10             	add    $0x10,%esp
  10570d:	83 45 f0 01          	addl   $0x1,-0x10(%ebp)
  105711:	83 45 cc 01          	addl   $0x1,-0x34(%ebp)
  105715:	8b 45 cc             	mov    -0x34(%ebp),%eax
  105718:	3b 45 e8             	cmp    -0x18(%ebp),%eax
  10571b:	72 e0                	jb     1056fd <xvasprintf+0x309>
  10571d:	e9 af 08 00 00       	jmp    105fd1 <xvasprintf+0xbdd>
  105722:	8b 45 14             	mov    0x14(%ebp),%eax
  105725:	8d 50 04             	lea    0x4(%eax),%edx
  105728:	89 55 14             	mov    %edx,0x14(%ebp)
  10572b:	8b 00                	mov    (%eax),%eax
  10572d:	0f be c0             	movsbl %al,%eax
  105730:	83 ec 08             	sub    $0x8,%esp
  105733:	50                   	push   %eax
  105734:	ff 75 0c             	push   0xc(%ebp)
  105737:	8b 45 08             	mov    0x8(%ebp),%eax
  10573a:	ff d0                	call   *%eax
  10573c:	83 c4 10             	add    $0x10,%esp
  10573f:	83 45 f0 01          	addl   $0x1,-0x10(%ebp)
  105743:	e9 89 08 00 00       	jmp    105fd1 <xvasprintf+0xbdd>
  105748:	c7 45 d8 01 00 00 00 	movl   $0x1,-0x28(%ebp)
  10574f:	83 7d dc 02          	cmpl   $0x2,-0x24(%ebp)
  105753:	75 16                	jne    10576b <xvasprintf+0x377>
  105755:	8b 45 14             	mov    0x14(%ebp),%eax
  105758:	8d 50 08             	lea    0x8(%eax),%edx
  10575b:	89 55 14             	mov    %edx,0x14(%ebp)
  10575e:	8b 50 04             	mov    0x4(%eax),%edx
  105761:	8b 00                	mov    (%eax),%eax
  105763:	89 45 c0             	mov    %eax,-0x40(%ebp)
  105766:	89 55 c4             	mov    %edx,-0x3c(%ebp)
  105769:	eb 32                	jmp    10579d <xvasprintf+0x3a9>
  10576b:	83 7d dc 01          	cmpl   $0x1,-0x24(%ebp)
  10576f:	75 17                	jne    105788 <xvasprintf+0x394>
  105771:	8b 45 14             	mov    0x14(%ebp),%eax
  105774:	8d 50 04             	lea    0x4(%eax),%edx
  105777:	89 55 14             	mov    %edx,0x14(%ebp)
  10577a:	8b 00                	mov    (%eax),%eax
  10577c:	89 45 c0             	mov    %eax,-0x40(%ebp)
  10577f:	c7 45 c4 00 00 00 00 	movl   $0x0,-0x3c(%ebp)
  105786:	eb 15                	jmp    10579d <xvasprintf+0x3a9>
  105788:	8b 45 14             	mov    0x14(%ebp),%eax
  10578b:	8d 50 04             	lea    0x4(%eax),%edx
  10578e:	89 55 14             	mov    %edx,0x14(%ebp)
  105791:	8b 00                	mov    (%eax),%eax
  105793:	89 45 c0             	mov    %eax,-0x40(%ebp)
  105796:	c7 45 c4 00 00 00 00 	movl   $0x0,-0x3c(%ebp)
  10579d:	8b 45 ec             	mov    -0x14(%ebp),%eax
  1057a0:	0f b6 00             	movzbl (%eax),%eax
  1057a3:	0f be c0             	movsbl %al,%eax
  1057a6:	83 e0 20             	and    $0x20,%eax
  1057a9:	85 c0                	test   %eax,%eax
  1057ab:	0f 94 c0             	sete   %al
  1057ae:	0f b6 c0             	movzbl %al,%eax
  1057b1:	83 ec 0c             	sub    $0xc,%esp
  1057b4:	ff 75 e4             	push   -0x1c(%ebp)
  1057b7:	50                   	push   %eax
  1057b8:	ff 75 d8             	push   -0x28(%ebp)
  1057bb:	ff 75 e0             	push   -0x20(%ebp)
  1057be:	ff 75 0c             	push   0xc(%ebp)
  1057c1:	ff 75 08             	push   0x8(%ebp)
  1057c4:	ff 75 e8             	push   -0x18(%ebp)
  1057c7:	ff 75 c4             	push   -0x3c(%ebp)
  1057ca:	ff 75 c0             	push   -0x40(%ebp)
  1057cd:	e8 ed f9 ff ff       	call   1051bf <print_hex>
  1057d2:	83 c4 30             	add    $0x30,%esp
  1057d5:	01 45 f0             	add    %eax,-0x10(%ebp)
  1057d8:	e9 f4 07 00 00       	jmp    105fd1 <xvasprintf+0xbdd>
  1057dd:	83 7d dc 02          	cmpl   $0x2,-0x24(%ebp)
  1057e1:	75 16                	jne    1057f9 <xvasprintf+0x405>
  1057e3:	8b 45 14             	mov    0x14(%ebp),%eax
  1057e6:	8d 50 08             	lea    0x8(%eax),%edx
  1057e9:	89 55 14             	mov    %edx,0x14(%ebp)
  1057ec:	8b 50 04             	mov    0x4(%eax),%edx
  1057ef:	8b 00                	mov    (%eax),%eax
  1057f1:	89 45 b8             	mov    %eax,-0x48(%ebp)
  1057f4:	89 55 bc             	mov    %edx,-0x44(%ebp)
  1057f7:	eb 2c                	jmp    105825 <xvasprintf+0x431>
  1057f9:	83 7d dc 01          	cmpl   $0x1,-0x24(%ebp)
  1057fd:	75 14                	jne    105813 <xvasprintf+0x41f>
  1057ff:	8b 45 14             	mov    0x14(%ebp),%eax
  105802:	8d 50 04             	lea    0x4(%eax),%edx
  105805:	89 55 14             	mov    %edx,0x14(%ebp)
  105808:	8b 00                	mov    (%eax),%eax
  10580a:	99                   	cltd   
  10580b:	89 45 b8             	mov    %eax,-0x48(%ebp)
  10580e:	89 55 bc             	mov    %edx,-0x44(%ebp)
  105811:	eb 12                	jmp    105825 <xvasprintf+0x431>
  105813:	8b 45 14             	mov    0x14(%ebp),%eax
  105816:	8d 50 04             	lea    0x4(%eax),%edx
  105819:	89 55 14             	mov    %edx,0x14(%ebp)
  10581c:	8b 00                	mov    (%eax),%eax
  10581e:	99                   	cltd   
  10581f:	89 45 b8             	mov    %eax,-0x48(%ebp)
  105822:	89 55 bc             	mov    %edx,-0x44(%ebp)
  105825:	83 7d bc 00          	cmpl   $0x0,-0x44(%ebp)
  105829:	79 20                	jns    10584b <xvasprintf+0x457>
  10582b:	83 ec 08             	sub    $0x8,%esp
  10582e:	6a 2d                	push   $0x2d
  105830:	ff 75 0c             	push   0xc(%ebp)
  105833:	8b 45 08             	mov    0x8(%ebp),%eax
  105836:	ff d0                	call   *%eax
  105838:	83 c4 10             	add    $0x10,%esp
  10583b:	83 45 f0 01          	addl   $0x1,-0x10(%ebp)
  10583f:	f7 5d b8             	negl   -0x48(%ebp)
  105842:	83 55 bc 00          	adcl   $0x0,-0x44(%ebp)
  105846:	f7 5d bc             	negl   -0x44(%ebp)
  105849:	eb 2b                	jmp    105876 <xvasprintf+0x482>
  10584b:	83 7d d4 00          	cmpl   $0x0,-0x2c(%ebp)
  10584f:	74 25                	je     105876 <xvasprintf+0x482>
  105851:	83 7d d4 02          	cmpl   $0x2,-0x2c(%ebp)
  105855:	75 07                	jne    10585e <xvasprintf+0x46a>
  105857:	b8 20 00 00 00       	mov    $0x20,%eax
  10585c:	eb 05                	jmp    105863 <xvasprintf+0x46f>
  10585e:	b8 2b 00 00 00       	mov    $0x2b,%eax
  105863:	83 ec 08             	sub    $0x8,%esp
  105866:	50                   	push   %eax
  105867:	ff 75 0c             	push   0xc(%ebp)
  10586a:	8b 45 08             	mov    0x8(%ebp),%eax
  10586d:	ff d0                	call   *%eax
  10586f:	83 c4 10             	add    $0x10,%esp
  105872:	83 45 f0 01          	addl   $0x1,-0x10(%ebp)
  105876:	8b 45 b8             	mov    -0x48(%ebp),%eax
  105879:	8b 55 bc             	mov    -0x44(%ebp),%edx
  10587c:	ff 75 d0             	push   -0x30(%ebp)
  10587f:	ff 75 e4             	push   -0x1c(%ebp)
  105882:	ff 75 e0             	push   -0x20(%ebp)
  105885:	ff 75 0c             	push   0xc(%ebp)
  105888:	ff 75 08             	push   0x8(%ebp)
  10588b:	ff 75 e8             	push   -0x18(%ebp)
  10588e:	52                   	push   %edx
  10588f:	50                   	push   %eax
  105890:	e8 14 f6 ff ff       	call   104ea9 <print_dec>
  105895:	83 c4 20             	add    $0x20,%esp
  105898:	01 45 f0             	add    %eax,-0x10(%ebp)
  10589b:	e9 31 07 00 00       	jmp    105fd1 <xvasprintf+0xbdd>
  1058a0:	83 7d dc 02          	cmpl   $0x2,-0x24(%ebp)
  1058a4:	75 16                	jne    1058bc <xvasprintf+0x4c8>
  1058a6:	8b 45 14             	mov    0x14(%ebp),%eax
  1058a9:	8d 50 08             	lea    0x8(%eax),%edx
  1058ac:	89 55 14             	mov    %edx,0x14(%ebp)
  1058af:	8b 50 04             	mov    0x4(%eax),%edx
  1058b2:	8b 00                	mov    (%eax),%eax
  1058b4:	89 45 b0             	mov    %eax,-0x50(%ebp)
  1058b7:	89 55 b4             	mov    %edx,-0x4c(%ebp)
  1058ba:	eb 32                	jmp    1058ee <xvasprintf+0x4fa>
  1058bc:	83 7d dc 01          	cmpl   $0x1,-0x24(%ebp)
  1058c0:	75 17                	jne    1058d9 <xvasprintf+0x4e5>
  1058c2:	8b 45 14             	mov    0x14(%ebp),%eax
  1058c5:	8d 50 04             	lea    0x4(%eax),%edx
  1058c8:	89 55 14             	mov    %edx,0x14(%ebp)
  1058cb:	8b 00                	mov    (%eax),%eax
  1058cd:	89 45 b0             	mov    %eax,-0x50(%ebp)
  1058d0:	c7 45 b4 00 00 00 00 	movl   $0x0,-0x4c(%ebp)
  1058d7:	eb 15                	jmp    1058ee <xvasprintf+0x4fa>
  1058d9:	8b 45 14             	mov    0x14(%ebp),%eax
  1058dc:	8d 50 04             	lea    0x4(%eax),%edx
  1058df:	89 55 14             	mov    %edx,0x14(%ebp)
  1058e2:	8b 00                	mov    (%eax),%eax
  1058e4:	89 45 b0             	mov    %eax,-0x50(%ebp)
  1058e7:	c7 45 b4 00 00 00 00 	movl   $0x0,-0x4c(%ebp)
  1058ee:	ff 75 d0             	push   -0x30(%ebp)
  1058f1:	ff 75 e4             	push   -0x1c(%ebp)
  1058f4:	ff 75 e0             	push   -0x20(%ebp)
  1058f7:	ff 75 0c             	push   0xc(%ebp)
  1058fa:	ff 75 08             	push   0x8(%ebp)
  1058fd:	ff 75 e8             	push   -0x18(%ebp)
  105900:	ff 75 b4             	push   -0x4c(%ebp)
  105903:	ff 75 b0             	push   -0x50(%ebp)
  105906:	e8 9e f5 ff ff       	call   104ea9 <print_dec>
  10590b:	83 c4 20             	add    $0x20,%esp
  10590e:	01 45 f0             	add    %eax,-0x10(%ebp)
  105911:	e9 bb 06 00 00       	jmp    105fd1 <xvasprintf+0xbdd>
  105916:	83 7d d0 ff          	cmpl   $0xffffffff,-0x30(%ebp)
  10591a:	75 07                	jne    105923 <xvasprintf+0x52f>
  10591c:	c7 45 d0 08 00 00 00 	movl   $0x8,-0x30(%ebp)
  105923:	8b 45 14             	mov    0x14(%ebp),%eax
  105926:	8d 50 08             	lea    0x8(%eax),%edx
  105929:	89 55 14             	mov    %edx,0x14(%ebp)
  10592c:	dd 00                	fldl   (%eax)
  10592e:	dd 5d 80             	fstpl  -0x80(%ebp)
  105931:	83 ec 04             	sub    $0x4,%esp
  105934:	6a 08                	push   $0x8
  105936:	8d 45 80             	lea    -0x80(%ebp),%eax
  105939:	50                   	push   %eax
  10593a:	8d 85 78 ff ff ff    	lea    -0x88(%ebp),%eax
  105940:	50                   	push   %eax
  105941:	e8 72 08 00 00       	call   1061b8 <memcpy>
  105946:	83 c4 10             	add    $0x10,%esp
  105949:	8b 85 78 ff ff ff    	mov    -0x88(%ebp),%eax
  10594f:	8b 95 7c ff ff ff    	mov    -0x84(%ebp),%edx
  105955:	89 d0                	mov    %edx,%eax
  105957:	31 d2                	xor    %edx,%edx
  105959:	c1 e8 14             	shr    $0x14,%eax
  10595c:	25 ff 07 00 00       	and    $0x7ff,%eax
  105961:	ba 00 00 00 00       	mov    $0x0,%edx
  105966:	89 45 a0             	mov    %eax,-0x60(%ebp)
  105969:	89 55 a4             	mov    %edx,-0x5c(%ebp)
  10596c:	8b 85 78 ff ff ff    	mov    -0x88(%ebp),%eax
  105972:	8b 95 7c ff ff ff    	mov    -0x84(%ebp),%edx
  105978:	81 e2 ff ff 0f 00    	and    $0xfffff,%edx
  10597e:	89 45 98             	mov    %eax,-0x68(%ebp)
  105981:	89 55 9c             	mov    %edx,-0x64(%ebp)
  105984:	8b 45 a0             	mov    -0x60(%ebp),%eax
  105987:	35 ff 07 00 00       	xor    $0x7ff,%eax
  10598c:	0b 45 a4             	or     -0x5c(%ebp),%eax
  10598f:	0f 85 ae 00 00 00    	jne    105a43 <xvasprintf+0x64f>
  105995:	8b 45 98             	mov    -0x68(%ebp),%eax
  105998:	0b 45 9c             	or     -0x64(%ebp),%eax
  10599b:	75 65                	jne    105a02 <xvasprintf+0x60e>
  10599d:	8b 85 78 ff ff ff    	mov    -0x88(%ebp),%eax
  1059a3:	8b 95 7c ff ff ff    	mov    -0x84(%ebp),%edx
  1059a9:	85 d2                	test   %edx,%edx
  1059ab:	79 14                	jns    1059c1 <xvasprintf+0x5cd>
  1059ad:	83 ec 08             	sub    $0x8,%esp
  1059b0:	6a 2d                	push   $0x2d
  1059b2:	ff 75 0c             	push   0xc(%ebp)
  1059b5:	8b 45 08             	mov    0x8(%ebp),%eax
  1059b8:	ff d0                	call   *%eax
  1059ba:	83 c4 10             	add    $0x10,%esp
  1059bd:	83 45 f0 01          	addl   $0x1,-0x10(%ebp)
  1059c1:	83 ec 08             	sub    $0x8,%esp
  1059c4:	6a 69                	push   $0x69
  1059c6:	ff 75 0c             	push   0xc(%ebp)
  1059c9:	8b 45 08             	mov    0x8(%ebp),%eax
  1059cc:	ff d0                	call   *%eax
  1059ce:	83 c4 10             	add    $0x10,%esp
  1059d1:	83 45 f0 01          	addl   $0x1,-0x10(%ebp)
  1059d5:	83 ec 08             	sub    $0x8,%esp
  1059d8:	6a 6e                	push   $0x6e
  1059da:	ff 75 0c             	push   0xc(%ebp)
  1059dd:	8b 45 08             	mov    0x8(%ebp),%eax
  1059e0:	ff d0                	call   *%eax
  1059e2:	83 c4 10             	add    $0x10,%esp
  1059e5:	83 45 f0 01          	addl   $0x1,-0x10(%ebp)
  1059e9:	83 ec 08             	sub    $0x8,%esp
  1059ec:	6a 66                	push   $0x66
  1059ee:	ff 75 0c             	push   0xc(%ebp)
  1059f1:	8b 45 08             	mov    0x8(%ebp),%eax
  1059f4:	ff d0                	call   *%eax
  1059f6:	83 c4 10             	add    $0x10,%esp
  1059f9:	83 45 f0 01          	addl   $0x1,-0x10(%ebp)
  1059fd:	e9 cf 05 00 00       	jmp    105fd1 <xvasprintf+0xbdd>
  105a02:	83 ec 08             	sub    $0x8,%esp
  105a05:	6a 6e                	push   $0x6e
  105a07:	ff 75 0c             	push   0xc(%ebp)
  105a0a:	8b 45 08             	mov    0x8(%ebp),%eax
  105a0d:	ff d0                	call   *%eax
  105a0f:	83 c4 10             	add    $0x10,%esp
  105a12:	83 45 f0 01          	addl   $0x1,-0x10(%ebp)
  105a16:	83 ec 08             	sub    $0x8,%esp
  105a19:	6a 61                	push   $0x61
  105a1b:	ff 75 0c             	push   0xc(%ebp)
  105a1e:	8b 45 08             	mov    0x8(%ebp),%eax
  105a21:	ff d0                	call   *%eax
  105a23:	83 c4 10             	add    $0x10,%esp
  105a26:	83 45 f0 01          	addl   $0x1,-0x10(%ebp)
  105a2a:	83 ec 08             	sub    $0x8,%esp
  105a2d:	6a 6e                	push   $0x6e
  105a2f:	ff 75 0c             	push   0xc(%ebp)
  105a32:	8b 45 08             	mov    0x8(%ebp),%eax
  105a35:	ff d0                	call   *%eax
  105a37:	83 c4 10             	add    $0x10,%esp
  105a3a:	83 45 f0 01          	addl   $0x1,-0x10(%ebp)
  105a3e:	e9 8e 05 00 00       	jmp    105fd1 <xvasprintf+0xbdd>
  105a43:	8b 45 ec             	mov    -0x14(%ebp),%eax
  105a46:	0f b6 00             	movzbl (%eax),%eax
  105a49:	3c 67                	cmp    $0x67,%al
  105a4b:	74 0a                	je     105a57 <xvasprintf+0x663>
  105a4d:	8b 45 ec             	mov    -0x14(%ebp),%eax
  105a50:	0f b6 00             	movzbl (%eax),%eax
  105a53:	3c 47                	cmp    $0x47,%al
  105a55:	75 4d                	jne    105aa4 <xvasprintf+0x6b0>
  105a57:	8b 45 a0             	mov    -0x60(%ebp),%eax
  105a5a:	0b 45 a4             	or     -0x5c(%ebp),%eax
  105a5d:	75 45                	jne    105aa4 <xvasprintf+0x6b0>
  105a5f:	8b 45 98             	mov    -0x68(%ebp),%eax
  105a62:	0b 45 9c             	or     -0x64(%ebp),%eax
  105a65:	75 3d                	jne    105aa4 <xvasprintf+0x6b0>
  105a67:	8b 85 78 ff ff ff    	mov    -0x88(%ebp),%eax
  105a6d:	8b 95 7c ff ff ff    	mov    -0x84(%ebp),%edx
  105a73:	85 d2                	test   %edx,%edx
  105a75:	79 14                	jns    105a8b <xvasprintf+0x697>
  105a77:	83 ec 08             	sub    $0x8,%esp
  105a7a:	6a 2d                	push   $0x2d
  105a7c:	ff 75 0c             	push   0xc(%ebp)
  105a7f:	8b 45 08             	mov    0x8(%ebp),%eax
  105a82:	ff d0                	call   *%eax
  105a84:	83 c4 10             	add    $0x10,%esp
  105a87:	83 45 f0 01          	addl   $0x1,-0x10(%ebp)
  105a8b:	83 ec 08             	sub    $0x8,%esp
  105a8e:	6a 30                	push   $0x30
  105a90:	ff 75 0c             	push   0xc(%ebp)
  105a93:	8b 45 08             	mov    0x8(%ebp),%eax
  105a96:	ff d0                	call   *%eax
  105a98:	83 c4 10             	add    $0x10,%esp
  105a9b:	83 45 f0 01          	addl   $0x1,-0x10(%ebp)
  105a9f:	e9 2d 05 00 00       	jmp    105fd1 <xvasprintf+0xbdd>
  105aa4:	8b 85 78 ff ff ff    	mov    -0x88(%ebp),%eax
  105aaa:	8b 95 7c ff ff ff    	mov    -0x84(%ebp),%edx
  105ab0:	89 d0                	mov    %edx,%eax
  105ab2:	31 d2                	xor    %edx,%edx
  105ab4:	c1 e8 1f             	shr    $0x1f,%eax
  105ab7:	0f b6 c0             	movzbl %al,%eax
  105aba:	89 45 94             	mov    %eax,-0x6c(%ebp)
  105abd:	83 7d 94 00          	cmpl   $0x0,-0x6c(%ebp)
  105ac1:	74 1c                	je     105adf <xvasprintf+0x6eb>
  105ac3:	83 ec 08             	sub    $0x8,%esp
  105ac6:	6a 2d                	push   $0x2d
  105ac8:	ff 75 0c             	push   0xc(%ebp)
  105acb:	8b 45 08             	mov    0x8(%ebp),%eax
  105ace:	ff d0                	call   *%eax
  105ad0:	83 c4 10             	add    $0x10,%esp
  105ad3:	83 45 f0 01          	addl   $0x1,-0x10(%ebp)
  105ad7:	dd 45 80             	fldl   -0x80(%ebp)
  105ada:	d9 e0                	fchs   
  105adc:	dd 5d 80             	fstpl  -0x80(%ebp)
  105adf:	dd 05 00 9a 10 00    	fldl   0x109a00
  105ae5:	dd 45 80             	fldl   -0x80(%ebp)
  105ae8:	db f1                	fcomi  %st(1),%st
  105aea:	dd d9                	fstp   %st(1)
  105aec:	73 37                	jae    105b25 <xvasprintf+0x731>
  105aee:	d9 bd 76 ff ff ff    	fnstcw -0x8a(%ebp)
  105af4:	0f b7 85 76 ff ff ff 	movzwl -0x8a(%ebp),%eax
  105afb:	80 cc 0c             	or     $0xc,%ah
  105afe:	66 89 85 74 ff ff ff 	mov    %ax,-0x8c(%ebp)
  105b05:	d9 ad 74 ff ff ff    	fldcw  -0x8c(%ebp)
  105b0b:	df bd 68 ff ff ff    	fistpll -0x98(%ebp)
  105b11:	d9 ad 76 ff ff ff    	fldcw  -0x8a(%ebp)
  105b17:	8b 85 68 ff ff ff    	mov    -0x98(%ebp),%eax
  105b1d:	8b 95 6c ff ff ff    	mov    -0x94(%ebp),%edx
  105b23:	eb 43                	jmp    105b68 <xvasprintf+0x774>
  105b25:	dd 05 00 9a 10 00    	fldl   0x109a00
  105b2b:	de e9                	fsubrp %st,%st(1)
  105b2d:	d9 bd 76 ff ff ff    	fnstcw -0x8a(%ebp)
  105b33:	0f b7 85 76 ff ff ff 	movzwl -0x8a(%ebp),%eax
  105b3a:	80 cc 0c             	or     $0xc,%ah
  105b3d:	66 89 85 74 ff ff ff 	mov    %ax,-0x8c(%ebp)
  105b44:	d9 ad 74 ff ff ff    	fldcw  -0x8c(%ebp)
  105b4a:	df bd 68 ff ff ff    	fistpll -0x98(%ebp)
  105b50:	d9 ad 76 ff ff ff    	fldcw  -0x8a(%ebp)
  105b56:	8b 85 68 ff ff ff    	mov    -0x98(%ebp),%eax
  105b5c:	8b 95 6c ff ff ff    	mov    -0x94(%ebp),%edx
  105b62:	81 f2 00 00 00 80    	xor    $0x80000000,%edx
  105b68:	6a 01                	push   $0x1
  105b6a:	ff 75 e4             	push   -0x1c(%ebp)
  105b6d:	ff 75 e0             	push   -0x20(%ebp)
  105b70:	ff 75 0c             	push   0xc(%ebp)
  105b73:	ff 75 08             	push   0x8(%ebp)
  105b76:	ff 75 e8             	push   -0x18(%ebp)
  105b79:	52                   	push   %edx
  105b7a:	50                   	push   %eax
  105b7b:	e8 29 f3 ff ff       	call   104ea9 <print_dec>
  105b80:	83 c4 20             	add    $0x20,%esp
  105b83:	01 45 f0             	add    %eax,-0x10(%ebp)
  105b86:	83 ec 08             	sub    $0x8,%esp
  105b89:	6a 2e                	push   $0x2e
  105b8b:	ff 75 0c             	push   0xc(%ebp)
  105b8e:	8b 45 08             	mov    0x8(%ebp),%eax
  105b91:	ff d0                	call   *%eax
  105b93:	83 c4 10             	add    $0x10,%esp
  105b96:	83 45 f0 01          	addl   $0x1,-0x10(%ebp)
  105b9a:	c7 45 ac 00 00 00 00 	movl   $0x0,-0x54(%ebp)
  105ba1:	e9 d4 03 00 00       	jmp    105f7a <xvasprintf+0xb86>
  105ba6:	dd 45 80             	fldl   -0x80(%ebp)
  105ba9:	dd 05 08 9a 10 00    	fldl   0x109a08
  105baf:	de c9                	fmulp  %st,%st(1)
  105bb1:	dd 05 00 9a 10 00    	fldl   0x109a00
  105bb7:	d9 c9                	fxch   %st(1)
  105bb9:	db f1                	fcomi  %st(1),%st
  105bbb:	dd d9                	fstp   %st(1)
  105bbd:	73 37                	jae    105bf6 <xvasprintf+0x802>
  105bbf:	d9 bd 76 ff ff ff    	fnstcw -0x8a(%ebp)
  105bc5:	0f b7 85 76 ff ff ff 	movzwl -0x8a(%ebp),%eax
  105bcc:	80 cc 0c             	or     $0xc,%ah
  105bcf:	66 89 85 74 ff ff ff 	mov    %ax,-0x8c(%ebp)
  105bd6:	d9 ad 74 ff ff ff    	fldcw  -0x8c(%ebp)
  105bdc:	df bd 68 ff ff ff    	fistpll -0x98(%ebp)
  105be2:	d9 ad 76 ff ff ff    	fldcw  -0x8a(%ebp)
  105be8:	8b 85 68 ff ff ff    	mov    -0x98(%ebp),%eax
  105bee:	8b 95 6c ff ff ff    	mov    -0x94(%ebp),%edx
  105bf4:	eb 43                	jmp    105c39 <xvasprintf+0x845>
  105bf6:	dd 05 00 9a 10 00    	fldl   0x109a00
  105bfc:	de e9                	fsubrp %st,%st(1)
  105bfe:	d9 bd 76 ff ff ff    	fnstcw -0x8a(%ebp)
  105c04:	0f b7 85 76 ff ff ff 	movzwl -0x8a(%ebp),%eax
  105c0b:	80 cc 0c             	or     $0xc,%ah
  105c0e:	66 89 85 74 ff ff ff 	mov    %ax,-0x8c(%ebp)
  105c15:	d9 ad 74 ff ff ff    	fldcw  -0x8c(%ebp)
  105c1b:	df bd 68 ff ff ff    	fistpll -0x98(%ebp)
  105c21:	d9 ad 76 ff ff ff    	fldcw  -0x8a(%ebp)
  105c27:	8b 85 68 ff ff ff    	mov    -0x98(%ebp),%eax
  105c2d:	8b 95 6c ff ff ff    	mov    -0x94(%ebp),%edx
  105c33:	81 f2 00 00 00 80    	xor    $0x80000000,%edx
  105c39:	6a 00                	push   $0x0
  105c3b:	68 a0 86 01 00       	push   $0x186a0
  105c40:	52                   	push   %edx
  105c41:	50                   	push   %eax
  105c42:	e8 09 16 00 00       	call   107250 <__umoddi3>
  105c47:	83 c4 10             	add    $0x10,%esp
  105c4a:	89 c1                	mov    %eax,%ecx
  105c4c:	09 d1                	or     %edx,%ecx
  105c4e:	75 0a                	jne    105c5a <xvasprintf+0x866>
  105c50:	83 7d ac 00          	cmpl   $0x0,-0x54(%ebp)
  105c54:	0f 85 41 03 00 00    	jne    105f9b <xvasprintf+0xba7>
  105c5a:	dd 45 80             	fldl   -0x80(%ebp)
  105c5d:	dd 05 00 9a 10 00    	fldl   0x109a00
  105c63:	dd 45 80             	fldl   -0x80(%ebp)
  105c66:	db f1                	fcomi  %st(1),%st
  105c68:	dd d9                	fstp   %st(1)
  105c6a:	73 2b                	jae    105c97 <xvasprintf+0x8a3>
  105c6c:	d9 bd 76 ff ff ff    	fnstcw -0x8a(%ebp)
  105c72:	0f b7 85 76 ff ff ff 	movzwl -0x8a(%ebp),%eax
  105c79:	80 cc 0c             	or     $0xc,%ah
  105c7c:	66 89 85 74 ff ff ff 	mov    %ax,-0x8c(%ebp)
  105c83:	d9 ad 74 ff ff ff    	fldcw  -0x8c(%ebp)
  105c89:	df bd 68 ff ff ff    	fistpll -0x98(%ebp)
  105c8f:	d9 ad 76 ff ff ff    	fldcw  -0x8a(%ebp)
  105c95:	eb 3b                	jmp    105cd2 <xvasprintf+0x8de>
  105c97:	dd 05 00 9a 10 00    	fldl   0x109a00
  105c9d:	de e9                	fsubrp %st,%st(1)
  105c9f:	d9 bd 76 ff ff ff    	fnstcw -0x8a(%ebp)
  105ca5:	0f b7 85 76 ff ff ff 	movzwl -0x8a(%ebp),%eax
  105cac:	80 cc 0c             	or     $0xc,%ah
  105caf:	66 89 85 74 ff ff ff 	mov    %ax,-0x8c(%ebp)
  105cb6:	d9 ad 74 ff ff ff    	fldcw  -0x8c(%ebp)
  105cbc:	df bd 68 ff ff ff    	fistpll -0x98(%ebp)
  105cc2:	d9 ad 76 ff ff ff    	fldcw  -0x8a(%ebp)
  105cc8:	81 b5 6c ff ff ff 00 	xorl   $0x80000000,-0x94(%ebp)
  105ccf:	00 00 80 
  105cd2:	df ad 68 ff ff ff    	fildll -0x98(%ebp)
  105cd8:	83 bd 6c ff ff ff 00 	cmpl   $0x0,-0x94(%ebp)
  105cdf:	79 08                	jns    105ce9 <xvasprintf+0x8f5>
  105ce1:	db 2d 10 9a 10 00    	fldt   0x109a10
  105ce7:	de c1                	faddp  %st,%st(1)
  105ce9:	dd 9d 68 ff ff ff    	fstpl  -0x98(%ebp)
  105cef:	dd 85 68 ff ff ff    	fldl   -0x98(%ebp)
  105cf5:	de e9                	fsubrp %st,%st(1)
  105cf7:	dd 5d 80             	fstpl  -0x80(%ebp)
  105cfa:	dd 45 80             	fldl   -0x80(%ebp)
  105cfd:	dd 05 20 9a 10 00    	fldl   0x109a20
  105d03:	de c9                	fmulp  %st,%st(1)
  105d05:	dd 5d 80             	fstpl  -0x80(%ebp)
  105d08:	dd 45 80             	fldl   -0x80(%ebp)
  105d0b:	dd 05 00 9a 10 00    	fldl   0x109a00
  105d11:	dd 45 80             	fldl   -0x80(%ebp)
  105d14:	db f1                	fcomi  %st(1),%st
  105d16:	dd d9                	fstp   %st(1)
  105d18:	73 14                	jae    105d2e <xvasprintf+0x93a>
  105d1a:	d9 ad 74 ff ff ff    	fldcw  -0x8c(%ebp)
  105d20:	df bd 68 ff ff ff    	fistpll -0x98(%ebp)
  105d26:	d9 ad 76 ff ff ff    	fldcw  -0x8a(%ebp)
  105d2c:	eb 24                	jmp    105d52 <xvasprintf+0x95e>
  105d2e:	dd 05 00 9a 10 00    	fldl   0x109a00
  105d34:	de e9                	fsubrp %st,%st(1)
  105d36:	d9 ad 74 ff ff ff    	fldcw  -0x8c(%ebp)
  105d3c:	df bd 68 ff ff ff    	fistpll -0x98(%ebp)
  105d42:	d9 ad 76 ff ff ff    	fldcw  -0x8a(%ebp)
  105d48:	81 b5 6c ff ff ff 00 	xorl   $0x80000000,-0x94(%ebp)
  105d4f:	00 00 80 
  105d52:	df ad 68 ff ff ff    	fildll -0x98(%ebp)
  105d58:	83 bd 6c ff ff ff 00 	cmpl   $0x0,-0x94(%ebp)
  105d5f:	79 08                	jns    105d69 <xvasprintf+0x975>
  105d61:	db 2d 10 9a 10 00    	fldt   0x109a10
  105d67:	de c1                	faddp  %st,%st(1)
  105d69:	dd 9d 68 ff ff ff    	fstpl  -0x98(%ebp)
  105d6f:	dd 85 68 ff ff ff    	fldl   -0x98(%ebp)
  105d75:	de e9                	fsubrp %st,%st(1)
  105d77:	dd 05 28 9a 10 00    	fldl   0x109a28
  105d7d:	de e9                	fsubrp %st,%st(1)
  105d7f:	dd 5d 88             	fstpl  -0x78(%ebp)
  105d82:	dd 45 88             	fldl   -0x78(%ebp)
  105d85:	dd 05 30 9a 10 00    	fldl   0x109a30
  105d8b:	df f1                	fcomip %st(1),%st
  105d8d:	dd d8                	fstp   %st(0)
  105d8f:	0f 86 5d 01 00 00    	jbe    105ef2 <xvasprintf+0xafe>
  105d95:	dd 05 38 9a 10 00    	fldl   0x109a38
  105d9b:	dd 45 88             	fldl   -0x78(%ebp)
  105d9e:	df f1                	fcomip %st(1),%st
  105da0:	dd d8                	fstp   %st(0)
  105da2:	0f 86 4a 01 00 00    	jbe    105ef2 <xvasprintf+0xafe>
  105da8:	dd 05 00 9a 10 00    	fldl   0x109a00
  105dae:	dd 45 80             	fldl   -0x80(%ebp)
  105db1:	db f1                	fcomi  %st(1),%st
  105db3:	dd d9                	fstp   %st(1)
  105db5:	73 20                	jae    105dd7 <xvasprintf+0x9e3>
  105db7:	d9 ad 74 ff ff ff    	fldcw  -0x8c(%ebp)
  105dbd:	df bd 68 ff ff ff    	fistpll -0x98(%ebp)
  105dc3:	d9 ad 76 ff ff ff    	fldcw  -0x8a(%ebp)
  105dc9:	8b 85 68 ff ff ff    	mov    -0x98(%ebp),%eax
  105dcf:	8b 95 6c ff ff ff    	mov    -0x94(%ebp),%edx
  105dd5:	eb 2c                	jmp    105e03 <xvasprintf+0xa0f>
  105dd7:	dd 05 00 9a 10 00    	fldl   0x109a00
  105ddd:	de e9                	fsubrp %st,%st(1)
  105ddf:	d9 ad 74 ff ff ff    	fldcw  -0x8c(%ebp)
  105de5:	df bd 68 ff ff ff    	fistpll -0x98(%ebp)
  105deb:	d9 ad 76 ff ff ff    	fldcw  -0x8a(%ebp)
  105df1:	8b 85 68 ff ff ff    	mov    -0x98(%ebp),%eax
  105df7:	8b 95 6c ff ff ff    	mov    -0x94(%ebp),%edx
  105dfd:	81 f2 00 00 00 80    	xor    $0x80000000,%edx
  105e03:	6a 00                	push   $0x0
  105e05:	6a 0a                	push   $0xa
  105e07:	52                   	push   %edx
  105e08:	50                   	push   %eax
  105e09:	e8 42 14 00 00       	call   107250 <__umoddi3>
  105e0e:	83 c4 10             	add    $0x10,%esp
  105e11:	89 c1                	mov    %eax,%ecx
  105e13:	83 f1 09             	xor    $0x9,%ecx
  105e16:	09 d1                	or     %edx,%ecx
  105e18:	0f 84 bd 00 00 00    	je     105edb <xvasprintf+0xae7>
  105e1e:	dd 05 00 9a 10 00    	fldl   0x109a00
  105e24:	dd 45 80             	fldl   -0x80(%ebp)
  105e27:	db f1                	fcomi  %st(1),%st
  105e29:	dd d9                	fstp   %st(1)
  105e2b:	73 37                	jae    105e64 <xvasprintf+0xa70>
  105e2d:	d9 bd 76 ff ff ff    	fnstcw -0x8a(%ebp)
  105e33:	0f b7 85 76 ff ff ff 	movzwl -0x8a(%ebp),%eax
  105e3a:	80 cc 0c             	or     $0xc,%ah
  105e3d:	66 89 85 74 ff ff ff 	mov    %ax,-0x8c(%ebp)
  105e44:	d9 ad 74 ff ff ff    	fldcw  -0x8c(%ebp)
  105e4a:	df bd 68 ff ff ff    	fistpll -0x98(%ebp)
  105e50:	d9 ad 76 ff ff ff    	fldcw  -0x8a(%ebp)
  105e56:	8b 85 68 ff ff ff    	mov    -0x98(%ebp),%eax
  105e5c:	8b 95 6c ff ff ff    	mov    -0x94(%ebp),%edx
  105e62:	eb 43                	jmp    105ea7 <xvasprintf+0xab3>
  105e64:	dd 05 00 9a 10 00    	fldl   0x109a00
  105e6a:	de e9                	fsubrp %st,%st(1)
  105e6c:	d9 bd 76 ff ff ff    	fnstcw -0x8a(%ebp)
  105e72:	0f b7 85 76 ff ff ff 	movzwl -0x8a(%ebp),%eax
  105e79:	80 cc 0c             	or     $0xc,%ah
  105e7c:	66 89 85 74 ff ff ff 	mov    %ax,-0x8c(%ebp)
  105e83:	d9 ad 74 ff ff ff    	fldcw  -0x8c(%ebp)
  105e89:	df bd 68 ff ff ff    	fistpll -0x98(%ebp)
  105e8f:	d9 ad 76 ff ff ff    	fldcw  -0x8a(%ebp)
  105e95:	8b 85 68 ff ff ff    	mov    -0x98(%ebp),%eax
  105e9b:	8b 95 6c ff ff ff    	mov    -0x94(%ebp),%edx
  105ea1:	81 f2 00 00 00 80    	xor    $0x80000000,%edx
  105ea7:	6a 00                	push   $0x0
  105ea9:	6a 0a                	push   $0xa
  105eab:	52                   	push   %edx
  105eac:	50                   	push   %eax
  105ead:	e8 9e 13 00 00       	call   107250 <__umoddi3>
  105eb2:	83 c4 10             	add    $0x10,%esp
  105eb5:	83 c0 01             	add    $0x1,%eax
  105eb8:	83 d2 00             	adc    $0x0,%edx
  105ebb:	6a 01                	push   $0x1
  105ebd:	6a 00                	push   $0x0
  105ebf:	6a 00                	push   $0x0
  105ec1:	ff 75 0c             	push   0xc(%ebp)
  105ec4:	ff 75 08             	push   0x8(%ebp)
  105ec7:	6a 00                	push   $0x0
  105ec9:	52                   	push   %edx
  105eca:	50                   	push   %eax
  105ecb:	e8 d9 ef ff ff       	call   104ea9 <print_dec>
  105ed0:	83 c4 20             	add    $0x20,%esp
  105ed3:	01 45 f0             	add    %eax,-0x10(%ebp)
  105ed6:	e9 c1 00 00 00       	jmp    105f9c <xvasprintf+0xba8>
  105edb:	d9 bd 76 ff ff ff    	fnstcw -0x8a(%ebp)
  105ee1:	0f b7 85 76 ff ff ff 	movzwl -0x8a(%ebp),%eax
  105ee8:	80 cc 0c             	or     $0xc,%ah
  105eeb:	66 89 85 74 ff ff ff 	mov    %ax,-0x8c(%ebp)
  105ef2:	dd 05 00 9a 10 00    	fldl   0x109a00
  105ef8:	dd 45 80             	fldl   -0x80(%ebp)
  105efb:	db f1                	fcomi  %st(1),%st
  105efd:	dd d9                	fstp   %st(1)
  105eff:	73 20                	jae    105f21 <xvasprintf+0xb2d>
  105f01:	d9 ad 74 ff ff ff    	fldcw  -0x8c(%ebp)
  105f07:	df bd 68 ff ff ff    	fistpll -0x98(%ebp)
  105f0d:	d9 ad 76 ff ff ff    	fldcw  -0x8a(%ebp)
  105f13:	8b 85 68 ff ff ff    	mov    -0x98(%ebp),%eax
  105f19:	8b 95 6c ff ff ff    	mov    -0x94(%ebp),%edx
  105f1f:	eb 2c                	jmp    105f4d <xvasprintf+0xb59>
  105f21:	dd 05 00 9a 10 00    	fldl   0x109a00
  105f27:	de e9                	fsubrp %st,%st(1)
  105f29:	d9 ad 74 ff ff ff    	fldcw  -0x8c(%ebp)
  105f2f:	df bd 68 ff ff ff    	fistpll -0x98(%ebp)
  105f35:	d9 ad 76 ff ff ff    	fldcw  -0x8a(%ebp)
  105f3b:	8b 85 68 ff ff ff    	mov    -0x98(%ebp),%eax
  105f41:	8b 95 6c ff ff ff    	mov    -0x94(%ebp),%edx
  105f47:	81 f2 00 00 00 80    	xor    $0x80000000,%edx
  105f4d:	6a 00                	push   $0x0
  105f4f:	6a 0a                	push   $0xa
  105f51:	52                   	push   %edx
  105f52:	50                   	push   %eax
  105f53:	e8 f8 12 00 00       	call   107250 <__umoddi3>
  105f58:	83 c4 10             	add    $0x10,%esp
  105f5b:	6a 01                	push   $0x1
  105f5d:	6a 00                	push   $0x0
  105f5f:	6a 00                	push   $0x0
  105f61:	ff 75 0c             	push   0xc(%ebp)
  105f64:	ff 75 08             	push   0x8(%ebp)
  105f67:	6a 00                	push   $0x0
  105f69:	52                   	push   %edx
  105f6a:	50                   	push   %eax
  105f6b:	e8 39 ef ff ff       	call   104ea9 <print_dec>
  105f70:	83 c4 20             	add    $0x20,%esp
  105f73:	01 45 f0             	add    %eax,-0x10(%ebp)
  105f76:	83 45 ac 01          	addl   $0x1,-0x54(%ebp)
  105f7a:	83 7d d0 00          	cmpl   $0x0,-0x30(%ebp)
  105f7e:	78 0b                	js     105f8b <xvasprintf+0xb97>
  105f80:	83 7d d0 0f          	cmpl   $0xf,-0x30(%ebp)
  105f84:	7f 05                	jg     105f8b <xvasprintf+0xb97>
  105f86:	8b 45 d0             	mov    -0x30(%ebp),%eax
  105f89:	eb 05                	jmp    105f90 <xvasprintf+0xb9c>
  105f8b:	b8 10 00 00 00       	mov    $0x10,%eax
  105f90:	3b 45 ac             	cmp    -0x54(%ebp),%eax
  105f93:	0f 8f 0d fc ff ff    	jg     105ba6 <xvasprintf+0x7b2>
  105f99:	eb 36                	jmp    105fd1 <xvasprintf+0xbdd>
  105f9b:	90                   	nop
  105f9c:	eb 33                	jmp    105fd1 <xvasprintf+0xbdd>
  105f9e:	83 ec 08             	sub    $0x8,%esp
  105fa1:	6a 25                	push   $0x25
  105fa3:	ff 75 0c             	push   0xc(%ebp)
  105fa6:	8b 45 08             	mov    0x8(%ebp),%eax
  105fa9:	ff d0                	call   *%eax
  105fab:	83 c4 10             	add    $0x10,%esp
  105fae:	83 45 f0 01          	addl   $0x1,-0x10(%ebp)
  105fb2:	eb 1d                	jmp    105fd1 <xvasprintf+0xbdd>
  105fb4:	8b 45 ec             	mov    -0x14(%ebp),%eax
  105fb7:	0f b6 00             	movzbl (%eax),%eax
  105fba:	0f be c0             	movsbl %al,%eax
  105fbd:	83 ec 08             	sub    $0x8,%esp
  105fc0:	50                   	push   %eax
  105fc1:	ff 75 0c             	push   0xc(%ebp)
  105fc4:	8b 45 08             	mov    0x8(%ebp),%eax
  105fc7:	ff d0                	call   *%eax
  105fc9:	83 c4 10             	add    $0x10,%esp
  105fcc:	83 45 f0 01          	addl   $0x1,-0x10(%ebp)
  105fd0:	90                   	nop
  105fd1:	83 45 ec 01          	addl   $0x1,-0x14(%ebp)
  105fd5:	8b 45 ec             	mov    -0x14(%ebp),%eax
  105fd8:	0f b6 00             	movzbl (%eax),%eax
  105fdb:	84 c0                	test   %al,%al
  105fdd:	0f 85 2c f4 ff ff    	jne    10540f <xvasprintf+0x1b>
  105fe3:	8b 45 f0             	mov    -0x10(%ebp),%eax
  105fe6:	c9                   	leave  
  105fe7:	c3                   	ret    

00105fe8 <cb_sprintf>:
  105fe8:	55                   	push   %ebp
  105fe9:	89 e5                	mov    %esp,%ebp
  105feb:	83 ec 14             	sub    $0x14,%esp
  105fee:	8b 45 0c             	mov    0xc(%ebp),%eax
  105ff1:	88 45 ec             	mov    %al,-0x14(%ebp)
  105ff4:	8b 45 08             	mov    0x8(%ebp),%eax
  105ff7:	89 45 fc             	mov    %eax,-0x4(%ebp)
  105ffa:	8b 45 fc             	mov    -0x4(%ebp),%eax
  105ffd:	8b 40 04             	mov    0x4(%eax),%eax
  106000:	8b 55 fc             	mov    -0x4(%ebp),%edx
  106003:	8b 52 08             	mov    0x8(%edx),%edx
  106006:	83 c2 01             	add    $0x1,%edx
  106009:	39 c2                	cmp    %eax,%edx
  10600b:	73 42                	jae    10604f <cb_sprintf+0x67>
  10600d:	8b 45 fc             	mov    -0x4(%ebp),%eax
  106010:	8b 10                	mov    (%eax),%edx
  106012:	8b 45 fc             	mov    -0x4(%ebp),%eax
  106015:	8b 40 08             	mov    0x8(%eax),%eax
  106018:	01 c2                	add    %eax,%edx
  10601a:	0f b6 45 ec          	movzbl -0x14(%ebp),%eax
  10601e:	88 02                	mov    %al,(%edx)
  106020:	8b 45 fc             	mov    -0x4(%ebp),%eax
  106023:	8b 40 08             	mov    0x8(%eax),%eax
  106026:	8d 50 01             	lea    0x1(%eax),%edx
  106029:	8b 45 fc             	mov    -0x4(%ebp),%eax
  10602c:	89 50 08             	mov    %edx,0x8(%eax)
  10602f:	8b 45 fc             	mov    -0x4(%ebp),%eax
  106032:	8b 50 08             	mov    0x8(%eax),%edx
  106035:	8b 45 fc             	mov    -0x4(%ebp),%eax
  106038:	8b 40 04             	mov    0x4(%eax),%eax
  10603b:	39 c2                	cmp    %eax,%edx
  10603d:	73 10                	jae    10604f <cb_sprintf+0x67>
  10603f:	8b 45 fc             	mov    -0x4(%ebp),%eax
  106042:	8b 10                	mov    (%eax),%edx
  106044:	8b 45 fc             	mov    -0x4(%ebp),%eax
  106047:	8b 40 08             	mov    0x8(%eax),%eax
  10604a:	01 d0                	add    %edx,%eax
  10604c:	c6 00 00             	movb   $0x0,(%eax)
  10604f:	b8 00 00 00 00       	mov    $0x0,%eax
  106054:	c9                   	leave  
  106055:	c3                   	ret    

00106056 <vsnprintf>:
  106056:	55                   	push   %ebp
  106057:	89 e5                	mov    %esp,%ebp
  106059:	83 ec 18             	sub    $0x18,%esp
  10605c:	8b 45 08             	mov    0x8(%ebp),%eax
  10605f:	89 45 e8             	mov    %eax,-0x18(%ebp)
  106062:	8b 45 0c             	mov    0xc(%ebp),%eax
  106065:	89 45 ec             	mov    %eax,-0x14(%ebp)
  106068:	c7 45 f0 00 00 00 00 	movl   $0x0,-0x10(%ebp)
  10606f:	ff 75 14             	push   0x14(%ebp)
  106072:	ff 75 10             	push   0x10(%ebp)
  106075:	8d 45 e8             	lea    -0x18(%ebp),%eax
  106078:	50                   	push   %eax
  106079:	68 e8 5f 10 00       	push   $0x105fe8
  10607e:	e8 71 f3 ff ff       	call   1053f4 <xvasprintf>
  106083:	83 c4 10             	add    $0x10,%esp
  106086:	89 45 f4             	mov    %eax,-0xc(%ebp)
  106089:	83 ec 08             	sub    $0x8,%esp
  10608c:	6a 00                	push   $0x0
  10608e:	8d 45 e8             	lea    -0x18(%ebp),%eax
  106091:	50                   	push   %eax
  106092:	e8 51 ff ff ff       	call   105fe8 <cb_sprintf>
  106097:	83 c4 10             	add    $0x10,%esp
  10609a:	8b 45 f4             	mov    -0xc(%ebp),%eax
  10609d:	c9                   	leave  
  10609e:	c3                   	ret    

0010609f <snprintf>:
  10609f:	55                   	push   %ebp
  1060a0:	89 e5                	mov    %esp,%ebp
  1060a2:	83 ec 28             	sub    $0x28,%esp
  1060a5:	8b 45 08             	mov    0x8(%ebp),%eax
  1060a8:	89 45 e8             	mov    %eax,-0x18(%ebp)
  1060ab:	8b 45 0c             	mov    0xc(%ebp),%eax
  1060ae:	89 45 ec             	mov    %eax,-0x14(%ebp)
  1060b1:	c7 45 f0 00 00 00 00 	movl   $0x0,-0x10(%ebp)
  1060b8:	8d 45 14             	lea    0x14(%ebp),%eax
  1060bb:	89 45 e4             	mov    %eax,-0x1c(%ebp)
  1060be:	8b 45 e4             	mov    -0x1c(%ebp),%eax
  1060c1:	50                   	push   %eax
  1060c2:	ff 75 10             	push   0x10(%ebp)
  1060c5:	8d 45 e8             	lea    -0x18(%ebp),%eax
  1060c8:	50                   	push   %eax
  1060c9:	68 e8 5f 10 00       	push   $0x105fe8
  1060ce:	e8 21 f3 ff ff       	call   1053f4 <xvasprintf>
  1060d3:	83 c4 10             	add    $0x10,%esp
  1060d6:	89 45 f4             	mov    %eax,-0xc(%ebp)
  1060d9:	83 ec 08             	sub    $0x8,%esp
  1060dc:	6a 00                	push   $0x0
  1060de:	8d 45 e8             	lea    -0x18(%ebp),%eax
  1060e1:	50                   	push   %eax
  1060e2:	e8 01 ff ff ff       	call   105fe8 <cb_sprintf>
  1060e7:	83 c4 10             	add    $0x10,%esp
  1060ea:	8b 45 f4             	mov    -0xc(%ebp),%eax
  1060ed:	c9                   	leave  
  1060ee:	c3                   	ret    

001060ef <cb_sxprintf>:
  1060ef:	55                   	push   %ebp
  1060f0:	89 e5                	mov    %esp,%ebp
  1060f2:	83 ec 14             	sub    $0x14,%esp
  1060f5:	8b 45 0c             	mov    0xc(%ebp),%eax
  1060f8:	88 45 ec             	mov    %al,-0x14(%ebp)
  1060fb:	8b 45 08             	mov    0x8(%ebp),%eax
  1060fe:	89 45 fc             	mov    %eax,-0x4(%ebp)
  106101:	8b 45 fc             	mov    -0x4(%ebp),%eax
  106104:	8b 10                	mov    (%eax),%edx
  106106:	8b 45 fc             	mov    -0x4(%ebp),%eax
  106109:	8b 40 08             	mov    0x8(%eax),%eax
  10610c:	01 c2                	add    %eax,%edx
  10610e:	0f b6 45 ec          	movzbl -0x14(%ebp),%eax
  106112:	88 02                	mov    %al,(%edx)
  106114:	8b 45 fc             	mov    -0x4(%ebp),%eax
  106117:	8b 40 08             	mov    0x8(%eax),%eax
  10611a:	8d 50 01             	lea    0x1(%eax),%edx
  10611d:	8b 45 fc             	mov    -0x4(%ebp),%eax
  106120:	89 50 08             	mov    %edx,0x8(%eax)
  106123:	b8 00 00 00 00       	mov    $0x0,%eax
  106128:	c9                   	leave  
  106129:	c3                   	ret    

0010612a <sprintf>:
  10612a:	55                   	push   %ebp
  10612b:	89 e5                	mov    %esp,%ebp
  10612d:	83 ec 28             	sub    $0x28,%esp
  106130:	8b 45 08             	mov    0x8(%ebp),%eax
  106133:	89 45 e8             	mov    %eax,-0x18(%ebp)
  106136:	c7 45 ec 00 00 00 00 	movl   $0x0,-0x14(%ebp)
  10613d:	c7 45 f0 00 00 00 00 	movl   $0x0,-0x10(%ebp)
  106144:	8d 45 10             	lea    0x10(%ebp),%eax
  106147:	89 45 e4             	mov    %eax,-0x1c(%ebp)
  10614a:	8b 45 e4             	mov    -0x1c(%ebp),%eax
  10614d:	50                   	push   %eax
  10614e:	ff 75 0c             	push   0xc(%ebp)
  106151:	8d 45 e8             	lea    -0x18(%ebp),%eax
  106154:	50                   	push   %eax
  106155:	68 ef 60 10 00       	push   $0x1060ef
  10615a:	e8 95 f2 ff ff       	call   1053f4 <xvasprintf>
  10615f:	83 c4 10             	add    $0x10,%esp
  106162:	89 45 f4             	mov    %eax,-0xc(%ebp)
  106165:	83 ec 08             	sub    $0x8,%esp
  106168:	6a 00                	push   $0x0
  10616a:	8d 45 e8             	lea    -0x18(%ebp),%eax
  10616d:	50                   	push   %eax
  10616e:	e8 7c ff ff ff       	call   1060ef <cb_sxprintf>
  106173:	83 c4 10             	add    $0x10,%esp
  106176:	8b 45 f4             	mov    -0xc(%ebp),%eax
  106179:	c9                   	leave  
  10617a:	c3                   	ret    

0010617b <cb_printf>:
  10617b:	55                   	push   %ebp
  10617c:	89 e5                	mov    %esp,%ebp
  10617e:	83 ec 04             	sub    $0x4,%esp
  106181:	8b 45 0c             	mov    0xc(%ebp),%eax
  106184:	88 45 fc             	mov    %al,-0x4(%ebp)
  106187:	b8 00 00 00 00       	mov    $0x0,%eax
  10618c:	c9                   	leave  
  10618d:	c3                   	ret    

0010618e <printf>:
  10618e:	55                   	push   %ebp
  10618f:	89 e5                	mov    %esp,%ebp
  106191:	83 ec 18             	sub    $0x18,%esp
  106194:	8d 45 0c             	lea    0xc(%ebp),%eax
  106197:	89 45 f0             	mov    %eax,-0x10(%ebp)
  10619a:	8b 45 f0             	mov    -0x10(%ebp),%eax
  10619d:	50                   	push   %eax
  10619e:	ff 75 08             	push   0x8(%ebp)
  1061a1:	6a 00                	push   $0x0
  1061a3:	68 7b 61 10 00       	push   $0x10617b
  1061a8:	e8 47 f2 ff ff       	call   1053f4 <xvasprintf>
  1061ad:	83 c4 10             	add    $0x10,%esp
  1061b0:	89 45 f4             	mov    %eax,-0xc(%ebp)
  1061b3:	8b 45 f4             	mov    -0xc(%ebp),%eax
  1061b6:	c9                   	leave  
  1061b7:	c3                   	ret    

001061b8 <memcpy>:
  1061b8:	55                   	push   %ebp
  1061b9:	89 e5                	mov    %esp,%ebp
  1061bb:	83 ec 10             	sub    $0x10,%esp
  1061be:	8b 45 08             	mov    0x8(%ebp),%eax
  1061c1:	89 45 f8             	mov    %eax,-0x8(%ebp)
  1061c4:	8b 45 0c             	mov    0xc(%ebp),%eax
  1061c7:	89 45 f4             	mov    %eax,-0xc(%ebp)
  1061ca:	c7 45 fc 00 00 00 00 	movl   $0x0,-0x4(%ebp)
  1061d1:	eb 19                	jmp    1061ec <memcpy+0x34>
  1061d3:	8b 55 f4             	mov    -0xc(%ebp),%edx
  1061d6:	8b 45 fc             	mov    -0x4(%ebp),%eax
  1061d9:	01 d0                	add    %edx,%eax
  1061db:	8b 4d f8             	mov    -0x8(%ebp),%ecx
  1061de:	8b 55 fc             	mov    -0x4(%ebp),%edx
  1061e1:	01 ca                	add    %ecx,%edx
  1061e3:	0f b6 00             	movzbl (%eax),%eax
  1061e6:	88 02                	mov    %al,(%edx)
  1061e8:	83 45 fc 01          	addl   $0x1,-0x4(%ebp)
  1061ec:	8b 45 fc             	mov    -0x4(%ebp),%eax
  1061ef:	3b 45 10             	cmp    0x10(%ebp),%eax
  1061f2:	72 df                	jb     1061d3 <memcpy+0x1b>
  1061f4:	8b 45 08             	mov    0x8(%ebp),%eax
  1061f7:	c9                   	leave  
  1061f8:	c3                   	ret    

001061f9 <memset>:
  1061f9:	55                   	push   %ebp
  1061fa:	89 e5                	mov    %esp,%ebp
  1061fc:	83 ec 10             	sub    $0x10,%esp
  1061ff:	c7 45 fc 00 00 00 00 	movl   $0x0,-0x4(%ebp)
  106206:	eb 11                	jmp    106219 <memset+0x20>
  106208:	8b 55 08             	mov    0x8(%ebp),%edx
  10620b:	8b 45 fc             	mov    -0x4(%ebp),%eax
  10620e:	01 d0                	add    %edx,%eax
  106210:	8b 55 0c             	mov    0xc(%ebp),%edx
  106213:	88 10                	mov    %dl,(%eax)
  106215:	83 45 fc 01          	addl   $0x1,-0x4(%ebp)
  106219:	8b 45 fc             	mov    -0x4(%ebp),%eax
  10621c:	3b 45 10             	cmp    0x10(%ebp),%eax
  10621f:	72 e7                	jb     106208 <memset+0xf>
  106221:	8b 45 08             	mov    0x8(%ebp),%eax
  106224:	c9                   	leave  
  106225:	c3                   	ret    

00106226 <strncpy>:
  106226:	55                   	push   %ebp
  106227:	89 e5                	mov    %esp,%ebp
  106229:	83 ec 10             	sub    $0x10,%esp
  10622c:	8b 45 08             	mov    0x8(%ebp),%eax
  10622f:	89 45 fc             	mov    %eax,-0x4(%ebp)
  106232:	eb 13                	jmp    106247 <strncpy+0x21>
  106234:	8b 45 0c             	mov    0xc(%ebp),%eax
  106237:	0f b6 10             	movzbl (%eax),%edx
  10623a:	8b 45 08             	mov    0x8(%ebp),%eax
  10623d:	88 10                	mov    %dl,(%eax)
  10623f:	83 45 08 01          	addl   $0x1,0x8(%ebp)
  106243:	83 45 0c 01          	addl   $0x1,0xc(%ebp)
  106247:	8b 45 10             	mov    0x10(%ebp),%eax
  10624a:	8d 50 ff             	lea    -0x1(%eax),%edx
  10624d:	89 55 10             	mov    %edx,0x10(%ebp)
  106250:	85 c0                	test   %eax,%eax
  106252:	75 e0                	jne    106234 <strncpy+0xe>
  106254:	8b 45 fc             	mov    -0x4(%ebp),%eax
  106257:	c9                   	leave  
  106258:	c3                   	ret    

00106259 <strcpy>:
  106259:	55                   	push   %ebp
  10625a:	89 e5                	mov    %esp,%ebp
  10625c:	83 ec 10             	sub    $0x10,%esp
  10625f:	8b 45 08             	mov    0x8(%ebp),%eax
  106262:	89 45 fc             	mov    %eax,-0x4(%ebp)
  106265:	eb 08                	jmp    10626f <strcpy+0x16>
  106267:	83 45 08 01          	addl   $0x1,0x8(%ebp)
  10626b:	83 45 0c 01          	addl   $0x1,0xc(%ebp)
  10626f:	8b 45 0c             	mov    0xc(%ebp),%eax
  106272:	0f b6 10             	movzbl (%eax),%edx
  106275:	8b 45 08             	mov    0x8(%ebp),%eax
  106278:	88 10                	mov    %dl,(%eax)
  10627a:	8b 45 08             	mov    0x8(%ebp),%eax
  10627d:	0f b6 00             	movzbl (%eax),%eax
  106280:	84 c0                	test   %al,%al
  106282:	75 e3                	jne    106267 <strcpy+0xe>
  106284:	8b 45 fc             	mov    -0x4(%ebp),%eax
  106287:	c9                   	leave  
  106288:	c3                   	ret    

00106289 <strlen>:
  106289:	55                   	push   %ebp
  10628a:	89 e5                	mov    %esp,%ebp
  10628c:	83 ec 10             	sub    $0x10,%esp
  10628f:	c7 45 fc 00 00 00 00 	movl   $0x0,-0x4(%ebp)
  106296:	eb 04                	jmp    10629c <strlen+0x13>
  106298:	83 45 fc 01          	addl   $0x1,-0x4(%ebp)
  10629c:	8b 45 08             	mov    0x8(%ebp),%eax
  10629f:	8d 50 01             	lea    0x1(%eax),%edx
  1062a2:	89 55 08             	mov    %edx,0x8(%ebp)
  1062a5:	0f b6 00             	movzbl (%eax),%eax
  1062a8:	84 c0                	test   %al,%al
  1062aa:	75 ec                	jne    106298 <strlen+0xf>
  1062ac:	8b 45 fc             	mov    -0x4(%ebp),%eax
  1062af:	c9                   	leave  
  1062b0:	c3                   	ret    

001062b1 <is_year_leap>:
  1062b1:	55                   	push   %ebp
  1062b2:	89 e5                	mov    %esp,%ebp
  1062b4:	8b 45 08             	mov    0x8(%ebp),%eax
  1062b7:	83 e0 03             	and    $0x3,%eax
  1062ba:	85 c0                	test   %eax,%eax
  1062bc:	75 50                	jne    10630e <is_year_leap+0x5d>
  1062be:	8b 4d 08             	mov    0x8(%ebp),%ecx
  1062c1:	ba 1f 85 eb 51       	mov    $0x51eb851f,%edx
  1062c6:	89 c8                	mov    %ecx,%eax
  1062c8:	f7 ea                	imul   %edx
  1062ca:	89 d0                	mov    %edx,%eax
  1062cc:	c1 f8 05             	sar    $0x5,%eax
  1062cf:	89 ca                	mov    %ecx,%edx
  1062d1:	c1 fa 1f             	sar    $0x1f,%edx
  1062d4:	29 d0                	sub    %edx,%eax
  1062d6:	6b d0 64             	imul   $0x64,%eax,%edx
  1062d9:	89 c8                	mov    %ecx,%eax
  1062db:	29 d0                	sub    %edx,%eax
  1062dd:	85 c0                	test   %eax,%eax
  1062df:	75 26                	jne    106307 <is_year_leap+0x56>
  1062e1:	8b 4d 08             	mov    0x8(%ebp),%ecx
  1062e4:	ba 1f 85 eb 51       	mov    $0x51eb851f,%edx
  1062e9:	89 c8                	mov    %ecx,%eax
  1062eb:	f7 ea                	imul   %edx
  1062ed:	89 d0                	mov    %edx,%eax
  1062ef:	c1 f8 07             	sar    $0x7,%eax
  1062f2:	89 ca                	mov    %ecx,%edx
  1062f4:	c1 fa 1f             	sar    $0x1f,%edx
  1062f7:	29 d0                	sub    %edx,%eax
  1062f9:	69 d0 90 01 00 00    	imul   $0x190,%eax,%edx
  1062ff:	89 c8                	mov    %ecx,%eax
  106301:	29 d0                	sub    %edx,%eax
  106303:	85 c0                	test   %eax,%eax
  106305:	75 07                	jne    10630e <is_year_leap+0x5d>
  106307:	b8 01 00 00 00       	mov    $0x1,%eax
  10630c:	eb 05                	jmp    106313 <is_year_leap+0x62>
  10630e:	b8 00 00 00 00       	mov    $0x0,%eax
  106313:	83 e0 01             	and    $0x1,%eax
  106316:	5d                   	pop    %ebp
  106317:	c3                   	ret    

00106318 <get_days_in_month>:
  106318:	55                   	push   %ebp
  106319:	89 e5                	mov    %esp,%ebp
  10631b:	83 7d 08 0c          	cmpl   $0xc,0x8(%ebp)
  10631f:	77 79                	ja     10639a <get_days_in_month+0x82>
  106321:	8b 45 08             	mov    0x8(%ebp),%eax
  106324:	c1 e0 02             	shl    $0x2,%eax
  106327:	05 40 9a 10 00       	add    $0x109a40,%eax
  10632c:	8b 00                	mov    (%eax),%eax
  10632e:	ff e0                	jmp    *%eax
  106330:	b8 1f 00 00 00       	mov    $0x1f,%eax
  106335:	eb 68                	jmp    10639f <get_days_in_month+0x87>
  106337:	ff 75 0c             	push   0xc(%ebp)
  10633a:	e8 72 ff ff ff       	call   1062b1 <is_year_leap>
  10633f:	83 c4 04             	add    $0x4,%esp
  106342:	84 c0                	test   %al,%al
  106344:	74 07                	je     10634d <get_days_in_month+0x35>
  106346:	b8 1d 00 00 00       	mov    $0x1d,%eax
  10634b:	eb 52                	jmp    10639f <get_days_in_month+0x87>
  10634d:	b8 1c 00 00 00       	mov    $0x1c,%eax
  106352:	eb 4b                	jmp    10639f <get_days_in_month+0x87>
  106354:	b8 1f 00 00 00       	mov    $0x1f,%eax
  106359:	eb 44                	jmp    10639f <get_days_in_month+0x87>
  10635b:	b8 1e 00 00 00       	mov    $0x1e,%eax
  106360:	eb 3d                	jmp    10639f <get_days_in_month+0x87>
  106362:	b8 1f 00 00 00       	mov    $0x1f,%eax
  106367:	eb 36                	jmp    10639f <get_days_in_month+0x87>
  106369:	b8 1e 00 00 00       	mov    $0x1e,%eax
  10636e:	eb 2f                	jmp    10639f <get_days_in_month+0x87>
  106370:	b8 1f 00 00 00       	mov    $0x1f,%eax
  106375:	eb 28                	jmp    10639f <get_days_in_month+0x87>
  106377:	b8 1f 00 00 00       	mov    $0x1f,%eax
  10637c:	eb 21                	jmp    10639f <get_days_in_month+0x87>
  10637e:	b8 1e 00 00 00       	mov    $0x1e,%eax
  106383:	eb 1a                	jmp    10639f <get_days_in_month+0x87>
  106385:	b8 1f 00 00 00       	mov    $0x1f,%eax
  10638a:	eb 13                	jmp    10639f <get_days_in_month+0x87>
  10638c:	b8 1e 00 00 00       	mov    $0x1e,%eax
  106391:	eb 0c                	jmp    10639f <get_days_in_month+0x87>
  106393:	b8 1f 00 00 00       	mov    $0x1f,%eax
  106398:	eb 05                	jmp    10639f <get_days_in_month+0x87>
  10639a:	b8 00 00 00 00       	mov    $0x0,%eax
  10639f:	c9                   	leave  
  1063a0:	c3                   	ret    

001063a1 <get_day_of_week>:
  1063a1:	55                   	push   %ebp
  1063a2:	89 e5                	mov    %esp,%ebp
  1063a4:	83 ec 10             	sub    $0x10,%esp
  1063a7:	8b 4d 08             	mov    0x8(%ebp),%ecx
  1063aa:	ba 07 45 2e c2       	mov    $0xc22e4507,%edx
  1063af:	89 c8                	mov    %ecx,%eax
  1063b1:	f7 ea                	imul   %edx
  1063b3:	8d 04 0a             	lea    (%edx,%ecx,1),%eax
  1063b6:	c1 f8 10             	sar    $0x10,%eax
  1063b9:	c1 f9 1f             	sar    $0x1f,%ecx
  1063bc:	89 ca                	mov    %ecx,%edx
  1063be:	29 d0                	sub    %edx,%eax
  1063c0:	89 45 fc             	mov    %eax,-0x4(%ebp)
  1063c3:	83 45 fc 04          	addl   $0x4,-0x4(%ebp)
  1063c7:	8b 4d fc             	mov    -0x4(%ebp),%ecx
  1063ca:	ba 93 24 49 92       	mov    $0x92492493,%edx
  1063cf:	89 c8                	mov    %ecx,%eax
  1063d1:	f7 ea                	imul   %edx
  1063d3:	8d 04 0a             	lea    (%edx,%ecx,1),%eax
  1063d6:	c1 f8 02             	sar    $0x2,%eax
  1063d9:	89 ca                	mov    %ecx,%edx
  1063db:	c1 fa 1f             	sar    $0x1f,%edx
  1063de:	29 d0                	sub    %edx,%eax
  1063e0:	89 c2                	mov    %eax,%edx
  1063e2:	c1 e2 03             	shl    $0x3,%edx
  1063e5:	29 c2                	sub    %eax,%edx
  1063e7:	89 c8                	mov    %ecx,%eax
  1063e9:	29 d0                	sub    %edx,%eax
  1063eb:	c9                   	leave  
  1063ec:	c3                   	ret    

001063ed <get_seconds_of_months>:
  1063ed:	55                   	push   %ebp
  1063ee:	89 e5                	mov    %esp,%ebp
  1063f0:	83 ec 10             	sub    $0x10,%esp
  1063f3:	c7 45 fc 00 00 00 00 	movl   $0x0,-0x4(%ebp)
  1063fa:	c7 45 f8 01 00 00 00 	movl   $0x1,-0x8(%ebp)
  106401:	eb 15                	jmp    106418 <get_seconds_of_months+0x2b>
  106403:	ff 75 0c             	push   0xc(%ebp)
  106406:	ff 75 f8             	push   -0x8(%ebp)
  106409:	e8 0a ff ff ff       	call   106318 <get_days_in_month>
  10640e:	83 c4 08             	add    $0x8,%esp
  106411:	01 45 fc             	add    %eax,-0x4(%ebp)
  106414:	83 45 f8 01          	addl   $0x1,-0x8(%ebp)
  106418:	8b 45 f8             	mov    -0x8(%ebp),%eax
  10641b:	3b 45 08             	cmp    0x8(%ebp),%eax
  10641e:	7c e3                	jl     106403 <get_seconds_of_months+0x16>
  106420:	8b 45 fc             	mov    -0x4(%ebp),%eax
  106423:	69 c0 80 51 01 00    	imul   $0x15180,%eax,%eax
  106429:	c9                   	leave  
  10642a:	c3                   	ret    

0010642b <get_seconds_of_years>:
  10642b:	55                   	push   %ebp
  10642c:	89 e5                	mov    %esp,%ebp
  10642e:	83 ec 10             	sub    $0x10,%esp
  106431:	c7 45 fc 00 00 00 00 	movl   $0x0,-0x4(%ebp)
  106438:	eb 1e                	jmp    106458 <get_seconds_of_years+0x2d>
  10643a:	81 45 fc 6d 01 00 00 	addl   $0x16d,-0x4(%ebp)
  106441:	ff 75 08             	push   0x8(%ebp)
  106444:	e8 68 fe ff ff       	call   1062b1 <is_year_leap>
  106449:	83 c4 04             	add    $0x4,%esp
  10644c:	84 c0                	test   %al,%al
  10644e:	74 04                	je     106454 <get_seconds_of_years+0x29>
  106450:	83 45 fc 01          	addl   $0x1,-0x4(%ebp)
  106454:	83 6d 08 01          	subl   $0x1,0x8(%ebp)
  106458:	81 7d 08 b1 07 00 00 	cmpl   $0x7b1,0x8(%ebp)
  10645f:	7f d9                	jg     10643a <get_seconds_of_years+0xf>
  106461:	8b 45 fc             	mov    -0x4(%ebp),%eax
  106464:	69 c0 80 51 01 00    	imul   $0x15180,%eax,%eax
  10646a:	c9                   	leave  
  10646b:	c3                   	ret    

0010646c <fill_time>:
  10646c:	55                   	push   %ebp
  10646d:	89 e5                	mov    %esp,%ebp
  10646f:	83 ec 30             	sub    $0x30,%esp
  106472:	8b 45 08             	mov    0x8(%ebp),%eax
  106475:	8b 10                	mov    (%eax),%edx
  106477:	8b 45 14             	mov    0x14(%ebp),%eax
  10647a:	01 d0                	add    %edx,%eax
  10647c:	89 45 e8             	mov    %eax,-0x18(%ebp)
  10647f:	8b 45 0c             	mov    0xc(%ebp),%eax
  106482:	8b 55 10             	mov    0x10(%ebp),%edx
  106485:	89 50 24             	mov    %edx,0x24(%eax)
  106488:	8b 45 0c             	mov    0xc(%ebp),%eax
  10648b:	8b 55 14             	mov    0x14(%ebp),%edx
  10648e:	89 50 28             	mov    %edx,0x28(%eax)
  106491:	83 7d e8 00          	cmpl   $0x0,-0x18(%ebp)
  106495:	79 07                	jns    10649e <fill_time+0x32>
  106497:	b8 80 81 55 7c       	mov    $0x7c558180,%eax
  10649c:	eb 05                	jmp    1064a3 <fill_time+0x37>
  10649e:	b8 00 00 00 00       	mov    $0x0,%eax
  1064a3:	89 45 fc             	mov    %eax,-0x4(%ebp)
  1064a6:	c7 45 e4 00 00 00 00 	movl   $0x0,-0x1c(%ebp)
  1064ad:	83 7d e8 00          	cmpl   $0x0,-0x18(%ebp)
  1064b1:	79 07                	jns    1064ba <fill_time+0x4e>
  1064b3:	b8 6c 07 00 00       	mov    $0x76c,%eax
  1064b8:	eb 05                	jmp    1064bf <fill_time+0x53>
  1064ba:	b8 b2 07 00 00       	mov    $0x7b2,%eax
  1064bf:	89 45 e0             	mov    %eax,-0x20(%ebp)
  1064c2:	8b 45 e0             	mov    -0x20(%ebp),%eax
  1064c5:	89 45 f8             	mov    %eax,-0x8(%ebp)
  1064c8:	e9 ea 01 00 00       	jmp    1066b7 <fill_time+0x24b>
  1064cd:	ff 75 f8             	push   -0x8(%ebp)
  1064d0:	e8 dc fd ff ff       	call   1062b1 <is_year_leap>
  1064d5:	83 c4 04             	add    $0x4,%esp
  1064d8:	84 c0                	test   %al,%al
  1064da:	74 07                	je     1064e3 <fill_time+0x77>
  1064dc:	b8 6e 01 00 00       	mov    $0x16e,%eax
  1064e1:	eb 05                	jmp    1064e8 <fill_time+0x7c>
  1064e3:	b8 6d 01 00 00       	mov    $0x16d,%eax
  1064e8:	89 45 dc             	mov    %eax,-0x24(%ebp)
  1064eb:	8b 45 dc             	mov    -0x24(%ebp),%eax
  1064ee:	69 c0 80 51 01 00    	imul   $0x15180,%eax,%eax
  1064f4:	89 45 d8             	mov    %eax,-0x28(%ebp)
  1064f7:	8b 55 fc             	mov    -0x4(%ebp),%edx
  1064fa:	8b 45 d8             	mov    -0x28(%ebp),%eax
  1064fd:	01 d0                	add    %edx,%eax
  1064ff:	39 45 e8             	cmp    %eax,-0x18(%ebp)
  106502:	0f 8d a5 01 00 00    	jge    1066ad <fill_time+0x241>
  106508:	8b 45 f8             	mov    -0x8(%ebp),%eax
  10650b:	8d 90 94 f8 ff ff    	lea    -0x76c(%eax),%edx
  106511:	8b 45 0c             	mov    0xc(%ebp),%eax
  106514:	89 50 14             	mov    %edx,0x14(%eax)
  106517:	8b 45 fc             	mov    -0x4(%ebp),%eax
  10651a:	89 45 e4             	mov    %eax,-0x1c(%ebp)
  10651d:	c7 45 f4 01 00 00 00 	movl   $0x1,-0xc(%ebp)
  106524:	e9 73 01 00 00       	jmp    10669c <fill_time+0x230>
  106529:	ff 75 f8             	push   -0x8(%ebp)
  10652c:	ff 75 f4             	push   -0xc(%ebp)
  10652f:	e8 e4 fd ff ff       	call   106318 <get_days_in_month>
  106534:	83 c4 08             	add    $0x8,%esp
  106537:	69 c0 80 51 01 00    	imul   $0x15180,%eax,%eax
  10653d:	89 45 d8             	mov    %eax,-0x28(%ebp)
  106540:	8b 55 fc             	mov    -0x4(%ebp),%edx
  106543:	8b 45 d8             	mov    -0x28(%ebp),%eax
  106546:	01 d0                	add    %edx,%eax
  106548:	39 45 e8             	cmp    %eax,-0x18(%ebp)
  10654b:	0f 8d 41 01 00 00    	jge    106692 <fill_time+0x226>
  106551:	8b 45 f4             	mov    -0xc(%ebp),%eax
  106554:	8d 50 ff             	lea    -0x1(%eax),%edx
  106557:	8b 45 0c             	mov    0xc(%ebp),%eax
  10655a:	89 50 10             	mov    %edx,0x10(%eax)
  10655d:	c7 45 f0 01 00 00 00 	movl   $0x1,-0x10(%ebp)
  106564:	e9 0b 01 00 00       	jmp    106674 <fill_time+0x208>
  106569:	c7 45 d8 80 51 01 00 	movl   $0x15180,-0x28(%ebp)
  106570:	8b 55 fc             	mov    -0x4(%ebp),%edx
  106573:	8b 45 d8             	mov    -0x28(%ebp),%eax
  106576:	01 d0                	add    %edx,%eax
  106578:	39 45 e8             	cmp    %eax,-0x18(%ebp)
  10657b:	0f 8d e9 00 00 00    	jge    10666a <fill_time+0x1fe>
  106581:	8b 45 0c             	mov    0xc(%ebp),%eax
  106584:	8b 55 f0             	mov    -0x10(%ebp),%edx
  106587:	89 50 0c             	mov    %edx,0xc(%eax)
  10658a:	c7 45 ec 01 00 00 00 	movl   $0x1,-0x14(%ebp)
  106591:	e9 c3 00 00 00       	jmp    106659 <fill_time+0x1ed>
  106596:	c7 45 d8 10 0e 00 00 	movl   $0xe10,-0x28(%ebp)
  10659d:	8b 55 fc             	mov    -0x4(%ebp),%edx
  1065a0:	8b 45 d8             	mov    -0x28(%ebp),%eax
  1065a3:	01 d0                	add    %edx,%eax
  1065a5:	39 45 e8             	cmp    %eax,-0x18(%ebp)
  1065a8:	0f 8d a1 00 00 00    	jge    10664f <fill_time+0x1e3>
  1065ae:	8b 45 e8             	mov    -0x18(%ebp),%eax
  1065b1:	2b 45 fc             	sub    -0x4(%ebp),%eax
  1065b4:	89 45 d4             	mov    %eax,-0x2c(%ebp)
  1065b7:	8b 45 ec             	mov    -0x14(%ebp),%eax
  1065ba:	8d 50 ff             	lea    -0x1(%eax),%edx
  1065bd:	8b 45 0c             	mov    0xc(%ebp),%eax
  1065c0:	89 50 08             	mov    %edx,0x8(%eax)
  1065c3:	8b 4d d4             	mov    -0x2c(%ebp),%ecx
  1065c6:	ba 89 88 88 88       	mov    $0x88888889,%edx
  1065cb:	89 c8                	mov    %ecx,%eax
  1065cd:	f7 ea                	imul   %edx
  1065cf:	8d 04 0a             	lea    (%edx,%ecx,1),%eax
  1065d2:	c1 f8 05             	sar    $0x5,%eax
  1065d5:	89 c2                	mov    %eax,%edx
  1065d7:	89 c8                	mov    %ecx,%eax
  1065d9:	c1 f8 1f             	sar    $0x1f,%eax
  1065dc:	29 c2                	sub    %eax,%edx
  1065de:	8b 45 0c             	mov    0xc(%ebp),%eax
  1065e1:	89 50 04             	mov    %edx,0x4(%eax)
  1065e4:	8b 4d d4             	mov    -0x2c(%ebp),%ecx
  1065e7:	ba 89 88 88 88       	mov    $0x88888889,%edx
  1065ec:	89 c8                	mov    %ecx,%eax
  1065ee:	f7 ea                	imul   %edx
  1065f0:	8d 04 0a             	lea    (%edx,%ecx,1),%eax
  1065f3:	c1 f8 05             	sar    $0x5,%eax
  1065f6:	89 ca                	mov    %ecx,%edx
  1065f8:	c1 fa 1f             	sar    $0x1f,%edx
  1065fb:	29 d0                	sub    %edx,%eax
  1065fd:	6b d0 3c             	imul   $0x3c,%eax,%edx
  106600:	89 c8                	mov    %ecx,%eax
  106602:	29 d0                	sub    %edx,%eax
  106604:	8b 55 0c             	mov    0xc(%ebp),%edx
  106607:	89 02                	mov    %eax,(%edx)
  106609:	ff 75 e8             	push   -0x18(%ebp)
  10660c:	e8 90 fd ff ff       	call   1063a1 <get_day_of_week>
  106611:	83 c4 04             	add    $0x4,%esp
  106614:	8b 55 0c             	mov    0xc(%ebp),%edx
  106617:	89 42 18             	mov    %eax,0x18(%edx)
  10661a:	8b 45 e8             	mov    -0x18(%ebp),%eax
  10661d:	2b 45 e4             	sub    -0x1c(%ebp),%eax
  106620:	89 c1                	mov    %eax,%ecx
  106622:	ba 07 45 2e c2       	mov    $0xc22e4507,%edx
  106627:	89 c8                	mov    %ecx,%eax
  106629:	f7 ea                	imul   %edx
  10662b:	8d 04 0a             	lea    (%edx,%ecx,1),%eax
  10662e:	c1 f8 10             	sar    $0x10,%eax
  106631:	89 c2                	mov    %eax,%edx
  106633:	89 c8                	mov    %ecx,%eax
  106635:	c1 f8 1f             	sar    $0x1f,%eax
  106638:	29 c2                	sub    %eax,%edx
  10663a:	8b 45 0c             	mov    0xc(%ebp),%eax
  10663d:	89 50 1c             	mov    %edx,0x1c(%eax)
  106640:	8b 45 0c             	mov    0xc(%ebp),%eax
  106643:	c7 40 20 00 00 00 00 	movl   $0x0,0x20(%eax)
  10664a:	8b 45 0c             	mov    0xc(%ebp),%eax
  10664d:	eb 7a                	jmp    1066c9 <fill_time+0x25d>
  10664f:	8b 45 d8             	mov    -0x28(%ebp),%eax
  106652:	01 45 fc             	add    %eax,-0x4(%ebp)
  106655:	83 45 ec 01          	addl   $0x1,-0x14(%ebp)
  106659:	83 7d ec 18          	cmpl   $0x18,-0x14(%ebp)
  10665d:	0f 8e 33 ff ff ff    	jle    106596 <fill_time+0x12a>
  106663:	b8 00 00 00 00       	mov    $0x0,%eax
  106668:	eb 5f                	jmp    1066c9 <fill_time+0x25d>
  10666a:	8b 45 d8             	mov    -0x28(%ebp),%eax
  10666d:	01 45 fc             	add    %eax,-0x4(%ebp)
  106670:	83 45 f0 01          	addl   $0x1,-0x10(%ebp)
  106674:	ff 75 f8             	push   -0x8(%ebp)
  106677:	ff 75 f4             	push   -0xc(%ebp)
  10667a:	e8 99 fc ff ff       	call   106318 <get_days_in_month>
  10667f:	83 c4 08             	add    $0x8,%esp
  106682:	39 45 f0             	cmp    %eax,-0x10(%ebp)
  106685:	0f 8e de fe ff ff    	jle    106569 <fill_time+0xfd>
  10668b:	b8 00 00 00 00       	mov    $0x0,%eax
  106690:	eb 37                	jmp    1066c9 <fill_time+0x25d>
  106692:	8b 45 d8             	mov    -0x28(%ebp),%eax
  106695:	01 45 fc             	add    %eax,-0x4(%ebp)
  106698:	83 45 f4 01          	addl   $0x1,-0xc(%ebp)
  10669c:	83 7d f4 0c          	cmpl   $0xc,-0xc(%ebp)
  1066a0:	0f 8e 83 fe ff ff    	jle    106529 <fill_time+0xbd>
  1066a6:	b8 00 00 00 00       	mov    $0x0,%eax
  1066ab:	eb 1c                	jmp    1066c9 <fill_time+0x25d>
  1066ad:	8b 45 d8             	mov    -0x28(%ebp),%eax
  1066b0:	01 45 fc             	add    %eax,-0x4(%ebp)
  1066b3:	83 45 f8 01          	addl   $0x1,-0x8(%ebp)
  1066b7:	81 7d f8 33 08 00 00 	cmpl   $0x833,-0x8(%ebp)
  1066be:	0f 8e 09 fe ff ff    	jle    1064cd <fill_time+0x61>
  1066c4:	b8 00 00 00 00       	mov    $0x0,%eax
  1066c9:	c9                   	leave  
  1066ca:	c3                   	ret    

001066cb <localtime_r>:
  1066cb:	55                   	push   %ebp
  1066cc:	89 e5                	mov    %esp,%ebp
  1066ce:	6a 00                	push   $0x0
  1066d0:	68 74 9a 10 00       	push   $0x109a74
  1066d5:	ff 75 0c             	push   0xc(%ebp)
  1066d8:	ff 75 08             	push   0x8(%ebp)
  1066db:	e8 8c fd ff ff       	call   10646c <fill_time>
  1066e0:	83 c4 10             	add    $0x10,%esp
  1066e3:	c9                   	leave  
  1066e4:	c3                   	ret    

001066e5 <gmtime_r>:
  1066e5:	55                   	push   %ebp
  1066e6:	89 e5                	mov    %esp,%ebp
  1066e8:	6a 00                	push   $0x0
  1066ea:	68 74 9a 10 00       	push   $0x109a74
  1066ef:	ff 75 0c             	push   0xc(%ebp)
  1066f2:	ff 75 08             	push   0x8(%ebp)
  1066f5:	e8 72 fd ff ff       	call   10646c <fill_time>
  1066fa:	83 c4 10             	add    $0x10,%esp
  1066fd:	c9                   	leave  
  1066fe:	c3                   	ret    

001066ff <localtime>:
  1066ff:	55                   	push   %ebp
  106700:	89 e5                	mov    %esp,%ebp
  106702:	6a 00                	push   $0x0
  106704:	68 74 9a 10 00       	push   $0x109a74
  106709:	68 60 ff 10 00       	push   $0x10ff60
  10670e:	ff 75 08             	push   0x8(%ebp)
  106711:	e8 56 fd ff ff       	call   10646c <fill_time>
  106716:	83 c4 10             	add    $0x10,%esp
  106719:	c9                   	leave  
  10671a:	c3                   	ret    

0010671b <gmtime>:
  10671b:	55                   	push   %ebp
  10671c:	89 e5                	mov    %esp,%ebp
  10671e:	6a 00                	push   $0x0
  106720:	68 74 9a 10 00       	push   $0x109a74
  106725:	68 60 ff 10 00       	push   $0x10ff60
  10672a:	ff 75 08             	push   0x8(%ebp)
  10672d:	e8 3a fd ff ff       	call   10646c <fill_time>
  106732:	83 c4 10             	add    $0x10,%esp
  106735:	c9                   	leave  
  106736:	c3                   	ret    

00106737 <mktime>:
  106737:	55                   	push   %ebp
  106738:	89 e5                	mov    %esp,%ebp
  10673a:	53                   	push   %ebx
  10673b:	8b 45 08             	mov    0x8(%ebp),%eax
  10673e:	8b 40 14             	mov    0x14(%eax),%eax
  106741:	05 6b 07 00 00       	add    $0x76b,%eax
  106746:	50                   	push   %eax
  106747:	e8 df fc ff ff       	call   10642b <get_seconds_of_years>
  10674c:	83 c4 04             	add    $0x4,%esp
  10674f:	89 c3                	mov    %eax,%ebx
  106751:	8b 45 08             	mov    0x8(%ebp),%eax
  106754:	8b 40 14             	mov    0x14(%eax),%eax
  106757:	8d 90 6c 07 00 00    	lea    0x76c(%eax),%edx
  10675d:	8b 45 08             	mov    0x8(%ebp),%eax
  106760:	8b 40 10             	mov    0x10(%eax),%eax
  106763:	83 c0 01             	add    $0x1,%eax
  106766:	52                   	push   %edx
  106767:	50                   	push   %eax
  106768:	e8 80 fc ff ff       	call   1063ed <get_seconds_of_months>
  10676d:	83 c4 08             	add    $0x8,%esp
  106770:	8d 14 03             	lea    (%ebx,%eax,1),%edx
  106773:	8b 45 08             	mov    0x8(%ebp),%eax
  106776:	8b 40 08             	mov    0x8(%eax),%eax
  106779:	69 c0 10 0e 00 00    	imul   $0xe10,%eax,%eax
  10677f:	89 c1                	mov    %eax,%ecx
  106781:	8b 45 08             	mov    0x8(%ebp),%eax
  106784:	8b 40 0c             	mov    0xc(%eax),%eax
  106787:	83 e8 01             	sub    $0x1,%eax
  10678a:	69 c0 80 51 01 00    	imul   $0x15180,%eax,%eax
  106790:	01 c8                	add    %ecx,%eax
  106792:	01 c2                	add    %eax,%edx
  106794:	8b 45 08             	mov    0x8(%ebp),%eax
  106797:	8b 40 04             	mov    0x4(%eax),%eax
  10679a:	6b c0 3c             	imul   $0x3c,%eax,%eax
  10679d:	01 c2                	add    %eax,%edx
  10679f:	8b 45 08             	mov    0x8(%ebp),%eax
  1067a2:	8b 00                	mov    (%eax),%eax
  1067a4:	01 c2                	add    %eax,%edx
  1067a6:	8b 45 08             	mov    0x8(%ebp),%eax
  1067a9:	8b 40 28             	mov    0x28(%eax),%eax
  1067ac:	89 c1                	mov    %eax,%ecx
  1067ae:	89 d0                	mov    %edx,%eax
  1067b0:	29 c8                	sub    %ecx,%eax
  1067b2:	8b 5d fc             	mov    -0x4(%ebp),%ebx
  1067b5:	c9                   	leave  
  1067b6:	c3                   	ret    

001067b7 <strftime>:
  1067b7:	55                   	push   %ebp
  1067b8:	89 e5                	mov    %esp,%ebp
  1067ba:	57                   	push   %edi
  1067bb:	56                   	push   %esi
  1067bc:	53                   	push   %ebx
  1067bd:	83 ec 4c             	sub    $0x4c,%esp
  1067c0:	83 7d 14 00          	cmpl   $0x0,0x14(%ebp)
  1067c4:	75 28                	jne    1067ee <strftime+0x37>
  1067c6:	83 7d 0c 0c          	cmpl   $0xc,0xc(%ebp)
  1067ca:	77 0a                	ja     1067d6 <strftime+0x1f>
  1067cc:	b8 00 00 00 00       	mov    $0x0,%eax
  1067d1:	e9 af 08 00 00       	jmp    107085 <strftime+0x8ce>
  1067d6:	83 ec 08             	sub    $0x8,%esp
  1067d9:	68 4f 9b 10 00       	push   $0x109b4f
  1067de:	ff 75 08             	push   0x8(%ebp)
  1067e1:	e8 44 f9 ff ff       	call   10612a <sprintf>
  1067e6:	83 c4 10             	add    $0x10,%esp
  1067e9:	e9 97 08 00 00       	jmp    107085 <strftime+0x8ce>
  1067ee:	8b 45 08             	mov    0x8(%ebp),%eax
  1067f1:	89 45 e4             	mov    %eax,-0x1c(%ebp)
  1067f4:	8b 45 10             	mov    0x10(%ebp),%eax
  1067f7:	89 45 e0             	mov    %eax,-0x20(%ebp)
  1067fa:	e9 6c 08 00 00       	jmp    10706b <strftime+0x8b4>
  1067ff:	8b 45 e0             	mov    -0x20(%ebp),%eax
  106802:	0f b6 00             	movzbl (%eax),%eax
  106805:	3c 25                	cmp    $0x25,%al
  106807:	74 2a                	je     106833 <strftime+0x7c>
  106809:	83 7d 0c 00          	cmpl   $0x0,0xc(%ebp)
  10680d:	75 0a                	jne    106819 <strftime+0x62>
  10680f:	b8 00 00 00 00       	mov    $0x0,%eax
  106814:	e9 6c 08 00 00       	jmp    107085 <strftime+0x8ce>
  106819:	83 6d 0c 01          	subl   $0x1,0xc(%ebp)
  10681d:	8b 45 e4             	mov    -0x1c(%ebp),%eax
  106820:	8d 50 01             	lea    0x1(%eax),%edx
  106823:	89 55 e4             	mov    %edx,-0x1c(%ebp)
  106826:	8b 55 e0             	mov    -0x20(%ebp),%edx
  106829:	0f b6 12             	movzbl (%edx),%edx
  10682c:	88 10                	mov    %dl,(%eax)
  10682e:	e9 34 08 00 00       	jmp    107067 <strftime+0x8b0>
  106833:	83 45 e0 01          	addl   $0x1,-0x20(%ebp)
  106837:	c7 45 d8 00 00 00 00 	movl   $0x0,-0x28(%ebp)
  10683e:	c7 45 d4 00 00 00 00 	movl   $0x0,-0x2c(%ebp)
  106845:	8b 45 e0             	mov    -0x20(%ebp),%eax
  106848:	0f b6 00             	movzbl (%eax),%eax
  10684b:	3c 45                	cmp    $0x45,%al
  10684d:	75 0d                	jne    10685c <strftime+0xa5>
  10684f:	c7 45 d8 01 00 00 00 	movl   $0x1,-0x28(%ebp)
  106856:	83 45 e0 01          	addl   $0x1,-0x20(%ebp)
  10685a:	eb 15                	jmp    106871 <strftime+0xba>
  10685c:	8b 45 e0             	mov    -0x20(%ebp),%eax
  10685f:	0f b6 00             	movzbl (%eax),%eax
  106862:	3c 30                	cmp    $0x30,%al
  106864:	75 0b                	jne    106871 <strftime+0xba>
  106866:	c7 45 d4 01 00 00 00 	movl   $0x1,-0x2c(%ebp)
  10686d:	83 45 e0 01          	addl   $0x1,-0x20(%ebp)
  106871:	c7 45 dc 00 00 00 00 	movl   $0x0,-0x24(%ebp)
  106878:	8b 45 e0             	mov    -0x20(%ebp),%eax
  10687b:	0f b6 00             	movzbl (%eax),%eax
  10687e:	0f be c0             	movsbl %al,%eax
  106881:	83 e8 25             	sub    $0x25,%eax
  106884:	83 f8 55             	cmp    $0x55,%eax
  106887:	0f 87 b2 07 00 00    	ja     10703f <strftime+0x888>
  10688d:	8b 04 85 14 9c 10 00 	mov    0x109c14(,%eax,4),%eax
  106894:	ff e0                	jmp    *%eax
  106896:	8b 45 14             	mov    0x14(%ebp),%eax
  106899:	8b 40 18             	mov    0x18(%eax),%eax
  10689c:	8b 04 85 3c a1 10 00 	mov    0x10a13c(,%eax,4),%eax
  1068a3:	50                   	push   %eax
  1068a4:	68 5c 9b 10 00       	push   $0x109b5c
  1068a9:	ff 75 0c             	push   0xc(%ebp)
  1068ac:	ff 75 e4             	push   -0x1c(%ebp)
  1068af:	e8 eb f7 ff ff       	call   10609f <snprintf>
  1068b4:	83 c4 10             	add    $0x10,%esp
  1068b7:	89 45 dc             	mov    %eax,-0x24(%ebp)
  1068ba:	e9 80 07 00 00       	jmp    10703f <strftime+0x888>
  1068bf:	8b 45 14             	mov    0x14(%ebp),%eax
  1068c2:	8b 40 18             	mov    0x18(%eax),%eax
  1068c5:	8b 04 85 20 a1 10 00 	mov    0x10a120(,%eax,4),%eax
  1068cc:	50                   	push   %eax
  1068cd:	68 5c 9b 10 00       	push   $0x109b5c
  1068d2:	ff 75 0c             	push   0xc(%ebp)
  1068d5:	ff 75 e4             	push   -0x1c(%ebp)
  1068d8:	e8 c2 f7 ff ff       	call   10609f <snprintf>
  1068dd:	83 c4 10             	add    $0x10,%esp
  1068e0:	89 45 dc             	mov    %eax,-0x24(%ebp)
  1068e3:	e9 57 07 00 00       	jmp    10703f <strftime+0x888>
  1068e8:	8b 45 14             	mov    0x14(%ebp),%eax
  1068eb:	8b 40 10             	mov    0x10(%eax),%eax
  1068ee:	8b 04 85 a0 a1 10 00 	mov    0x10a1a0(,%eax,4),%eax
  1068f5:	50                   	push   %eax
  1068f6:	68 5c 9b 10 00       	push   $0x109b5c
  1068fb:	ff 75 0c             	push   0xc(%ebp)
  1068fe:	ff 75 e4             	push   -0x1c(%ebp)
  106901:	e8 99 f7 ff ff       	call   10609f <snprintf>
  106906:	83 c4 10             	add    $0x10,%esp
  106909:	89 45 dc             	mov    %eax,-0x24(%ebp)
  10690c:	e9 2e 07 00 00       	jmp    10703f <strftime+0x888>
  106911:	8b 45 14             	mov    0x14(%ebp),%eax
  106914:	8b 40 10             	mov    0x10(%eax),%eax
  106917:	8b 04 85 60 a1 10 00 	mov    0x10a160(,%eax,4),%eax
  10691e:	50                   	push   %eax
  10691f:	68 5c 9b 10 00       	push   $0x109b5c
  106924:	ff 75 0c             	push   0xc(%ebp)
  106927:	ff 75 e4             	push   -0x1c(%ebp)
  10692a:	e8 70 f7 ff ff       	call   10609f <snprintf>
  10692f:	83 c4 10             	add    $0x10,%esp
  106932:	89 45 dc             	mov    %eax,-0x24(%ebp)
  106935:	e9 05 07 00 00       	jmp    10703f <strftime+0x888>
  10693a:	8b 45 14             	mov    0x14(%ebp),%eax
  10693d:	8b 40 14             	mov    0x14(%eax),%eax
  106940:	05 6c 07 00 00       	add    $0x76c,%eax
  106945:	89 45 b4             	mov    %eax,-0x4c(%ebp)
  106948:	8b 45 14             	mov    0x14(%ebp),%eax
  10694b:	8b 38                	mov    (%eax),%edi
  10694d:	8b 45 14             	mov    0x14(%ebp),%eax
  106950:	8b 70 04             	mov    0x4(%eax),%esi
  106953:	8b 45 14             	mov    0x14(%ebp),%eax
  106956:	8b 58 08             	mov    0x8(%eax),%ebx
  106959:	8b 45 14             	mov    0x14(%ebp),%eax
  10695c:	8b 48 0c             	mov    0xc(%eax),%ecx
  10695f:	8b 45 14             	mov    0x14(%ebp),%eax
  106962:	8b 40 10             	mov    0x10(%eax),%eax
  106965:	8b 14 85 a0 a1 10 00 	mov    0x10a1a0(,%eax,4),%edx
  10696c:	8b 45 14             	mov    0x14(%ebp),%eax
  10696f:	8b 40 18             	mov    0x18(%eax),%eax
  106972:	8b 04 85 3c a1 10 00 	mov    0x10a13c(,%eax,4),%eax
  106979:	83 ec 08             	sub    $0x8,%esp
  10697c:	ff 75 b4             	push   -0x4c(%ebp)
  10697f:	57                   	push   %edi
  106980:	56                   	push   %esi
  106981:	53                   	push   %ebx
  106982:	51                   	push   %ecx
  106983:	52                   	push   %edx
  106984:	50                   	push   %eax
  106985:	68 60 9b 10 00       	push   $0x109b60
  10698a:	ff 75 0c             	push   0xc(%ebp)
  10698d:	ff 75 e4             	push   -0x1c(%ebp)
  106990:	e8 0a f7 ff ff       	call   10609f <snprintf>
  106995:	83 c4 30             	add    $0x30,%esp
  106998:	89 45 dc             	mov    %eax,-0x24(%ebp)
  10699b:	e9 9f 06 00 00       	jmp    10703f <strftime+0x888>
  1069a0:	8b 45 14             	mov    0x14(%ebp),%eax
  1069a3:	8b 40 14             	mov    0x14(%eax),%eax
  1069a6:	8d 88 6c 07 00 00    	lea    0x76c(%eax),%ecx
  1069ac:	ba 1f 85 eb 51       	mov    $0x51eb851f,%edx
  1069b1:	89 c8                	mov    %ecx,%eax
  1069b3:	f7 ea                	imul   %edx
  1069b5:	89 d0                	mov    %edx,%eax
  1069b7:	c1 f8 05             	sar    $0x5,%eax
  1069ba:	c1 f9 1f             	sar    $0x1f,%ecx
  1069bd:	89 ca                	mov    %ecx,%edx
  1069bf:	29 d0                	sub    %edx,%eax
  1069c1:	50                   	push   %eax
  1069c2:	68 7f 9b 10 00       	push   $0x109b7f
  1069c7:	ff 75 0c             	push   0xc(%ebp)
  1069ca:	ff 75 e4             	push   -0x1c(%ebp)
  1069cd:	e8 cd f6 ff ff       	call   10609f <snprintf>
  1069d2:	83 c4 10             	add    $0x10,%esp
  1069d5:	89 45 dc             	mov    %eax,-0x24(%ebp)
  1069d8:	e9 62 06 00 00       	jmp    10703f <strftime+0x888>
  1069dd:	8b 45 14             	mov    0x14(%ebp),%eax
  1069e0:	8b 40 0c             	mov    0xc(%eax),%eax
  1069e3:	50                   	push   %eax
  1069e4:	68 7f 9b 10 00       	push   $0x109b7f
  1069e9:	ff 75 0c             	push   0xc(%ebp)
  1069ec:	ff 75 e4             	push   -0x1c(%ebp)
  1069ef:	e8 ab f6 ff ff       	call   10609f <snprintf>
  1069f4:	83 c4 10             	add    $0x10,%esp
  1069f7:	89 45 dc             	mov    %eax,-0x24(%ebp)
  1069fa:	e9 40 06 00 00       	jmp    10703f <strftime+0x888>
  1069ff:	8b 45 14             	mov    0x14(%ebp),%eax
  106a02:	8b 48 14             	mov    0x14(%eax),%ecx
  106a05:	ba 1f 85 eb 51       	mov    $0x51eb851f,%edx
  106a0a:	89 c8                	mov    %ecx,%eax
  106a0c:	f7 ea                	imul   %edx
  106a0e:	89 d0                	mov    %edx,%eax
  106a10:	c1 f8 05             	sar    $0x5,%eax
  106a13:	89 ca                	mov    %ecx,%edx
  106a15:	c1 fa 1f             	sar    $0x1f,%edx
  106a18:	29 d0                	sub    %edx,%eax
  106a1a:	6b d0 64             	imul   $0x64,%eax,%edx
  106a1d:	89 c8                	mov    %ecx,%eax
  106a1f:	29 d0                	sub    %edx,%eax
  106a21:	8b 55 14             	mov    0x14(%ebp),%edx
  106a24:	8b 52 0c             	mov    0xc(%edx),%edx
  106a27:	8b 4d 14             	mov    0x14(%ebp),%ecx
  106a2a:	8b 49 10             	mov    0x10(%ecx),%ecx
  106a2d:	83 c1 01             	add    $0x1,%ecx
  106a30:	83 ec 08             	sub    $0x8,%esp
  106a33:	50                   	push   %eax
  106a34:	52                   	push   %edx
  106a35:	51                   	push   %ecx
  106a36:	68 84 9b 10 00       	push   $0x109b84
  106a3b:	ff 75 0c             	push   0xc(%ebp)
  106a3e:	ff 75 e4             	push   -0x1c(%ebp)
  106a41:	e8 59 f6 ff ff       	call   10609f <snprintf>
  106a46:	83 c4 20             	add    $0x20,%esp
  106a49:	89 45 dc             	mov    %eax,-0x24(%ebp)
  106a4c:	e9 ee 05 00 00       	jmp    10703f <strftime+0x888>
  106a51:	8b 45 14             	mov    0x14(%ebp),%eax
  106a54:	8b 40 0c             	mov    0xc(%eax),%eax
  106a57:	50                   	push   %eax
  106a58:	68 93 9b 10 00       	push   $0x109b93
  106a5d:	ff 75 0c             	push   0xc(%ebp)
  106a60:	ff 75 e4             	push   -0x1c(%ebp)
  106a63:	e8 37 f6 ff ff       	call   10609f <snprintf>
  106a68:	83 c4 10             	add    $0x10,%esp
  106a6b:	89 45 dc             	mov    %eax,-0x24(%ebp)
  106a6e:	e9 cc 05 00 00       	jmp    10703f <strftime+0x888>
  106a73:	8b 45 14             	mov    0x14(%ebp),%eax
  106a76:	8b 40 0c             	mov    0xc(%eax),%eax
  106a79:	8b 55 14             	mov    0x14(%ebp),%edx
  106a7c:	8b 52 10             	mov    0x10(%edx),%edx
  106a7f:	8d 4a 01             	lea    0x1(%edx),%ecx
  106a82:	8b 55 14             	mov    0x14(%ebp),%edx
  106a85:	8b 52 14             	mov    0x14(%edx),%edx
  106a88:	81 c2 6c 07 00 00    	add    $0x76c,%edx
  106a8e:	83 ec 08             	sub    $0x8,%esp
  106a91:	50                   	push   %eax
  106a92:	51                   	push   %ecx
  106a93:	52                   	push   %edx
  106a94:	68 97 9b 10 00       	push   $0x109b97
  106a99:	ff 75 0c             	push   0xc(%ebp)
  106a9c:	ff 75 e4             	push   -0x1c(%ebp)
  106a9f:	e8 fb f5 ff ff       	call   10609f <snprintf>
  106aa4:	83 c4 20             	add    $0x20,%esp
  106aa7:	89 45 dc             	mov    %eax,-0x24(%ebp)
  106aaa:	e9 90 05 00 00       	jmp    10703f <strftime+0x888>
  106aaf:	8b 45 14             	mov    0x14(%ebp),%eax
  106ab2:	8b 40 08             	mov    0x8(%eax),%eax
  106ab5:	50                   	push   %eax
  106ab6:	68 7f 9b 10 00       	push   $0x109b7f
  106abb:	ff 75 0c             	push   0xc(%ebp)
  106abe:	ff 75 e4             	push   -0x1c(%ebp)
  106ac1:	e8 d9 f5 ff ff       	call   10609f <snprintf>
  106ac6:	83 c4 10             	add    $0x10,%esp
  106ac9:	89 45 dc             	mov    %eax,-0x24(%ebp)
  106acc:	e9 6e 05 00 00       	jmp    10703f <strftime+0x888>
  106ad1:	8b 45 14             	mov    0x14(%ebp),%eax
  106ad4:	8b 40 08             	mov    0x8(%eax),%eax
  106ad7:	85 c0                	test   %eax,%eax
  106ad9:	74 39                	je     106b14 <strftime+0x35d>
  106adb:	8b 45 14             	mov    0x14(%ebp),%eax
  106ade:	8b 40 08             	mov    0x8(%eax),%eax
  106ae1:	83 f8 0c             	cmp    $0xc,%eax
  106ae4:	74 27                	je     106b0d <strftime+0x356>
  106ae6:	8b 45 14             	mov    0x14(%ebp),%eax
  106ae9:	8b 48 08             	mov    0x8(%eax),%ecx
  106aec:	ba ab aa aa 2a       	mov    $0x2aaaaaab,%edx
  106af1:	89 c8                	mov    %ecx,%eax
  106af3:	f7 ea                	imul   %edx
  106af5:	d1 fa                	sar    %edx
  106af7:	89 c8                	mov    %ecx,%eax
  106af9:	c1 f8 1f             	sar    $0x1f,%eax
  106afc:	29 c2                	sub    %eax,%edx
  106afe:	89 d0                	mov    %edx,%eax
  106b00:	01 c0                	add    %eax,%eax
  106b02:	01 d0                	add    %edx,%eax
  106b04:	c1 e0 02             	shl    $0x2,%eax
  106b07:	29 c1                	sub    %eax,%ecx
  106b09:	89 ca                	mov    %ecx,%edx
  106b0b:	eb 0c                	jmp    106b19 <strftime+0x362>
  106b0d:	ba 0c 00 00 00       	mov    $0xc,%edx
  106b12:	eb 05                	jmp    106b19 <strftime+0x362>
  106b14:	ba 0c 00 00 00       	mov    $0xc,%edx
  106b19:	52                   	push   %edx
  106b1a:	68 7f 9b 10 00       	push   $0x109b7f
  106b1f:	ff 75 0c             	push   0xc(%ebp)
  106b22:	ff 75 e4             	push   -0x1c(%ebp)
  106b25:	e8 75 f5 ff ff       	call   10609f <snprintf>
  106b2a:	83 c4 10             	add    $0x10,%esp
  106b2d:	89 45 dc             	mov    %eax,-0x24(%ebp)
  106b30:	e9 0a 05 00 00       	jmp    10703f <strftime+0x888>
  106b35:	8b 45 14             	mov    0x14(%ebp),%eax
  106b38:	8b 40 1c             	mov    0x1c(%eax),%eax
  106b3b:	50                   	push   %eax
  106b3c:	68 a6 9b 10 00       	push   $0x109ba6
  106b41:	ff 75 0c             	push   0xc(%ebp)
  106b44:	ff 75 e4             	push   -0x1c(%ebp)
  106b47:	e8 53 f5 ff ff       	call   10609f <snprintf>
  106b4c:	83 c4 10             	add    $0x10,%esp
  106b4f:	89 45 dc             	mov    %eax,-0x24(%ebp)
  106b52:	e9 e8 04 00 00       	jmp    10703f <strftime+0x888>
  106b57:	8b 45 14             	mov    0x14(%ebp),%eax
  106b5a:	8b 40 08             	mov    0x8(%eax),%eax
  106b5d:	50                   	push   %eax
  106b5e:	68 93 9b 10 00       	push   $0x109b93
  106b63:	ff 75 0c             	push   0xc(%ebp)
  106b66:	ff 75 e4             	push   -0x1c(%ebp)
  106b69:	e8 31 f5 ff ff       	call   10609f <snprintf>
  106b6e:	83 c4 10             	add    $0x10,%esp
  106b71:	89 45 dc             	mov    %eax,-0x24(%ebp)
  106b74:	e9 c6 04 00 00       	jmp    10703f <strftime+0x888>
  106b79:	8b 45 14             	mov    0x14(%ebp),%eax
  106b7c:	8b 40 08             	mov    0x8(%eax),%eax
  106b7f:	85 c0                	test   %eax,%eax
  106b81:	74 39                	je     106bbc <strftime+0x405>
  106b83:	8b 45 14             	mov    0x14(%ebp),%eax
  106b86:	8b 40 08             	mov    0x8(%eax),%eax
  106b89:	83 f8 0c             	cmp    $0xc,%eax
  106b8c:	74 27                	je     106bb5 <strftime+0x3fe>
  106b8e:	8b 45 14             	mov    0x14(%ebp),%eax
  106b91:	8b 48 08             	mov    0x8(%eax),%ecx
  106b94:	ba ab aa aa 2a       	mov    $0x2aaaaaab,%edx
  106b99:	89 c8                	mov    %ecx,%eax
  106b9b:	f7 ea                	imul   %edx
  106b9d:	d1 fa                	sar    %edx
  106b9f:	89 c8                	mov    %ecx,%eax
  106ba1:	c1 f8 1f             	sar    $0x1f,%eax
  106ba4:	29 c2                	sub    %eax,%edx
  106ba6:	89 d0                	mov    %edx,%eax
  106ba8:	01 c0                	add    %eax,%eax
  106baa:	01 d0                	add    %edx,%eax
  106bac:	c1 e0 02             	shl    $0x2,%eax
  106baf:	29 c1                	sub    %eax,%ecx
  106bb1:	89 ca                	mov    %ecx,%edx
  106bb3:	eb 0c                	jmp    106bc1 <strftime+0x40a>
  106bb5:	ba 0c 00 00 00       	mov    $0xc,%edx
  106bba:	eb 05                	jmp    106bc1 <strftime+0x40a>
  106bbc:	ba 0c 00 00 00       	mov    $0xc,%edx
  106bc1:	52                   	push   %edx
  106bc2:	68 93 9b 10 00       	push   $0x109b93
  106bc7:	ff 75 0c             	push   0xc(%ebp)
  106bca:	ff 75 e4             	push   -0x1c(%ebp)
  106bcd:	e8 cd f4 ff ff       	call   10609f <snprintf>
  106bd2:	83 c4 10             	add    $0x10,%esp
  106bd5:	89 45 dc             	mov    %eax,-0x24(%ebp)
  106bd8:	e9 62 04 00 00       	jmp    10703f <strftime+0x888>
  106bdd:	8b 45 14             	mov    0x14(%ebp),%eax
  106be0:	8b 40 10             	mov    0x10(%eax),%eax
  106be3:	83 c0 01             	add    $0x1,%eax
  106be6:	50                   	push   %eax
  106be7:	68 7f 9b 10 00       	push   $0x109b7f
  106bec:	ff 75 0c             	push   0xc(%ebp)
  106bef:	ff 75 e4             	push   -0x1c(%ebp)
  106bf2:	e8 a8 f4 ff ff       	call   10609f <snprintf>
  106bf7:	83 c4 10             	add    $0x10,%esp
  106bfa:	89 45 dc             	mov    %eax,-0x24(%ebp)
  106bfd:	e9 3d 04 00 00       	jmp    10703f <strftime+0x888>
  106c02:	8b 45 14             	mov    0x14(%ebp),%eax
  106c05:	8b 40 04             	mov    0x4(%eax),%eax
  106c08:	50                   	push   %eax
  106c09:	68 7f 9b 10 00       	push   $0x109b7f
  106c0e:	ff 75 0c             	push   0xc(%ebp)
  106c11:	ff 75 e4             	push   -0x1c(%ebp)
  106c14:	e8 86 f4 ff ff       	call   10609f <snprintf>
  106c19:	83 c4 10             	add    $0x10,%esp
  106c1c:	89 45 dc             	mov    %eax,-0x24(%ebp)
  106c1f:	e9 1b 04 00 00       	jmp    10703f <strftime+0x888>
  106c24:	83 ec 04             	sub    $0x4,%esp
  106c27:	68 ab 9b 10 00       	push   $0x109bab
  106c2c:	ff 75 0c             	push   0xc(%ebp)
  106c2f:	ff 75 e4             	push   -0x1c(%ebp)
  106c32:	e8 68 f4 ff ff       	call   10609f <snprintf>
  106c37:	83 c4 10             	add    $0x10,%esp
  106c3a:	89 45 dc             	mov    %eax,-0x24(%ebp)
  106c3d:	e9 fd 03 00 00       	jmp    10703f <strftime+0x888>
  106c42:	8b 45 14             	mov    0x14(%ebp),%eax
  106c45:	8b 40 08             	mov    0x8(%eax),%eax
  106c48:	83 f8 0b             	cmp    $0xb,%eax
  106c4b:	7f 07                	jg     106c54 <strftime+0x49d>
  106c4d:	b8 ad 9b 10 00       	mov    $0x109bad,%eax
  106c52:	eb 05                	jmp    106c59 <strftime+0x4a2>
  106c54:	b8 b0 9b 10 00       	mov    $0x109bb0,%eax
  106c59:	50                   	push   %eax
  106c5a:	68 5c 9b 10 00       	push   $0x109b5c
  106c5f:	ff 75 0c             	push   0xc(%ebp)
  106c62:	ff 75 e4             	push   -0x1c(%ebp)
  106c65:	e8 35 f4 ff ff       	call   10609f <snprintf>
  106c6a:	83 c4 10             	add    $0x10,%esp
  106c6d:	89 45 dc             	mov    %eax,-0x24(%ebp)
  106c70:	e9 ca 03 00 00       	jmp    10703f <strftime+0x888>
  106c75:	8b 45 14             	mov    0x14(%ebp),%eax
  106c78:	8b 40 08             	mov    0x8(%eax),%eax
  106c7b:	83 f8 0b             	cmp    $0xb,%eax
  106c7e:	7f 07                	jg     106c87 <strftime+0x4d0>
  106c80:	b8 b3 9b 10 00       	mov    $0x109bb3,%eax
  106c85:	eb 05                	jmp    106c8c <strftime+0x4d5>
  106c87:	b8 b6 9b 10 00       	mov    $0x109bb6,%eax
  106c8c:	50                   	push   %eax
  106c8d:	68 5c 9b 10 00       	push   $0x109b5c
  106c92:	ff 75 0c             	push   0xc(%ebp)
  106c95:	ff 75 e4             	push   -0x1c(%ebp)
  106c98:	e8 02 f4 ff ff       	call   10609f <snprintf>
  106c9d:	83 c4 10             	add    $0x10,%esp
  106ca0:	89 45 dc             	mov    %eax,-0x24(%ebp)
  106ca3:	e9 97 03 00 00       	jmp    10703f <strftime+0x888>
  106ca8:	8b 45 14             	mov    0x14(%ebp),%eax
  106cab:	8b 40 08             	mov    0x8(%eax),%eax
  106cae:	83 f8 0b             	cmp    $0xb,%eax
  106cb1:	7f 07                	jg     106cba <strftime+0x503>
  106cb3:	bf ad 9b 10 00       	mov    $0x109bad,%edi
  106cb8:	eb 05                	jmp    106cbf <strftime+0x508>
  106cba:	bf b0 9b 10 00       	mov    $0x109bb0,%edi
  106cbf:	8b 45 14             	mov    0x14(%ebp),%eax
  106cc2:	8b 30                	mov    (%eax),%esi
  106cc4:	8b 45 14             	mov    0x14(%ebp),%eax
  106cc7:	8b 58 04             	mov    0x4(%eax),%ebx
  106cca:	8b 45 14             	mov    0x14(%ebp),%eax
  106ccd:	8b 40 08             	mov    0x8(%eax),%eax
  106cd0:	85 c0                	test   %eax,%eax
  106cd2:	74 39                	je     106d0d <strftime+0x556>
  106cd4:	8b 45 14             	mov    0x14(%ebp),%eax
  106cd7:	8b 40 08             	mov    0x8(%eax),%eax
  106cda:	83 f8 0c             	cmp    $0xc,%eax
  106cdd:	74 27                	je     106d06 <strftime+0x54f>
  106cdf:	8b 45 14             	mov    0x14(%ebp),%eax
  106ce2:	8b 48 08             	mov    0x8(%eax),%ecx
  106ce5:	ba ab aa aa 2a       	mov    $0x2aaaaaab,%edx
  106cea:	89 c8                	mov    %ecx,%eax
  106cec:	f7 ea                	imul   %edx
  106cee:	d1 fa                	sar    %edx
  106cf0:	89 c8                	mov    %ecx,%eax
  106cf2:	c1 f8 1f             	sar    $0x1f,%eax
  106cf5:	29 c2                	sub    %eax,%edx
  106cf7:	89 d0                	mov    %edx,%eax
  106cf9:	01 c0                	add    %eax,%eax
  106cfb:	01 d0                	add    %edx,%eax
  106cfd:	c1 e0 02             	shl    $0x2,%eax
  106d00:	29 c1                	sub    %eax,%ecx
  106d02:	89 ca                	mov    %ecx,%edx
  106d04:	eb 0c                	jmp    106d12 <strftime+0x55b>
  106d06:	ba 0c 00 00 00       	mov    $0xc,%edx
  106d0b:	eb 05                	jmp    106d12 <strftime+0x55b>
  106d0d:	ba 0c 00 00 00       	mov    $0xc,%edx
  106d12:	83 ec 04             	sub    $0x4,%esp
  106d15:	57                   	push   %edi
  106d16:	56                   	push   %esi
  106d17:	53                   	push   %ebx
  106d18:	52                   	push   %edx
  106d19:	68 b9 9b 10 00       	push   $0x109bb9
  106d1e:	ff 75 0c             	push   0xc(%ebp)
  106d21:	ff 75 e4             	push   -0x1c(%ebp)
  106d24:	e8 76 f3 ff ff       	call   10609f <snprintf>
  106d29:	83 c4 20             	add    $0x20,%esp
  106d2c:	89 45 dc             	mov    %eax,-0x24(%ebp)
  106d2f:	e9 0b 03 00 00       	jmp    10703f <strftime+0x888>
  106d34:	8b 45 14             	mov    0x14(%ebp),%eax
  106d37:	8b 50 04             	mov    0x4(%eax),%edx
  106d3a:	8b 45 14             	mov    0x14(%ebp),%eax
  106d3d:	8b 40 08             	mov    0x8(%eax),%eax
  106d40:	83 ec 0c             	sub    $0xc,%esp
  106d43:	52                   	push   %edx
  106d44:	50                   	push   %eax
  106d45:	68 cb 9b 10 00       	push   $0x109bcb
  106d4a:	ff 75 0c             	push   0xc(%ebp)
  106d4d:	ff 75 e4             	push   -0x1c(%ebp)
  106d50:	e8 4a f3 ff ff       	call   10609f <snprintf>
  106d55:	83 c4 20             	add    $0x20,%esp
  106d58:	89 45 dc             	mov    %eax,-0x24(%ebp)
  106d5b:	e9 df 02 00 00       	jmp    10703f <strftime+0x888>
  106d60:	83 ec 0c             	sub    $0xc,%esp
  106d63:	ff 75 14             	push   0x14(%ebp)
  106d66:	e8 cc f9 ff ff       	call   106737 <mktime>
  106d6b:	83 c4 10             	add    $0x10,%esp
  106d6e:	50                   	push   %eax
  106d6f:	68 d5 9b 10 00       	push   $0x109bd5
  106d74:	ff 75 0c             	push   0xc(%ebp)
  106d77:	ff 75 e4             	push   -0x1c(%ebp)
  106d7a:	e8 20 f3 ff ff       	call   10609f <snprintf>
  106d7f:	83 c4 10             	add    $0x10,%esp
  106d82:	89 45 dc             	mov    %eax,-0x24(%ebp)
  106d85:	e9 b5 02 00 00       	jmp    10703f <strftime+0x888>
  106d8a:	8b 45 14             	mov    0x14(%ebp),%eax
  106d8d:	8b 00                	mov    (%eax),%eax
  106d8f:	50                   	push   %eax
  106d90:	68 7f 9b 10 00       	push   $0x109b7f
  106d95:	ff 75 0c             	push   0xc(%ebp)
  106d98:	ff 75 e4             	push   -0x1c(%ebp)
  106d9b:	e8 ff f2 ff ff       	call   10609f <snprintf>
  106da0:	83 c4 10             	add    $0x10,%esp
  106da3:	89 45 dc             	mov    %eax,-0x24(%ebp)
  106da6:	e9 94 02 00 00       	jmp    10703f <strftime+0x888>
  106dab:	83 ec 04             	sub    $0x4,%esp
  106dae:	68 d9 9b 10 00       	push   $0x109bd9
  106db3:	ff 75 0c             	push   0xc(%ebp)
  106db6:	ff 75 e4             	push   -0x1c(%ebp)
  106db9:	e8 e1 f2 ff ff       	call   10609f <snprintf>
  106dbe:	83 c4 10             	add    $0x10,%esp
  106dc1:	89 45 dc             	mov    %eax,-0x24(%ebp)
  106dc4:	e9 76 02 00 00       	jmp    10703f <strftime+0x888>
  106dc9:	8b 45 14             	mov    0x14(%ebp),%eax
  106dcc:	8b 08                	mov    (%eax),%ecx
  106dce:	8b 45 14             	mov    0x14(%ebp),%eax
  106dd1:	8b 50 04             	mov    0x4(%eax),%edx
  106dd4:	8b 45 14             	mov    0x14(%ebp),%eax
  106dd7:	8b 40 08             	mov    0x8(%eax),%eax
  106dda:	83 ec 08             	sub    $0x8,%esp
  106ddd:	51                   	push   %ecx
  106dde:	52                   	push   %edx
  106ddf:	50                   	push   %eax
  106de0:	68 db 9b 10 00       	push   $0x109bdb
  106de5:	ff 75 0c             	push   0xc(%ebp)
  106de8:	ff 75 e4             	push   -0x1c(%ebp)
  106deb:	e8 af f2 ff ff       	call   10609f <snprintf>
  106df0:	83 c4 20             	add    $0x20,%esp
  106df3:	89 45 dc             	mov    %eax,-0x24(%ebp)
  106df6:	e9 44 02 00 00       	jmp    10703f <strftime+0x888>
  106dfb:	8b 45 14             	mov    0x14(%ebp),%eax
  106dfe:	8b 40 18             	mov    0x18(%eax),%eax
  106e01:	85 c0                	test   %eax,%eax
  106e03:	74 08                	je     106e0d <strftime+0x656>
  106e05:	8b 45 14             	mov    0x14(%ebp),%eax
  106e08:	8b 40 18             	mov    0x18(%eax),%eax
  106e0b:	eb 05                	jmp    106e12 <strftime+0x65b>
  106e0d:	b8 07 00 00 00       	mov    $0x7,%eax
  106e12:	50                   	push   %eax
  106e13:	68 ea 9b 10 00       	push   $0x109bea
  106e18:	ff 75 0c             	push   0xc(%ebp)
  106e1b:	ff 75 e4             	push   -0x1c(%ebp)
  106e1e:	e8 7c f2 ff ff       	call   10609f <snprintf>
  106e23:	83 c4 10             	add    $0x10,%esp
  106e26:	89 45 dc             	mov    %eax,-0x24(%ebp)
  106e29:	e9 11 02 00 00       	jmp    10703f <strftime+0x888>
  106e2e:	8b 45 14             	mov    0x14(%ebp),%eax
  106e31:	8b 40 18             	mov    0x18(%eax),%eax
  106e34:	50                   	push   %eax
  106e35:	68 ea 9b 10 00       	push   $0x109bea
  106e3a:	ff 75 0c             	push   0xc(%ebp)
  106e3d:	ff 75 e4             	push   -0x1c(%ebp)
  106e40:	e8 5a f2 ff ff       	call   10609f <snprintf>
  106e45:	83 c4 10             	add    $0x10,%esp
  106e48:	89 45 dc             	mov    %eax,-0x24(%ebp)
  106e4b:	e9 ef 01 00 00       	jmp    10703f <strftime+0x888>
  106e50:	8b 45 14             	mov    0x14(%ebp),%eax
  106e53:	8b 48 14             	mov    0x14(%eax),%ecx
  106e56:	ba 1f 85 eb 51       	mov    $0x51eb851f,%edx
  106e5b:	89 c8                	mov    %ecx,%eax
  106e5d:	f7 ea                	imul   %edx
  106e5f:	89 d0                	mov    %edx,%eax
  106e61:	c1 f8 05             	sar    $0x5,%eax
  106e64:	89 ca                	mov    %ecx,%edx
  106e66:	c1 fa 1f             	sar    $0x1f,%edx
  106e69:	29 d0                	sub    %edx,%eax
  106e6b:	6b d0 64             	imul   $0x64,%eax,%edx
  106e6e:	89 c8                	mov    %ecx,%eax
  106e70:	29 d0                	sub    %edx,%eax
  106e72:	8b 55 14             	mov    0x14(%ebp),%edx
  106e75:	8b 52 0c             	mov    0xc(%edx),%edx
  106e78:	8b 4d 14             	mov    0x14(%ebp),%ecx
  106e7b:	8b 49 10             	mov    0x10(%ecx),%ecx
  106e7e:	83 c1 01             	add    $0x1,%ecx
  106e81:	83 ec 08             	sub    $0x8,%esp
  106e84:	50                   	push   %eax
  106e85:	52                   	push   %edx
  106e86:	51                   	push   %ecx
  106e87:	68 84 9b 10 00       	push   $0x109b84
  106e8c:	ff 75 0c             	push   0xc(%ebp)
  106e8f:	ff 75 e4             	push   -0x1c(%ebp)
  106e92:	e8 08 f2 ff ff       	call   10609f <snprintf>
  106e97:	83 c4 20             	add    $0x20,%esp
  106e9a:	89 45 dc             	mov    %eax,-0x24(%ebp)
  106e9d:	e9 9d 01 00 00       	jmp    10703f <strftime+0x888>
  106ea2:	8b 45 14             	mov    0x14(%ebp),%eax
  106ea5:	8b 08                	mov    (%eax),%ecx
  106ea7:	8b 45 14             	mov    0x14(%ebp),%eax
  106eaa:	8b 50 04             	mov    0x4(%eax),%edx
  106ead:	8b 45 14             	mov    0x14(%ebp),%eax
  106eb0:	8b 40 08             	mov    0x8(%eax),%eax
  106eb3:	83 ec 08             	sub    $0x8,%esp
  106eb6:	51                   	push   %ecx
  106eb7:	52                   	push   %edx
  106eb8:	50                   	push   %eax
  106eb9:	68 db 9b 10 00       	push   $0x109bdb
  106ebe:	ff 75 0c             	push   0xc(%ebp)
  106ec1:	ff 75 e4             	push   -0x1c(%ebp)
  106ec4:	e8 d6 f1 ff ff       	call   10609f <snprintf>
  106ec9:	83 c4 20             	add    $0x20,%esp
  106ecc:	89 45 dc             	mov    %eax,-0x24(%ebp)
  106ecf:	e9 6b 01 00 00       	jmp    10703f <strftime+0x888>
  106ed4:	8b 45 14             	mov    0x14(%ebp),%eax
  106ed7:	8b 48 14             	mov    0x14(%eax),%ecx
  106eda:	ba 1f 85 eb 51       	mov    $0x51eb851f,%edx
  106edf:	89 c8                	mov    %ecx,%eax
  106ee1:	f7 ea                	imul   %edx
  106ee3:	89 d0                	mov    %edx,%eax
  106ee5:	c1 f8 05             	sar    $0x5,%eax
  106ee8:	89 ca                	mov    %ecx,%edx
  106eea:	c1 fa 1f             	sar    $0x1f,%edx
  106eed:	29 d0                	sub    %edx,%eax
  106eef:	6b d0 64             	imul   $0x64,%eax,%edx
  106ef2:	89 c8                	mov    %ecx,%eax
  106ef4:	29 d0                	sub    %edx,%eax
  106ef6:	50                   	push   %eax
  106ef7:	68 7f 9b 10 00       	push   $0x109b7f
  106efc:	ff 75 0c             	push   0xc(%ebp)
  106eff:	ff 75 e4             	push   -0x1c(%ebp)
  106f02:	e8 98 f1 ff ff       	call   10609f <snprintf>
  106f07:	83 c4 10             	add    $0x10,%esp
  106f0a:	89 45 dc             	mov    %eax,-0x24(%ebp)
  106f0d:	e9 2d 01 00 00       	jmp    10703f <strftime+0x888>
  106f12:	8b 45 14             	mov    0x14(%ebp),%eax
  106f15:	8b 40 14             	mov    0x14(%eax),%eax
  106f18:	05 6c 07 00 00       	add    $0x76c,%eax
  106f1d:	50                   	push   %eax
  106f1e:	68 ed 9b 10 00       	push   $0x109bed
  106f23:	ff 75 0c             	push   0xc(%ebp)
  106f26:	ff 75 e4             	push   -0x1c(%ebp)
  106f29:	e8 71 f1 ff ff       	call   10609f <snprintf>
  106f2e:	83 c4 10             	add    $0x10,%esp
  106f31:	89 45 dc             	mov    %eax,-0x24(%ebp)
  106f34:	e9 06 01 00 00       	jmp    10703f <strftime+0x888>
  106f39:	8b 45 14             	mov    0x14(%ebp),%eax
  106f3c:	8b 40 28             	mov    0x28(%eax),%eax
  106f3f:	89 c2                	mov    %eax,%edx
  106f41:	f7 da                	neg    %edx
  106f43:	0f 49 c2             	cmovns %edx,%eax
  106f46:	89 45 d0             	mov    %eax,-0x30(%ebp)
  106f49:	8b 45 14             	mov    0x14(%ebp),%eax
  106f4c:	8b 40 28             	mov    0x28(%eax),%eax
  106f4f:	85 c0                	test   %eax,%eax
  106f51:	78 07                	js     106f5a <strftime+0x7a3>
  106f53:	b8 2b 00 00 00       	mov    $0x2b,%eax
  106f58:	eb 05                	jmp    106f5f <strftime+0x7a8>
  106f5a:	b8 2d 00 00 00       	mov    $0x2d,%eax
  106f5f:	88 45 cf             	mov    %al,-0x31(%ebp)
  106f62:	8b 4d d0             	mov    -0x30(%ebp),%ecx
  106f65:	ba c5 b3 a2 91       	mov    $0x91a2b3c5,%edx
  106f6a:	89 c8                	mov    %ecx,%eax
  106f6c:	f7 ea                	imul   %edx
  106f6e:	8d 04 0a             	lea    (%edx,%ecx,1),%eax
  106f71:	c1 f8 0b             	sar    $0xb,%eax
  106f74:	c1 f9 1f             	sar    $0x1f,%ecx
  106f77:	89 ca                	mov    %ecx,%edx
  106f79:	29 d0                	sub    %edx,%eax
  106f7b:	89 45 c8             	mov    %eax,-0x38(%ebp)
  106f7e:	8b 4d d0             	mov    -0x30(%ebp),%ecx
  106f81:	ba 89 88 88 88       	mov    $0x88888889,%edx
  106f86:	89 c8                	mov    %ecx,%eax
  106f88:	f7 ea                	imul   %edx
  106f8a:	8d 04 0a             	lea    (%edx,%ecx,1),%eax
  106f8d:	c1 f8 05             	sar    $0x5,%eax
  106f90:	89 c2                	mov    %eax,%edx
  106f92:	89 c8                	mov    %ecx,%eax
  106f94:	c1 f8 1f             	sar    $0x1f,%eax
  106f97:	89 d1                	mov    %edx,%ecx
  106f99:	29 c1                	sub    %eax,%ecx
  106f9b:	ba 89 88 88 88       	mov    $0x88888889,%edx
  106fa0:	89 c8                	mov    %ecx,%eax
  106fa2:	f7 ea                	imul   %edx
  106fa4:	8d 04 0a             	lea    (%edx,%ecx,1),%eax
  106fa7:	c1 f8 05             	sar    $0x5,%eax
  106faa:	89 ca                	mov    %ecx,%edx
  106fac:	c1 fa 1f             	sar    $0x1f,%edx
  106faf:	29 d0                	sub    %edx,%eax
  106fb1:	89 45 c4             	mov    %eax,-0x3c(%ebp)
  106fb4:	8b 45 c4             	mov    -0x3c(%ebp),%eax
  106fb7:	6b c0 3c             	imul   $0x3c,%eax,%eax
  106fba:	29 c1                	sub    %eax,%ecx
  106fbc:	89 ca                	mov    %ecx,%edx
  106fbe:	89 55 c4             	mov    %edx,-0x3c(%ebp)
  106fc1:	0f be 45 cf          	movsbl -0x31(%ebp),%eax
  106fc5:	83 ec 08             	sub    $0x8,%esp
  106fc8:	ff 75 c4             	push   -0x3c(%ebp)
  106fcb:	ff 75 c8             	push   -0x38(%ebp)
  106fce:	50                   	push   %eax
  106fcf:	68 f2 9b 10 00       	push   $0x109bf2
  106fd4:	ff 75 0c             	push   0xc(%ebp)
  106fd7:	ff 75 e4             	push   -0x1c(%ebp)
  106fda:	e8 c0 f0 ff ff       	call   10609f <snprintf>
  106fdf:	83 c4 20             	add    $0x20,%esp
  106fe2:	89 45 dc             	mov    %eax,-0x24(%ebp)
  106fe5:	eb 58                	jmp    10703f <strftime+0x888>
  106fe7:	8b 45 14             	mov    0x14(%ebp),%eax
  106fea:	8b 40 24             	mov    0x24(%eax),%eax
  106fed:	83 ec 04             	sub    $0x4,%esp
  106ff0:	50                   	push   %eax
  106ff1:	ff 75 0c             	push   0xc(%ebp)
  106ff4:	ff 75 e4             	push   -0x1c(%ebp)
  106ff7:	e8 a3 f0 ff ff       	call   10609f <snprintf>
  106ffc:	83 c4 10             	add    $0x10,%esp
  106fff:	89 45 dc             	mov    %eax,-0x24(%ebp)
  107002:	eb 3b                	jmp    10703f <strftime+0x888>
  107004:	6a 25                	push   $0x25
  107006:	68 fd 9b 10 00       	push   $0x109bfd
  10700b:	ff 75 0c             	push   0xc(%ebp)
  10700e:	ff 75 e4             	push   -0x1c(%ebp)
  107011:	e8 89 f0 ff ff       	call   10609f <snprintf>
  107016:	83 c4 10             	add    $0x10,%esp
  107019:	89 45 dc             	mov    %eax,-0x24(%ebp)
  10701c:	eb 21                	jmp    10703f <strftime+0x888>
  10701e:	8b 45 e0             	mov    -0x20(%ebp),%eax
  107021:	0f b6 00             	movzbl (%eax),%eax
  107024:	0f be c0             	movsbl %al,%eax
  107027:	50                   	push   %eax
  107028:	68 00 9c 10 00       	push   $0x109c00
  10702d:	ff 75 0c             	push   0xc(%ebp)
  107030:	ff 75 e4             	push   -0x1c(%ebp)
  107033:	e8 67 f0 ff ff       	call   10609f <snprintf>
  107038:	83 c4 10             	add    $0x10,%esp
  10703b:	89 45 dc             	mov    %eax,-0x24(%ebp)
  10703e:	90                   	nop
  10703f:	83 7d dc 00          	cmpl   $0x0,-0x24(%ebp)
  107043:	79 07                	jns    10704c <strftime+0x895>
  107045:	b8 00 00 00 00       	mov    $0x0,%eax
  10704a:	eb 39                	jmp    107085 <strftime+0x8ce>
  10704c:	8b 45 dc             	mov    -0x24(%ebp),%eax
  10704f:	3b 45 0c             	cmp    0xc(%ebp),%eax
  107052:	72 07                	jb     10705b <strftime+0x8a4>
  107054:	b8 00 00 00 00       	mov    $0x0,%eax
  107059:	eb 2a                	jmp    107085 <strftime+0x8ce>
  10705b:	8b 45 dc             	mov    -0x24(%ebp),%eax
  10705e:	29 45 0c             	sub    %eax,0xc(%ebp)
  107061:	8b 45 dc             	mov    -0x24(%ebp),%eax
  107064:	01 45 e4             	add    %eax,-0x1c(%ebp)
  107067:	83 45 e0 01          	addl   $0x1,-0x20(%ebp)
  10706b:	8b 45 e0             	mov    -0x20(%ebp),%eax
  10706e:	0f b6 00             	movzbl (%eax),%eax
  107071:	84 c0                	test   %al,%al
  107073:	0f 85 86 f7 ff ff    	jne    1067ff <strftime+0x48>
  107079:	8b 45 e4             	mov    -0x1c(%ebp),%eax
  10707c:	c6 00 00             	movb   $0x0,(%eax)
  10707f:	8b 45 e4             	mov    -0x1c(%ebp),%eax
  107082:	2b 45 08             	sub    0x8(%ebp),%eax
  107085:	8d 65 f4             	lea    -0xc(%ebp),%esp
  107088:	5b                   	pop    %ebx
  107089:	5e                   	pop    %esi
  10708a:	5f                   	pop    %edi
  10708b:	5d                   	pop    %ebp
  10708c:	c3                   	ret    

0010708d <asctime>:
  10708d:	55                   	push   %ebp
  10708e:	89 e5                	mov    %esp,%ebp
  107090:	83 ec 08             	sub    $0x8,%esp
  107093:	ff 75 08             	push   0x8(%ebp)
  107096:	68 6c 9d 10 00       	push   $0x109d6c
  10709b:	6a 1a                	push   $0x1a
  10709d:	68 8c ff 10 00       	push   $0x10ff8c
  1070a2:	e8 10 f7 ff ff       	call   1067b7 <strftime>
  1070a7:	83 c4 10             	add    $0x10,%esp
  1070aa:	b8 8c ff 10 00       	mov    $0x10ff8c,%eax
  1070af:	c9                   	leave  
  1070b0:	c3                   	ret    

001070b1 <time>:
  1070b1:	55                   	push   %ebp
  1070b2:	89 e5                	mov    %esp,%ebp
  1070b4:	83 ec 18             	sub    $0x18,%esp
  1070b7:	83 ec 08             	sub    $0x8,%esp
  1070ba:	6a 00                	push   $0x0
  1070bc:	8d 45 f0             	lea    -0x10(%ebp),%eax
  1070bf:	50                   	push   %eax
  1070c0:	e8 47 00 00 00       	call   10710c <gettimeofday>
  1070c5:	83 c4 10             	add    $0x10,%esp
  1070c8:	83 7d 08 00          	cmpl   $0x0,0x8(%ebp)
  1070cc:	74 08                	je     1070d6 <time+0x25>
  1070ce:	8b 55 f0             	mov    -0x10(%ebp),%edx
  1070d1:	8b 45 08             	mov    0x8(%ebp),%eax
  1070d4:	89 10                	mov    %edx,(%eax)
  1070d6:	8b 45 f0             	mov    -0x10(%ebp),%eax
  1070d9:	c9                   	leave  
  1070da:	c3                   	ret    

001070db <difftime>:
  1070db:	55                   	push   %ebp
  1070dc:	89 e5                	mov    %esp,%ebp
  1070de:	83 ec 08             	sub    $0x8,%esp
  1070e1:	8b 45 08             	mov    0x8(%ebp),%eax
  1070e4:	2b 45 0c             	sub    0xc(%ebp),%eax
  1070e7:	89 45 fc             	mov    %eax,-0x4(%ebp)
  1070ea:	db 45 fc             	fildl  -0x4(%ebp)
  1070ed:	c9                   	leave  
  1070ee:	c3                   	ret    

001070ef <now>:
  1070ef:	55                   	push   %ebp
  1070f0:	89 e5                	mov    %esp,%ebp
  1070f2:	83 ec 18             	sub    $0x18,%esp
  1070f5:	83 ec 08             	sub    $0x8,%esp
  1070f8:	6a 00                	push   $0x0
  1070fa:	8d 45 f0             	lea    -0x10(%ebp),%eax
  1070fd:	50                   	push   %eax
  1070fe:	e8 09 00 00 00       	call   10710c <gettimeofday>
  107103:	83 c4 10             	add    $0x10,%esp
  107106:	8b 45 f0             	mov    -0x10(%ebp),%eax
  107109:	99                   	cltd   
  10710a:	c9                   	leave  
  10710b:	c3                   	ret    

0010710c <gettimeofday>:
  10710c:	55                   	push   %ebp
  10710d:	89 e5                	mov    %esp,%ebp
  10710f:	83 ec 08             	sub    $0x8,%esp
  107112:	83 ec 08             	sub    $0x8,%esp
  107115:	ff 75 0c             	push   0xc(%ebp)
  107118:	ff 75 08             	push   0x8(%ebp)
  10711b:	e8 f6 8f ff ff       	call   100116 <clock_gettimeofday>
  107120:	83 c4 10             	add    $0x10,%esp
  107123:	c9                   	leave  
  107124:	c3                   	ret    
  107125:	66 90                	xchg   %ax,%ax
  107127:	66 90                	xchg   %ax,%ax
  107129:	66 90                	xchg   %ax,%ax
  10712b:	66 90                	xchg   %ax,%ax
  10712d:	66 90                	xchg   %ax,%ax
  10712f:	90                   	nop

00107130 <__udivdi3>:
  107130:	55                   	push   %ebp
  107131:	89 e5                	mov    %esp,%ebp
  107133:	57                   	push   %edi
  107134:	56                   	push   %esi
  107135:	53                   	push   %ebx
  107136:	83 ec 1c             	sub    $0x1c,%esp
  107139:	8b 7d 08             	mov    0x8(%ebp),%edi
  10713c:	8b 45 14             	mov    0x14(%ebp),%eax
  10713f:	8b 75 0c             	mov    0xc(%ebp),%esi
  107142:	8b 5d 10             	mov    0x10(%ebp),%ebx
  107145:	89 7d e4             	mov    %edi,-0x1c(%ebp)
  107148:	85 c0                	test   %eax,%eax
  10714a:	75 1c                	jne    107168 <__udivdi3+0x38>
  10714c:	39 de                	cmp    %ebx,%esi
  10714e:	73 50                	jae    1071a0 <__udivdi3+0x70>
  107150:	89 f8                	mov    %edi,%eax
  107152:	31 ff                	xor    %edi,%edi
  107154:	89 f2                	mov    %esi,%edx
  107156:	f7 f3                	div    %ebx
  107158:	89 fa                	mov    %edi,%edx
  10715a:	83 c4 1c             	add    $0x1c,%esp
  10715d:	5b                   	pop    %ebx
  10715e:	5e                   	pop    %esi
  10715f:	5f                   	pop    %edi
  107160:	5d                   	pop    %ebp
  107161:	c3                   	ret    
  107162:	8d b6 00 00 00 00    	lea    0x0(%esi),%esi
  107168:	39 c6                	cmp    %eax,%esi
  10716a:	73 14                	jae    107180 <__udivdi3+0x50>
  10716c:	31 ff                	xor    %edi,%edi
  10716e:	31 c0                	xor    %eax,%eax
  107170:	89 fa                	mov    %edi,%edx
  107172:	83 c4 1c             	add    $0x1c,%esp
  107175:	5b                   	pop    %ebx
  107176:	5e                   	pop    %esi
  107177:	5f                   	pop    %edi
  107178:	5d                   	pop    %ebp
  107179:	c3                   	ret    
  10717a:	8d b6 00 00 00 00    	lea    0x0(%esi),%esi
  107180:	0f bd f8             	bsr    %eax,%edi
  107183:	83 f7 1f             	xor    $0x1f,%edi
  107186:	75 48                	jne    1071d0 <__udivdi3+0xa0>
  107188:	39 f0                	cmp    %esi,%eax
  10718a:	72 07                	jb     107193 <__udivdi3+0x63>
  10718c:	31 c0                	xor    %eax,%eax
  10718e:	39 5d e4             	cmp    %ebx,-0x1c(%ebp)
  107191:	72 dd                	jb     107170 <__udivdi3+0x40>
  107193:	b8 01 00 00 00       	mov    $0x1,%eax
  107198:	eb d6                	jmp    107170 <__udivdi3+0x40>
  10719a:	8d b6 00 00 00 00    	lea    0x0(%esi),%esi
  1071a0:	89 d9                	mov    %ebx,%ecx
  1071a2:	85 db                	test   %ebx,%ebx
  1071a4:	75 0b                	jne    1071b1 <__udivdi3+0x81>
  1071a6:	b8 01 00 00 00       	mov    $0x1,%eax
  1071ab:	31 d2                	xor    %edx,%edx
  1071ad:	f7 f3                	div    %ebx
  1071af:	89 c1                	mov    %eax,%ecx
  1071b1:	31 d2                	xor    %edx,%edx
  1071b3:	89 f0                	mov    %esi,%eax
  1071b5:	f7 f1                	div    %ecx
  1071b7:	89 c6                	mov    %eax,%esi
  1071b9:	8b 45 e4             	mov    -0x1c(%ebp),%eax
  1071bc:	89 f7                	mov    %esi,%edi
  1071be:	f7 f1                	div    %ecx
  1071c0:	89 fa                	mov    %edi,%edx
  1071c2:	83 c4 1c             	add    $0x1c,%esp
  1071c5:	5b                   	pop    %ebx
  1071c6:	5e                   	pop    %esi
  1071c7:	5f                   	pop    %edi
  1071c8:	5d                   	pop    %ebp
  1071c9:	c3                   	ret    
  1071ca:	8d b6 00 00 00 00    	lea    0x0(%esi),%esi
  1071d0:	89 f9                	mov    %edi,%ecx
  1071d2:	ba 20 00 00 00       	mov    $0x20,%edx
  1071d7:	29 fa                	sub    %edi,%edx
  1071d9:	d3 e0                	shl    %cl,%eax
  1071db:	89 45 e0             	mov    %eax,-0x20(%ebp)
  1071de:	89 d1                	mov    %edx,%ecx
  1071e0:	89 d8                	mov    %ebx,%eax
  1071e2:	d3 e8                	shr    %cl,%eax
  1071e4:	89 c1                	mov    %eax,%ecx
  1071e6:	8b 45 e0             	mov    -0x20(%ebp),%eax
  1071e9:	09 c1                	or     %eax,%ecx
  1071eb:	89 f0                	mov    %esi,%eax
  1071ed:	89 4d e0             	mov    %ecx,-0x20(%ebp)
  1071f0:	89 f9                	mov    %edi,%ecx
  1071f2:	d3 e3                	shl    %cl,%ebx
  1071f4:	89 d1                	mov    %edx,%ecx
  1071f6:	d3 e8                	shr    %cl,%eax
  1071f8:	89 5d dc             	mov    %ebx,-0x24(%ebp)
  1071fb:	89 f9                	mov    %edi,%ecx
  1071fd:	8b 5d e4             	mov    -0x1c(%ebp),%ebx
  107200:	d3 e6                	shl    %cl,%esi
  107202:	89 d1                	mov    %edx,%ecx
  107204:	d3 eb                	shr    %cl,%ebx
  107206:	09 f3                	or     %esi,%ebx
  107208:	89 c6                	mov    %eax,%esi
  10720a:	89 f2                	mov    %esi,%edx
  10720c:	89 d8                	mov    %ebx,%eax
  10720e:	f7 75 e0             	divl   -0x20(%ebp)
  107211:	89 d6                	mov    %edx,%esi
  107213:	89 c3                	mov    %eax,%ebx
  107215:	f7 65 dc             	mull   -0x24(%ebp)
  107218:	89 55 e0             	mov    %edx,-0x20(%ebp)
  10721b:	39 d6                	cmp    %edx,%esi
  10721d:	72 21                	jb     107240 <__udivdi3+0x110>
  10721f:	8b 55 e4             	mov    -0x1c(%ebp),%edx
  107222:	89 f9                	mov    %edi,%ecx
  107224:	d3 e2                	shl    %cl,%edx
  107226:	39 c2                	cmp    %eax,%edx
  107228:	73 07                	jae    107231 <__udivdi3+0x101>
  10722a:	8b 55 e0             	mov    -0x20(%ebp),%edx
  10722d:	39 d6                	cmp    %edx,%esi
  10722f:	74 0f                	je     107240 <__udivdi3+0x110>
  107231:	89 d8                	mov    %ebx,%eax
  107233:	31 ff                	xor    %edi,%edi
  107235:	e9 36 ff ff ff       	jmp    107170 <__udivdi3+0x40>
  10723a:	8d b6 00 00 00 00    	lea    0x0(%esi),%esi
  107240:	8d 43 ff             	lea    -0x1(%ebx),%eax
  107243:	31 ff                	xor    %edi,%edi
  107245:	e9 26 ff ff ff       	jmp    107170 <__udivdi3+0x40>
  10724a:	66 90                	xchg   %ax,%ax
  10724c:	66 90                	xchg   %ax,%ax
  10724e:	66 90                	xchg   %ax,%ax

00107250 <__umoddi3>:
  107250:	55                   	push   %ebp
  107251:	89 e5                	mov    %esp,%ebp
  107253:	57                   	push   %edi
  107254:	56                   	push   %esi
  107255:	53                   	push   %ebx
  107256:	83 ec 2c             	sub    $0x2c,%esp
  107259:	8b 5d 0c             	mov    0xc(%ebp),%ebx
  10725c:	8b 45 14             	mov    0x14(%ebp),%eax
  10725f:	8b 75 08             	mov    0x8(%ebp),%esi
  107262:	8b 7d 10             	mov    0x10(%ebp),%edi
  107265:	89 da                	mov    %ebx,%edx
  107267:	85 c0                	test   %eax,%eax
  107269:	75 15                	jne    107280 <__umoddi3+0x30>
  10726b:	39 fb                	cmp    %edi,%ebx
  10726d:	73 51                	jae    1072c0 <__umoddi3+0x70>
  10726f:	89 f0                	mov    %esi,%eax
  107271:	f7 f7                	div    %edi
  107273:	89 d0                	mov    %edx,%eax
  107275:	31 d2                	xor    %edx,%edx
  107277:	83 c4 2c             	add    $0x2c,%esp
  10727a:	5b                   	pop    %ebx
  10727b:	5e                   	pop    %esi
  10727c:	5f                   	pop    %edi
  10727d:	5d                   	pop    %ebp
  10727e:	c3                   	ret    
  10727f:	90                   	nop
  107280:	89 75 e0             	mov    %esi,-0x20(%ebp)
  107283:	39 c3                	cmp    %eax,%ebx
  107285:	73 11                	jae    107298 <__umoddi3+0x48>
  107287:	89 f0                	mov    %esi,%eax
  107289:	83 c4 2c             	add    $0x2c,%esp
  10728c:	5b                   	pop    %ebx
  10728d:	5e                   	pop    %esi
  10728e:	5f                   	pop    %edi
  10728f:	5d                   	pop    %ebp
  107290:	c3                   	ret    
  107291:	8d b4 26 00 00 00 00 	lea    0x0(%esi,%eiz,1),%esi
  107298:	0f bd c8             	bsr    %eax,%ecx
  10729b:	83 f1 1f             	xor    $0x1f,%ecx
  10729e:	89 4d e4             	mov    %ecx,-0x1c(%ebp)
  1072a1:	75 3d                	jne    1072e0 <__umoddi3+0x90>
  1072a3:	39 d8                	cmp    %ebx,%eax
  1072a5:	0f 82 d5 00 00 00    	jb     107380 <__umoddi3+0x130>
  1072ab:	39 fe                	cmp    %edi,%esi
  1072ad:	0f 83 cd 00 00 00    	jae    107380 <__umoddi3+0x130>
  1072b3:	8b 45 e0             	mov    -0x20(%ebp),%eax
  1072b6:	83 c4 2c             	add    $0x2c,%esp
  1072b9:	5b                   	pop    %ebx
  1072ba:	5e                   	pop    %esi
  1072bb:	5f                   	pop    %edi
  1072bc:	5d                   	pop    %ebp
  1072bd:	c3                   	ret    
  1072be:	66 90                	xchg   %ax,%ax
  1072c0:	89 f9                	mov    %edi,%ecx
  1072c2:	85 ff                	test   %edi,%edi
  1072c4:	75 0b                	jne    1072d1 <__umoddi3+0x81>
  1072c6:	b8 01 00 00 00       	mov    $0x1,%eax
  1072cb:	31 d2                	xor    %edx,%edx
  1072cd:	f7 f7                	div    %edi
  1072cf:	89 c1                	mov    %eax,%ecx
  1072d1:	89 d8                	mov    %ebx,%eax
  1072d3:	31 d2                	xor    %edx,%edx
  1072d5:	f7 f1                	div    %ecx
  1072d7:	89 f0                	mov    %esi,%eax
  1072d9:	f7 f1                	div    %ecx
  1072db:	eb 96                	jmp    107273 <__umoddi3+0x23>
  1072dd:	8d 76 00             	lea    0x0(%esi),%esi
  1072e0:	8b 4d e4             	mov    -0x1c(%ebp),%ecx
  1072e3:	ba 20 00 00 00       	mov    $0x20,%edx
  1072e8:	29 ca                	sub    %ecx,%edx
  1072ea:	0f b6 4d e4          	movzbl -0x1c(%ebp),%ecx
  1072ee:	89 55 e0             	mov    %edx,-0x20(%ebp)
  1072f1:	d3 e0                	shl    %cl,%eax
  1072f3:	0f b6 4d e0          	movzbl -0x20(%ebp),%ecx
  1072f7:	89 45 dc             	mov    %eax,-0x24(%ebp)
  1072fa:	89 f8                	mov    %edi,%eax
  1072fc:	d3 e8                	shr    %cl,%eax
  1072fe:	0f b6 4d e4          	movzbl -0x1c(%ebp),%ecx
  107302:	89 c2                	mov    %eax,%edx
  107304:	8b 45 dc             	mov    -0x24(%ebp),%eax
  107307:	d3 e7                	shl    %cl,%edi
  107309:	09 c2                	or     %eax,%edx
  10730b:	8b 45 e0             	mov    -0x20(%ebp),%eax
  10730e:	89 7d d8             	mov    %edi,-0x28(%ebp)
  107311:	89 f7                	mov    %esi,%edi
  107313:	89 55 dc             	mov    %edx,-0x24(%ebp)
  107316:	89 da                	mov    %ebx,%edx
  107318:	89 c1                	mov    %eax,%ecx
  10731a:	d3 ea                	shr    %cl,%edx
  10731c:	0f b6 4d e4          	movzbl -0x1c(%ebp),%ecx
  107320:	d3 e3                	shl    %cl,%ebx
  107322:	89 c1                	mov    %eax,%ecx
  107324:	d3 ef                	shr    %cl,%edi
  107326:	0f b6 4d e4          	movzbl -0x1c(%ebp),%ecx
  10732a:	89 f8                	mov    %edi,%eax
  10732c:	d3 e6                	shl    %cl,%esi
  10732e:	09 d8                	or     %ebx,%eax
  107330:	f7 75 dc             	divl   -0x24(%ebp)
  107333:	89 d3                	mov    %edx,%ebx
  107335:	89 75 d4             	mov    %esi,-0x2c(%ebp)
  107338:	89 f7                	mov    %esi,%edi
  10733a:	f7 65 d8             	mull   -0x28(%ebp)
  10733d:	89 c6                	mov    %eax,%esi
  10733f:	89 d1                	mov    %edx,%ecx
  107341:	39 d3                	cmp    %edx,%ebx
  107343:	72 06                	jb     10734b <__umoddi3+0xfb>
  107345:	75 0e                	jne    107355 <__umoddi3+0x105>
  107347:	39 c7                	cmp    %eax,%edi
  107349:	73 0a                	jae    107355 <__umoddi3+0x105>
  10734b:	2b 45 d8             	sub    -0x28(%ebp),%eax
  10734e:	1b 55 dc             	sbb    -0x24(%ebp),%edx
  107351:	89 d1                	mov    %edx,%ecx
  107353:	89 c6                	mov    %eax,%esi
  107355:	8b 45 d4             	mov    -0x2c(%ebp),%eax
  107358:	8b 7d e4             	mov    -0x1c(%ebp),%edi
  10735b:	29 f0                	sub    %esi,%eax
  10735d:	19 cb                	sbb    %ecx,%ebx
  10735f:	0f b6 4d e0          	movzbl -0x20(%ebp),%ecx
  107363:	89 da                	mov    %ebx,%edx
  107365:	d3 e2                	shl    %cl,%edx
  107367:	89 f9                	mov    %edi,%ecx
  107369:	d3 e8                	shr    %cl,%eax
  10736b:	d3 eb                	shr    %cl,%ebx
  10736d:	09 d0                	or     %edx,%eax
  10736f:	89 da                	mov    %ebx,%edx
  107371:	83 c4 2c             	add    $0x2c,%esp
  107374:	5b                   	pop    %ebx
  107375:	5e                   	pop    %esi
  107376:	5f                   	pop    %edi
  107377:	5d                   	pop    %ebp
  107378:	c3                   	ret    
  107379:	8d b4 26 00 00 00 00 	lea    0x0(%esi,%eiz,1),%esi
  107380:	89 da                	mov    %ebx,%edx
  107382:	29 fe                	sub    %edi,%esi
  107384:	19 c2                	sbb    %eax,%edx
  107386:	89 75 e0             	mov    %esi,-0x20(%ebp)
  107389:	e9 25 ff ff ff       	jmp    1072b3 <__umoddi3+0x63>

Disassembly of section .rodata:

00108000 <__rodata_start>:
  108000:	25 64 2e 25 64       	and    $0x64252e64,%eax
  108005:	2e 25 64 2d 25 73    	cs and $0x73252d64,%eax
  10800b:	2d 25 73 00 4e       	sub    $0x4e007325,%eax
  108010:	6f                   	outsl  %ds:(%esi),(%dx)
  108011:	76 20                	jbe    108033 <__kernel_version_lower+0x7>
  108013:	31 37                	xor    %esi,(%edi)
  108015:	20 32                	and    %dh,(%edx)
  108017:	30 32                	xor    %dh,(%edx)
  108019:	34 00                	xor    $0x0,%al
  10801b:	30 39                	xor    %bh,(%ecx)
  10801d:	3a 30                	cmp    (%eax),%dh
  10801f:	37                   	aaa    
  108020:	3a 34 37             	cmp    (%edi,%esi,1),%dh
	...

00108024 <__kernel_version_major>:
  108024:	01 00                	add    %eax,(%eax)
	...

00108028 <__kernel_version_minor>:
  108028:	00 00                	add    %al,(%eax)
	...

0010802c <__kernel_version_lower>:
  10802c:	00 00                	add    %al,(%eax)
  10802e:	00 00                	add    %al,(%eax)
  108030:	50                   	push   %eax
  108031:	68 6f 65 6e 69       	push   $0x696e656f
  108036:	78 00                	js     108038 <__kernel_version_lower+0xc>
  108038:	20 20                	and    %ah,(%eax)
  10803a:	20 20                	and    %ah,(%eax)
  10803c:	2e 2b 2d 2d 2d 2d 2d 	sub    %cs:0x2d2d2d2d,%ebp
  108043:	2d 2b 0a 20 20       	sub    $0x20200a2b,%eax
  108048:	2e 27                	cs daa 
  10804a:	20 7c 20 20          	and    %bh,0x20(%eax,%eiz,1)
  10804e:	20 20                	and    %ah,(%eax)
  108050:	2e 27                	cs daa 
  108052:	7c 0a                	jl     10805e <__kernel_version_lower+0x32>
  108054:	20 2b                	and    %ch,(%ebx)
  108056:	2d 2d 2d 2b 2d       	sub    $0x2d2b2d2d,%eax
  10805b:	2d 2b 27 20 20       	sub    $0x2020272b,%eax
  108060:	7c 09                	jl     10806b <__kernel_version_lower+0x3f>
  108062:	48                   	dec    %eax
  108063:	20 45 20             	and    %al,0x20(%ebp)
  108066:	58                   	pop    %eax
  108067:	20 41 20             	and    %al,0x20(%ecx)
  10806a:	48                   	dec    %eax
  10806b:	20 45 20             	and    %al,0x20(%ebp)
  10806e:	44                   	inc    %esp
  10806f:	20 52 20             	and    %dl,0x20(%edx)
  108072:	4f                   	dec    %edi
  108073:	20 4e 20             	and    %cl,0x20(%esi)
  108076:	20 20                	and    %ah,(%eax)
  108078:	4b                   	dec    %ebx
  108079:	20 45 20             	and    %al,0x20(%ebp)
  10807c:	52                   	push   %edx
  10807d:	20 4e 20             	and    %cl,0x20(%esi)
  108080:	45                   	inc    %ebp
  108081:	20 4c 0a 20          	and    %cl,0x20(%edx,%ecx,1)
  108085:	7c 20                	jl     1080a7 <__kernel_version_lower+0x7b>
  108087:	20 20                	and    %ah,(%eax)
  108089:	7c 20                	jl     1080ab <__kernel_version_lower+0x7f>
  10808b:	20 7c 20 20          	and    %bh,0x20(%eax,%eiz,1)
  10808f:	20 7c 09 43          	and    %bh,0x43(%ecx,%ecx,1)
  108093:	72 65                	jb     1080fa <__debug_baud_rate+0x26>
  108095:	61                   	popa   
  108096:	74 65                	je     1080fd <__debug_baud_rate+0x29>
  108098:	64 20 62 79          	and    %ah,%fs:0x79(%edx)
  10809c:	20 40 73             	and    %al,0x73(%eax)
  10809f:	61                   	popa   
  1080a0:	73 64                	jae    108106 <__debug_baud_rate+0x32>
  1080a2:	61                   	popa   
  1080a3:	6c                   	insb   (%dx),%es:(%edi)
  1080a4:	6c                   	insb   (%dx),%es:(%edi)
  1080a5:	61                   	popa   
  1080a6:	73 0a                	jae    1080b2 <__kernel_version_lower+0x86>
  1080a8:	20 7c 20 20          	and    %bh,0x20(%eax,%eiz,1)
  1080ac:	2e 2b 2d 2d 2b 2d 2d 	sub    %cs:0x2d2d2b2d,%ebp
  1080b3:	2d 2b 0a 20 7c       	sub    $0x7c200a2b,%eax
  1080b8:	2e 27                	cs daa 
  1080ba:	20 20                	and    %ah,(%eax)
  1080bc:	20 20                	and    %ah,(%eax)
  1080be:	7c 20                	jl     1080e0 <__debug_baud_rate+0xc>
  1080c0:	2e 27                	cs daa 
  1080c2:	0a 20                	or     (%eax),%ah
  1080c4:	2b 2d 2d 2d 2d 2d    	sub    0x2d2d2d2d,%ebp
  1080ca:	2d 2b 27 0a 00       	sub    $0xa272b,%eax
	...

001080d0 <__debug_com_port>:
  1080d0:	01 00                	add    %eax,(%eax)
	...

001080d4 <__debug_baud_rate>:
  1080d4:	80 25 00 00 44 45 42 	andb   $0x42,0x45440000
  1080db:	55                   	push   %ebp
  1080dc:	47                   	inc    %edi
  1080dd:	00 69 33             	add    %ch,0x33(%ecx)
  1080e0:	38 36                	cmp    %dh,(%esi)
  1080e2:	00 47 43             	add    %al,0x43(%edi)
  1080e5:	43                   	inc    %ebx
  1080e6:	20 31                	and    %dh,(%ecx)
  1080e8:	34 2e                	xor    $0x2e,%al
  1080ea:	31 2e                	xor    %ebp,(%esi)
  1080ec:	30 00                	xor    %al,(%eax)
  1080ee:	49                   	dec    %ecx
  1080ef:	4e                   	dec    %esi
  1080f0:	46                   	inc    %esi
  1080f1:	4f                   	dec    %edi
  1080f2:	00 57 41             	add    %dl,0x41(%edi)
  1080f5:	52                   	push   %edx
  1080f6:	4e                   	dec    %esi
  1080f7:	00 45 52             	add    %al,0x52(%ebp)
  1080fa:	52                   	push   %edx
  1080fb:	20 00                	and    %al,(%eax)
  1080fd:	44                   	inc    %esp
  1080fe:	42                   	inc    %edx
  1080ff:	47                   	inc    %edi
  108100:	20 00                	and    %al,(%eax)
  108102:	3f                   	aas    
  108103:	3f                   	aas    
  108104:	3f                   	aas    
  108105:	20 00                	and    %al,(%eax)
  108107:	5b                   	pop    %ebx
  108108:	6e                   	outsb  %ds:(%esi),(%dx)
  108109:	6f                   	outsl  %ds:(%esi),(%dx)
  10810a:	20 63 6c             	and    %ah,0x6c(%ebx)
  10810d:	6f                   	outsl  %ds:(%esi),(%dx)
  10810e:	63 6b 20             	arpl   %bp,0x20(%ebx)
  108111:	72 65                	jb     108178 <__debug_baud_rate+0xa4>
  108113:	61                   	popa   
  108114:	64 79 5d             	fs jns 108174 <__debug_baud_rate+0xa0>
  108117:	20 5b 25             	and    %bl,0x25(%ebx)
  10811a:	73 5d                	jae    108179 <__debug_baud_rate+0xa5>
  10811c:	20 00                	and    %al,(%eax)
  10811e:	5b                   	pop    %ebx
  10811f:	25 73 5d 20 5b       	and    $0x5b205d73,%eax
  108124:	25 73 5d 20 00       	and    $0x205d73,%eax
  108129:	00 00                	add    %al,(%eax)
  10812b:	00 4b 45             	add    %cl,0x45(%ebx)
  10812e:	52                   	push   %edx
  10812f:	4e                   	dec    %esi
  108130:	45                   	inc    %ebp
  108131:	4c                   	dec    %esp
  108132:	5f                   	pop    %edi
  108133:	44                   	inc    %esp
  108134:	45                   	inc    %ebp
  108135:	42                   	inc    %edx
  108136:	55                   	push   %ebp
  108137:	47                   	inc    %edi
  108138:	5f                   	pop    %edi
  108139:	54                   	push   %esp
  10813a:	52                   	push   %edx
  10813b:	41                   	inc    %ecx
  10813c:	50                   	push   %eax
  10813d:	00 4d 45             	add    %cl,0x45(%ebp)
  108140:	4d                   	dec    %ebp
  108141:	4f                   	dec    %edi
  108142:	52                   	push   %edx
  108143:	59                   	pop    %ecx
  108144:	5f                   	pop    %edi
  108145:	4d                   	dec    %ebp
  108146:	41                   	inc    %ecx
  108147:	4e                   	dec    %esi
  108148:	41                   	inc    %ecx
  108149:	47                   	inc    %edi
  10814a:	45                   	inc    %ebp
  10814b:	4d                   	dec    %ebp
  10814c:	45                   	inc    %ebp
  10814d:	4e                   	dec    %esi
  10814e:	54                   	push   %esp
  10814f:	5f                   	pop    %edi
  108150:	45                   	inc    %ebp
  108151:	52                   	push   %edx
  108152:	52                   	push   %edx
  108153:	4f                   	dec    %edi
  108154:	52                   	push   %edx
  108155:	00 4b 45             	add    %cl,0x45(%ebx)
  108158:	52                   	push   %edx
  108159:	4e                   	dec    %esi
  10815a:	45                   	inc    %ebp
  10815b:	4c                   	dec    %esp
  10815c:	5f                   	pop    %edi
  10815d:	42                   	inc    %edx
  10815e:	41                   	inc    %ecx
  10815f:	44                   	inc    %esp
  108160:	5f                   	pop    %edi
  108161:	41                   	inc    %ecx
  108162:	52                   	push   %edx
  108163:	47                   	inc    %edi
  108164:	55                   	push   %ebp
  108165:	4d                   	dec    %ebp
  108166:	45                   	inc    %ebp
  108167:	4e                   	dec    %esi
  108168:	54                   	push   %esp
  108169:	5f                   	pop    %edi
  10816a:	45                   	inc    %ebp
  10816b:	52                   	push   %edx
  10816c:	52                   	push   %edx
  10816d:	4f                   	dec    %edi
  10816e:	52                   	push   %edx
  10816f:	00 4f 55             	add    %cl,0x55(%edi)
  108172:	54                   	push   %esp
  108173:	5f                   	pop    %edi
  108174:	4f                   	dec    %edi
  108175:	46                   	inc    %esi
  108176:	5f                   	pop    %edi
  108177:	4d                   	dec    %ebp
  108178:	45                   	inc    %ebp
  108179:	4d                   	dec    %ebp
  10817a:	4f                   	dec    %edi
  10817b:	52                   	push   %edx
  10817c:	59                   	pop    %ecx
  10817d:	00 49 52             	add    %cl,0x52(%ecx)
  108180:	51                   	push   %ecx
  108181:	5f                   	pop    %edi
  108182:	48                   	dec    %eax
  108183:	41                   	inc    %ecx
  108184:	4e                   	dec    %esi
  108185:	44                   	inc    %esp
  108186:	4c                   	dec    %esp
  108187:	45                   	inc    %ebp
  108188:	52                   	push   %edx
  108189:	5f                   	pop    %edi
  10818a:	46                   	inc    %esi
  10818b:	41                   	inc    %ecx
  10818c:	49                   	dec    %ecx
  10818d:	4c                   	dec    %esp
  10818e:	45                   	inc    %ebp
  10818f:	44                   	inc    %esp
  108190:	00 43 50             	add    %al,0x50(%ebx)
  108193:	55                   	push   %ebp
  108194:	5f                   	pop    %edi
  108195:	45                   	inc    %ebp
  108196:	58                   	pop    %eax
  108197:	43                   	inc    %ebx
  108198:	45                   	inc    %ebp
  108199:	50                   	push   %eax
  10819a:	54                   	push   %esp
  10819b:	49                   	dec    %ecx
  10819c:	4f                   	dec    %edi
  10819d:	4e                   	dec    %esi
  10819e:	5f                   	pop    %edi
  10819f:	55                   	push   %ebp
  1081a0:	4e                   	dec    %esi
  1081a1:	48                   	dec    %eax
  1081a2:	41                   	inc    %ecx
  1081a3:	4e                   	dec    %esi
  1081a4:	44                   	inc    %esp
  1081a5:	4c                   	dec    %esp
  1081a6:	45                   	inc    %ebp
  1081a7:	44                   	inc    %esp
  1081a8:	00 55 4e             	add    %dl,0x4e(%ebp)
  1081ab:	53                   	push   %ebx
  1081ac:	55                   	push   %ebp
  1081ad:	50                   	push   %eax
  1081ae:	50                   	push   %eax
  1081af:	4f                   	dec    %edi
  1081b0:	52                   	push   %edx
  1081b1:	54                   	push   %esp
  1081b2:	45                   	inc    %ebp
  1081b3:	44                   	inc    %esp
  1081b4:	5f                   	pop    %edi
  1081b5:	46                   	inc    %esi
  1081b6:	55                   	push   %ebp
  1081b7:	4e                   	dec    %esi
  1081b8:	43                   	inc    %ebx
  1081b9:	54                   	push   %esp
  1081ba:	49                   	dec    %ecx
  1081bb:	4f                   	dec    %edi
  1081bc:	4e                   	dec    %esi
  1081bd:	5f                   	pop    %edi
  1081be:	45                   	inc    %ebp
  1081bf:	52                   	push   %edx
  1081c0:	52                   	push   %edx
  1081c1:	4f                   	dec    %edi
  1081c2:	52                   	push   %edx
  1081c3:	00 41 20             	add    %al,0x20(%ecx)
  1081c6:	74 72                	je     10823a <__debug_baud_rate+0x166>
  1081c8:	61                   	popa   
  1081c9:	70 20                	jo     1081eb <__debug_baud_rate+0x117>
  1081cb:	77 61                	ja     10822e <__debug_baud_rate+0x15a>
  1081cd:	73 20                	jae    1081ef <__debug_baud_rate+0x11b>
  1081cf:	74 72                	je     108243 <__debug_baud_rate+0x16f>
  1081d1:	69 67 67 65 72 65 64 	imul   $0x64657265,0x67(%edi),%esp
  1081d8:	20 74 6f 20          	and    %dh,0x20(%edi,%ebp,2)
  1081dc:	64 65 62 75 67       	fs bound %esi,%gs:0x67(%ebp)
  1081e1:	20 74 68 65          	and    %dh,0x65(%eax,%ebp,2)
  1081e5:	20 6b 65             	and    %ch,0x65(%ebx)
  1081e8:	72 6e                	jb     108258 <__debug_baud_rate+0x184>
  1081ea:	65 6c                	gs insb (%dx),%es:(%edi)
  1081ec:	2e 0a 00             	or     %cs:(%eax),%al
  1081ef:	00 41 20             	add    %al,0x20(%ecx)
  1081f2:	66 61                	popaw  
  1081f4:	75 6c                	jne    108262 <__debug_baud_rate+0x18e>
  1081f6:	74 20                	je     108218 <__debug_baud_rate+0x144>
  1081f8:	68 61 73 20 6f       	push   $0x6f207361
  1081fd:	63 63 75             	arpl   %sp,0x75(%ebx)
  108200:	72 72                	jb     108274 <__debug_baud_rate+0x1a0>
  108202:	65 64 20 69 6e       	gs and %ch,%fs:0x6e(%ecx)
  108207:	20 74 68 65          	and    %dh,0x65(%eax,%ebp,2)
  10820b:	20 6d 65             	and    %ch,0x65(%ebp)
  10820e:	6d                   	insl   (%dx),%es:(%edi)
  10820f:	6f                   	outsl  %ds:(%esi),(%dx)
  108210:	72 79                	jb     10828b <__debug_baud_rate+0x1b7>
  108212:	20 6d 61             	and    %ch,0x61(%ebp)
  108215:	6e                   	outsb  %ds:(%esi),(%dx)
  108216:	61                   	popa   
  108217:	67 65 6d             	gs insl (%dx),%es:(%di)
  10821a:	65 6e                	outsb  %gs:(%esi),(%dx)
  10821c:	74 20                	je     10823e <__debug_baud_rate+0x16a>
  10821e:	73 75                	jae    108295 <__debug_baud_rate+0x1c1>
  108220:	62 73 79             	bound  %esi,0x79(%ebx)
  108223:	73 74                	jae    108299 <__debug_baud_rate+0x1c5>
  108225:	65 6d                	gs insl (%dx),%es:(%edi)
  108227:	20 64 75 72          	and    %ah,0x72(%ebp,%esi,2)
  10822b:	69 6e 67 20 61 20 63 	imul   $0x63206120,0x67(%esi),%ebp
  108232:	61                   	popa   
  108233:	6c                   	insb   (%dx),%es:(%edi)
  108234:	6c                   	insb   (%dx),%es:(%edi)
  108235:	2e 0a 00             	or     %cs:(%eax),%al
  108238:	41                   	inc    %ecx
  108239:	20 62 61             	and    %ah,0x61(%edx)
  10823c:	64 20 61 72          	and    %ah,%fs:0x72(%ecx)
  108240:	67 75 6d             	addr16 jne 1082b0 <__debug_baud_rate+0x1dc>
  108243:	65 6e                	outsb  %gs:(%esi),(%dx)
  108245:	74 20                	je     108267 <__debug_baud_rate+0x193>
  108247:	77 61                	ja     1082aa <__debug_baud_rate+0x1d6>
  108249:	73 20                	jae    10826b <__debug_baud_rate+0x197>
  10824b:	70 61                	jo     1082ae <__debug_baud_rate+0x1da>
  10824d:	73 73                	jae    1082c2 <__debug_baud_rate+0x1ee>
  10824f:	65 64 20 74 6f 20    	gs and %dh,%fs:0x20(%edi,%ebp,2)
  108255:	61                   	popa   
  108256:	20 63 72             	and    %ah,0x72(%ebx)
  108259:	69 74 69 63 61 6c 20 	imul   $0x66206c61,0x63(%ecx,%ebp,2),%esi
  108260:	66 
  108261:	75 6e                	jne    1082d1 <__debug_baud_rate+0x1fd>
  108263:	63 74 69 6f          	arpl   %si,0x6f(%ecx,%ebp,2)
  108267:	6e                   	outsb  %ds:(%esi),(%dx)
  108268:	2e 20 54 68 69       	and    %dl,%cs:0x69(%eax,%ebp,2)
  10826d:	73 20                	jae    10828f <__debug_baud_rate+0x1bb>
  10826f:	69 73 20 61 20 62 75 	imul   $0x75622061,0x20(%ebx),%esi
  108276:	67 20 69 6e          	and    %ch,0x6e(%bx,%di)
  10827a:	20 74 68 65          	and    %dh,0x65(%eax,%ebp,2)
  10827e:	20 6b 65             	and    %ch,0x65(%ebx)
  108281:	72 6e                	jb     1082f1 <__debug_baud_rate+0x21d>
  108283:	65 6c                	gs insb (%dx),%es:(%edi)
  108285:	20 2d 20 70 6c 65    	and    %ch,0x656c7020
  10828b:	61                   	popa   
  10828c:	73 65                	jae    1082f3 <__debug_baud_rate+0x21f>
  10828e:	20 63 6f             	and    %ah,0x6f(%ebx)
  108291:	6e                   	outsb  %ds:(%esi),(%dx)
  108292:	74 61                	je     1082f5 <__debug_baud_rate+0x221>
  108294:	63 74 20 74          	arpl   %si,0x74(%eax,%eiz,1)
  108298:	68 65 20 64 65       	push   $0x65642065
  10829d:	76 65                	jbe    108304 <__debug_baud_rate+0x230>
  10829f:	6c                   	insb   (%dx),%es:(%edi)
  1082a0:	6f                   	outsl  %ds:(%esi),(%dx)
  1082a1:	70 65                	jo     108308 <__debug_baud_rate+0x234>
  1082a3:	72 73                	jb     108318 <__debug_baud_rate+0x244>
  1082a5:	2e 0a 00             	or     %cs:(%eax),%al
  1082a8:	54                   	push   %esp
  1082a9:	68 65 20 73 79       	push   $0x79732065
  1082ae:	73 74                	jae    108324 <__debug_baud_rate+0x250>
  1082b0:	65 6d                	gs insl (%dx),%es:(%edi)
  1082b2:	20 68 61             	and    %ch,0x61(%eax)
  1082b5:	73 20                	jae    1082d7 <__debug_baud_rate+0x203>
  1082b7:	72 75                	jb     10832e <__debug_baud_rate+0x25a>
  1082b9:	6e                   	outsb  %ds:(%esi),(%dx)
  1082ba:	20 6f 75             	and    %ch,0x75(%edi)
  1082bd:	74 20                	je     1082df <__debug_baud_rate+0x20b>
  1082bf:	6f                   	outsl  %ds:(%esi),(%dx)
  1082c0:	66 20 6d 65          	data16 and %ch,0x65(%ebp)
  1082c4:	6d                   	insl   (%dx),%es:(%edi)
  1082c5:	6f                   	outsl  %ds:(%esi),(%dx)
  1082c6:	72 79                	jb     108341 <__debug_baud_rate+0x26d>
  1082c8:	2e 20 54 72 79       	and    %dl,%cs:0x79(%edx,%esi,2)
  1082cd:	20 63 6c             	and    %ah,0x6c(%ebx)
  1082d0:	6f                   	outsl  %ds:(%esi),(%dx)
  1082d1:	73 69                	jae    10833c <__debug_baud_rate+0x268>
  1082d3:	6e                   	outsb  %ds:(%esi),(%dx)
  1082d4:	67 20 61 70          	and    %ah,0x70(%bx,%di)
  1082d8:	70 6c                	jo     108346 <__debug_baud_rate+0x272>
  1082da:	69 63 61 74 69 6f 6e 	imul   $0x6e6f6974,0x61(%ebx),%esp
  1082e1:	73 20                	jae    108303 <__debug_baud_rate+0x22f>
  1082e3:	6f                   	outsl  %ds:(%esi),(%dx)
  1082e4:	72 20                	jb     108306 <__debug_baud_rate+0x232>
  1082e6:	61                   	popa   
  1082e7:	64 6a 75             	fs push $0x75
  1082ea:	73 74                	jae    108360 <__debug_baud_rate+0x28c>
  1082ec:	69 6e 67 20 79 6f 75 	imul   $0x756f7920,0x67(%esi),%ebp
  1082f3:	72 20                	jb     108315 <__debug_baud_rate+0x241>
  1082f5:	70 61                	jo     108358 <__debug_baud_rate+0x284>
  1082f7:	67 65 66 69 6c 65 2e 	imul   $0xa2e,%gs:0x65(%si),%bp
  1082fe:	0a 
  1082ff:	00 41 6e             	add    %al,0x6e(%ecx)
  108302:	20 49 52             	and    %cl,0x52(%ecx)
  108305:	51                   	push   %ecx
  108306:	20 68 61             	and    %ch,0x61(%eax)
  108309:	6e                   	outsb  %ds:(%esi),(%dx)
  10830a:	64 6c                	fs insb (%dx),%es:(%edi)
  10830c:	65 72 20             	gs jb  10832f <__debug_baud_rate+0x25b>
  10830f:	64 69 64 20 6e 6f 74 	imul   $0x7220746f,%fs:0x6e(%eax,%eiz,1),%esp
  108316:	20 72 
  108318:	65 74 75             	gs je  108390 <__debug_baud_rate+0x2bc>
  10831b:	72 6e                	jb     10838b <__debug_baud_rate+0x2b7>
  10831d:	20 61 20             	and    %ah,0x20(%ecx)
  108320:	73 75                	jae    108397 <__debug_baud_rate+0x2c3>
  108322:	63 63 65             	arpl   %sp,0x65(%ebx)
  108325:	73 73                	jae    10839a <__debug_baud_rate+0x2c6>
  108327:	20 76 61             	and    %dh,0x61(%esi)
  10832a:	6c                   	insb   (%dx),%es:(%edi)
  10832b:	75 65                	jne    108392 <__debug_baud_rate+0x2be>
  10832d:	2e 20 54 68 69       	and    %dl,%cs:0x69(%eax,%ebp,2)
  108332:	73 20                	jae    108354 <__debug_baud_rate+0x280>
  108334:	63 6f 75             	arpl   %bp,0x75(%edi)
  108337:	6c                   	insb   (%dx),%es:(%edi)
  108338:	64 20 62 65          	and    %ah,%fs:0x65(%edx)
  10833c:	20 63 61             	and    %ah,0x61(%ebx)
  10833f:	75 73                	jne    1083b4 <__debug_baud_rate+0x2e0>
  108341:	65 64 20 62 79       	gs and %ah,%fs:0x79(%edx)
  108346:	20 61 6e             	and    %ah,0x6e(%ecx)
  108349:	20 65 78             	and    %ah,0x78(%ebp)
  10834c:	74 65                	je     1083b3 <__debug_baud_rate+0x2df>
  10834e:	72 6e                	jb     1083be <__debug_baud_rate+0x2ea>
  108350:	61                   	popa   
  108351:	6c                   	insb   (%dx),%es:(%edi)
  108352:	20 64 72 69          	and    %ah,0x69(%edx,%esi,2)
  108356:	76 65                	jbe    1083bd <__debug_baud_rate+0x2e9>
  108358:	72 20                	jb     10837a <__debug_baud_rate+0x2a6>
  10835a:	6f                   	outsl  %ds:(%esi),(%dx)
  10835b:	72 20                	jb     10837d <__debug_baud_rate+0x2a9>
  10835d:	61                   	popa   
  10835e:	6e                   	outsb  %ds:(%esi),(%dx)
  10835f:	20 69 6e             	and    %ch,0x6e(%ecx)
  108362:	74 65                	je     1083c9 <__debug_baud_rate+0x2f5>
  108364:	72 6e                	jb     1083d4 <__debug_baud_rate+0x300>
  108366:	61                   	popa   
  108367:	6c                   	insb   (%dx),%es:(%edi)
  108368:	20 6b 65             	and    %ch,0x65(%ebx)
  10836b:	72 6e                	jb     1083db <__debug_baud_rate+0x307>
  10836d:	65 6c                	gs insb (%dx),%es:(%edi)
  10836f:	20 64 72 69          	and    %ah,0x69(%edx,%esi,2)
  108373:	76 65                	jbe    1083da <__debug_baud_rate+0x306>
  108375:	72 2e                	jb     1083a5 <__debug_baud_rate+0x2d1>
  108377:	0a 00                	or     (%eax),%al
  108379:	00 00                	add    %al,(%eax)
  10837b:	00 41 20             	add    %al,0x20(%ecx)
  10837e:	43                   	inc    %ebx
  10837f:	50                   	push   %eax
  108380:	55                   	push   %ebp
  108381:	20 65 78             	and    %ah,0x78(%ebp)
  108384:	63 65 70             	arpl   %sp,0x70(%ebp)
  108387:	74 69                	je     1083f2 <__debug_baud_rate+0x31e>
  108389:	6f                   	outsl  %ds:(%esi),(%dx)
  10838a:	6e                   	outsb  %ds:(%esi),(%dx)
  10838b:	20 69 6e             	and    %ch,0x6e(%ecx)
  10838e:	20 74 68 65          	and    %dh,0x65(%eax,%ebp,2)
  108392:	20 6b 65             	and    %ch,0x65(%ebx)
  108395:	72 6e                	jb     108405 <__debug_baud_rate+0x331>
  108397:	65 6c                	gs insb (%dx),%es:(%edi)
  108399:	20 77 61             	and    %dh,0x61(%edi)
  10839c:	73 20                	jae    1083be <__debug_baud_rate+0x2ea>
  10839e:	6e                   	outsb  %ds:(%esi),(%dx)
  10839f:	6f                   	outsl  %ds:(%esi),(%dx)
  1083a0:	74 20                	je     1083c2 <__debug_baud_rate+0x2ee>
  1083a2:	68 61 6e 64 6c       	push   $0x6c646e61
  1083a7:	65 64 20 63 6f       	gs and %ah,%fs:0x6f(%ebx)
  1083ac:	72 72                	jb     108420 <__debug_baud_rate+0x34c>
  1083ae:	65 63 74 6c 79       	arpl   %si,%gs:0x79(%esp,%ebp,2)
  1083b3:	2e 00 00             	add    %al,%cs:(%eax)
  1083b6:	00 00                	add    %al,(%eax)
  1083b8:	41                   	inc    %ecx
  1083b9:	6e                   	outsb  %ds:(%esi),(%dx)
  1083ba:	20 75 6e             	and    %dh,0x6e(%ebp)
  1083bd:	73 75                	jae    108434 <__debug_baud_rate+0x360>
  1083bf:	70 70                	jo     108431 <__debug_baud_rate+0x35d>
  1083c1:	6f                   	outsl  %ds:(%esi),(%dx)
  1083c2:	72 74                	jb     108438 <__debug_baud_rate+0x364>
  1083c4:	65 64 20 6b 65       	gs and %ch,%fs:0x65(%ebx)
  1083c9:	72 6e                	jb     108439 <__debug_baud_rate+0x365>
  1083cb:	65 6c                	gs insb (%dx),%es:(%edi)
  1083cd:	20 66 75             	and    %ah,0x75(%esi)
  1083d0:	6e                   	outsb  %ds:(%esi),(%dx)
  1083d1:	63 74 69 6f          	arpl   %si,0x6f(%ecx,%ebp,2)
  1083d5:	6e                   	outsb  %ds:(%esi),(%dx)
  1083d6:	20 77 61             	and    %dh,0x61(%edi)
  1083d9:	73 20                	jae    1083fb <__debug_baud_rate+0x327>
  1083db:	63 61 6c             	arpl   %sp,0x6c(%ecx)
  1083de:	6c                   	insb   (%dx),%es:(%edi)
  1083df:	65 64 2e 20 54 68 69 	gs fs and %dl,%cs:0x69(%eax,%ebp,2)
  1083e6:	73 20                	jae    108408 <__debug_baud_rate+0x334>
  1083e8:	61                   	popa   
  1083e9:	73 20                	jae    10840b <__debug_baud_rate+0x337>
  1083eb:	61                   	popa   
  1083ec:	20 62 75             	and    %ah,0x75(%edx)
  1083ef:	67 20 69 6e          	and    %ch,0x6e(%bx,%di)
  1083f3:	20 74 68 65          	and    %dh,0x65(%eax,%ebp,2)
  1083f7:	20 6b 65             	and    %ch,0x65(%ebx)
  1083fa:	72 6e                	jb     10846a <__debug_baud_rate+0x396>
  1083fc:	65 6c                	gs insb (%dx),%es:(%edi)
  1083fe:	20 2d 20 70 6c 65    	and    %ch,0x656c7020
  108404:	61                   	popa   
  108405:	73 65                	jae    10846c <__debug_baud_rate+0x398>
  108407:	20 63 6f             	and    %ah,0x6f(%ebx)
  10840a:	6e                   	outsb  %ds:(%esi),(%dx)
  10840b:	74 61                	je     10846e <__debug_baud_rate+0x39a>
  10840d:	63 74 20 74          	arpl   %si,0x74(%eax,%eiz,1)
  108411:	68 65 20 64 65       	push   $0x65642065
  108416:	76 65                	jbe    10847d <__debug_baud_rate+0x3a9>
  108418:	6c                   	insb   (%dx),%es:(%edi)
  108419:	6f                   	outsl  %ds:(%esi),(%dx)
  10841a:	70 65                	jo     108481 <__debug_baud_rate+0x3ad>
  10841c:	72 73                	jb     108491 <__debug_baud_rate+0x3bd>
  10841e:	2e 0a 00             	or     %cs:(%eax),%al
  108421:	00 00                	add    %al,(%eax)
  108423:	00 25 63 00 6b 65    	add    %ah,0x656b0063
  108429:	72 6e                	jb     108499 <__debug_baud_rate+0x3c5>
  10842b:	65 6c                	gs insb (%dx),%es:(%edi)
  10842d:	2f                   	das    
  10842e:	70 61                	jo     108491 <__debug_baud_rate+0x3bd>
  108430:	6e                   	outsb  %ds:(%esi),(%dx)
  108431:	69 63 2f 70 61 6e 69 	imul   $0x696e6170,0x2f(%ebx),%esp
  108438:	63 2e                	arpl   %bp,(%esi)
  10843a:	63 00                	arpl   %ax,(%eax)
  10843c:	2a 2a                	sub    (%edx),%ch
  10843e:	2a 20                	sub    (%eax),%ah
  108440:	6b 65 72 6e          	imul   $0x6e,0x72(%ebp),%esp
  108444:	65 6c                	gs insb (%dx),%es:(%edi)
  108446:	5f                   	pop    %edi
  108447:	70 61                	jo     1084aa <__debug_baud_rate+0x3d6>
  108449:	6e                   	outsb  %ds:(%esi),(%dx)
  10844a:	69 63 5f 65 78 74 65 	imul   $0x65747865,0x5f(%ebx),%esp
  108451:	6e                   	outsb  %ds:(%esi),(%dx)
  108452:	64 65 64 28 29       	fs gs sub %ch,%fs:(%ecx)
  108457:	20 72 65             	and    %dh,0x65(%edx)
  10845a:	63 65 69             	arpl   %sp,0x69(%ebp)
  10845d:	76 65                	jbe    1084c4 <__debug_baud_rate+0x3f0>
  10845f:	64 20 61 6e          	and    %ah,%fs:0x6e(%ecx)
  108463:	20 69 6e             	and    %ch,0x6e(%ecx)
  108466:	76 61                	jbe    1084c9 <__debug_baud_rate+0x3f5>
  108468:	6c                   	insb   (%dx),%es:(%edi)
  108469:	69 64 20 62 75 67 63 	imul   $0x6f636775,0x62(%eax,%eiz,1),%esp
  108470:	6f 
  108471:	64 65 20 28          	fs and %ch,%gs:(%eax)
  108475:	30 78 25             	xor    %bh,0x25(%eax)
  108478:	78 29                	js     1084a3 <__debug_baud_rate+0x3cf>
  10847a:	0a 00                	or     (%eax),%al
  10847c:	1b 5b 31             	sbb    0x31(%ebx),%ebx
  10847f:	3b 33                	cmp    (%ebx),%esi
  108481:	31 6d 0a             	xor    %ebp,0xa(%ebp)
  108484:	0a 46 41             	or     0x41(%esi),%al
  108487:	54                   	push   %esp
  108488:	41                   	inc    %ecx
  108489:	4c                   	dec    %esp
  10848a:	3a 20                	cmp    (%eax),%ah
  10848c:	4b                   	dec    %ebx
  10848d:	65 72 6e             	gs jb  1084fe <__debug_baud_rate+0x42a>
  108490:	65 6c                	gs insb (%dx),%es:(%edi)
  108492:	20 70 61             	and    %dh,0x61(%eax)
  108495:	6e                   	outsb  %ds:(%esi),(%dx)
  108496:	69 63 20 64 65 74 65 	imul   $0x65746564,0x20(%ebx),%esp
  10849d:	63 74 65 64          	arpl   %si,0x64(%ebp,%eiz,2)
  1084a1:	21 0a                	and    %ecx,(%edx)
  1084a3:	1b 5b 30             	sbb    0x30(%ebx),%ebx
  1084a6:	3b 33                	cmp    (%ebx),%esi
  1084a8:	31 6d 00             	xor    %ebp,0x0(%ebp)
  1084ab:	00 48 65             	add    %cl,0x65(%eax)
  1084ae:	78 61                	js     108511 <__debug_baud_rate+0x43d>
  1084b0:	68 65 64 72 6f       	push   $0x6f726465
  1084b5:	6e                   	outsb  %ds:(%esi),(%dx)
  1084b6:	20 68 61             	and    %ch,0x61(%eax)
  1084b9:	73 20                	jae    1084db <__debug_baud_rate+0x407>
  1084bb:	65 78 70             	gs js  10852e <__debug_baud_rate+0x45a>
  1084be:	65 72 69             	gs jb  10852a <__debug_baud_rate+0x456>
  1084c1:	65 6e                	outsb  %gs:(%esi),(%dx)
  1084c3:	63 65 64             	arpl   %sp,0x64(%ebp)
  1084c6:	20 61 20             	and    %ah,0x20(%ecx)
  1084c9:	63 72 69             	arpl   %si,0x69(%edx)
  1084cc:	74 69                	je     108537 <__debug_baud_rate+0x463>
  1084ce:	63 61 6c             	arpl   %sp,0x6c(%ecx)
  1084d1:	20 66 61             	and    %ah,0x61(%esi)
  1084d4:	75 6c                	jne    108542 <__debug_baud_rate+0x46e>
  1084d6:	74 20                	je     1084f8 <__debug_baud_rate+0x424>
  1084d8:	74 68                	je     108542 <__debug_baud_rate+0x46e>
  1084da:	61                   	popa   
  1084db:	74 20                	je     1084fd <__debug_baud_rate+0x429>
  1084dd:	63 61 6e             	arpl   %sp,0x6e(%ecx)
  1084e0:	6e                   	outsb  %ds:(%esi),(%dx)
  1084e1:	6f                   	outsl  %ds:(%esi),(%dx)
  1084e2:	74 20                	je     108504 <__debug_baud_rate+0x430>
  1084e4:	62 65 20             	bound  %esp,0x20(%ebp)
  1084e7:	72 65                	jb     10854e <__debug_baud_rate+0x47a>
  1084e9:	73 6f                	jae    10855a <__debug_baud_rate+0x486>
  1084eb:	6c                   	insb   (%dx),%es:(%edi)
  1084ec:	76 65                	jbe    108553 <__debug_baud_rate+0x47f>
  1084ee:	64 0a 00             	or     %fs:(%eax),%al
  1084f1:	00 00                	add    %al,(%eax)
  1084f3:	00 50 6c             	add    %dl,0x6c(%eax)
  1084f6:	65 61                	gs popa 
  1084f8:	73 65                	jae    10855f <__debug_baud_rate+0x48b>
  1084fa:	20 73 74             	and    %dh,0x74(%ebx)
  1084fd:	61                   	popa   
  1084fe:	72 74                	jb     108574 <__debug_baud_rate+0x4a0>
  108500:	20 61 6e             	and    %ah,0x6e(%ecx)
  108503:	20 69 73             	and    %ch,0x73(%ecx)
  108506:	73 75                	jae    10857d <__debug_baud_rate+0x4a9>
  108508:	65 20 6f 6e          	and    %ch,%gs:0x6e(%edi)
  10850c:	20 47 69             	and    %al,0x69(%edi)
  10850f:	74 48                	je     108559 <__debug_baud_rate+0x485>
  108511:	75 62                	jne    108575 <__debug_baud_rate+0x4a1>
  108513:	20 69 66             	and    %ch,0x66(%ecx)
  108516:	20 79 6f             	and    %bh,0x6f(%ecx)
  108519:	75 20                	jne    10853b <__debug_baud_rate+0x467>
  10851b:	62 65 6c             	bound  %esp,0x6c(%ebp)
  10851e:	69 65 76 65 20 74 68 	imul   $0x68742065,0x76(%ebp),%esp
  108525:	69 73 20 74 6f 20 62 	imul   $0x62206f74,0x20(%ebx),%esi
  10852c:	65 20 61 20          	and    %ah,%gs:0x20(%ecx)
  108530:	62 75 67             	bound  %esi,0x67(%ebp)
  108533:	2e 0a 00             	or     %cs:(%eax),%al
  108536:	00 00                	add    %al,(%eax)
  108538:	41                   	inc    %ecx
  108539:	70 6f                	jo     1085aa <__debug_baud_rate+0x4d6>
  10853b:	6c                   	insb   (%dx),%es:(%edi)
  10853c:	6f                   	outsl  %ds:(%esi),(%dx)
  10853d:	67 69 65 73 20 66 6f 	imul   $0x726f6620,0x73(%di),%esp
  108544:	72 
  108545:	20 61 6e             	and    %ah,0x6e(%ecx)
  108548:	79 20                	jns    10856a <__debug_baud_rate+0x496>
  10854a:	69 6e 63 6f 6e 76 65 	imul   $0x65766e6f,0x63(%esi),%ebp
  108551:	6e                   	outsb  %ds:(%esi),(%dx)
  108552:	69 65 6e 63 65 73 20 	imul   $0x20736563,0x6e(%ebp),%esp
  108559:	63 61 75             	arpl   %sp,0x75(%ecx)
  10855c:	73 65                	jae    1085c3 <__debug_baud_rate+0x4ef>
  10855e:	64 20 62 79          	and    %ah,%fs:0x79(%edx)
  108562:	20 74 68 69          	and    %dh,0x69(%eax,%ebp,2)
  108566:	73 20                	jae    108588 <__debug_baud_rate+0x4b4>
  108568:	65 72 72             	gs jb  1085dd <__debug_baud_rate+0x509>
  10856b:	6f                   	outsl  %ds:(%esi),(%dx)
  10856c:	72 2e                	jb     10859c <__debug_baud_rate+0x4c8>
  10856e:	0a 0a                	or     (%edx),%cl
  108570:	00 2a                	add    %ch,(%edx)
  108572:	2a 2a                	sub    (%edx),%ch
  108574:	20 53 54             	and    %dl,0x54(%ebx)
  108577:	4f                   	dec    %edi
  108578:	50                   	push   %eax
  108579:	3a 20                	cmp    (%eax),%ah
  10857b:	25 73 20 28 6d       	and    $0x6d282073,%eax
  108580:	6f                   	outsl  %ds:(%esi),(%dx)
  108581:	64 75 6c             	fs jne 1085f0 <__debug_baud_rate+0x51c>
  108584:	65 20 27             	and    %ah,%gs:(%edi)
  108587:	25 73 27 29 0a       	and    $0xa292773,%eax
  10858c:	00 0a                	add    %cl,(%edx)
  10858e:	25 73 00 00 00       	and    $0x73,%eax
  108593:	00 0a                	add    %cl,(%edx)
  108595:	54                   	push   %esp
  108596:	68 65 20 6b 65       	push   $0x656b2065
  10859b:	72 6e                	jb     10860b <__debug_baud_rate+0x537>
  10859d:	65 6c                	gs insb (%dx),%es:(%edi)
  10859f:	20 77 69             	and    %dh,0x69(%edi)
  1085a2:	6c                   	insb   (%dx),%es:(%edi)
  1085a3:	6c                   	insb   (%dx),%es:(%edi)
  1085a4:	20 6e 6f             	and    %ch,0x6f(%esi)
  1085a7:	77 20                	ja     1085c9 <__debug_baud_rate+0x4f5>
  1085a9:	70 65                	jo     108610 <__debug_baud_rate+0x53c>
  1085ab:	72 6d                	jb     10861a <__debug_baud_rate+0x546>
  1085ad:	61                   	popa   
  1085ae:	6e                   	outsb  %ds:(%esi),(%dx)
  1085af:	65 6e                	outsb  %gs:(%esi),(%dx)
  1085b1:	74 6c                	je     10861f <__debug_baud_rate+0x54b>
  1085b3:	79 20                	jns    1085d5 <__debug_baud_rate+0x501>
  1085b5:	68 61 6c 74 2e       	push   $0x2e746c61
  1085ba:	20 43 6f             	and    %al,0x6f(%ebx)
  1085bd:	6e                   	outsb  %ds:(%esi),(%dx)
  1085be:	6e                   	outsb  %ds:(%esi),(%dx)
  1085bf:	65 63 74 20 61       	arpl   %si,%gs:0x61(%eax,%eiz,1)
  1085c4:	20 64 65 62          	and    %ah,0x62(%ebp,%eiz,2)
  1085c8:	75 67                	jne    108631 <__debug_baud_rate+0x55d>
  1085ca:	67 65 72 20          	addr16 gs jb 1085ee <__debug_baud_rate+0x51a>
  1085ce:	66 6f                	outsw  %ds:(%esi),(%dx)
  1085d0:	72 20                	jb     1085f2 <__debug_baud_rate+0x51e>
  1085d2:	6d                   	insl   (%dx),%es:(%edi)
  1085d3:	6f                   	outsl  %ds:(%esi),(%dx)
  1085d4:	72 65                	jb     10863b <__debug_baud_rate+0x567>
  1085d6:	20 69 6e             	and    %ch,0x6e(%ecx)
  1085d9:	66 6f                	outsw  %ds:(%esi),(%dx)
  1085db:	72 6d                	jb     10864a <__debug_baud_rate+0x576>
  1085dd:	61                   	popa   
  1085de:	74 69                	je     108649 <__debug_baud_rate+0x575>
  1085e0:	6f                   	outsl  %ds:(%esi),(%dx)
  1085e1:	6e                   	outsb  %ds:(%esi),(%dx)
  1085e2:	2e 0a 00             	or     %cs:(%eax),%al
  1085e5:	00 00                	add    %al,(%eax)
  1085e7:	00 2a                	add    %ch,(%edx)
  1085e9:	2a 2a                	sub    (%edx),%ch
  1085eb:	20 6b 65             	and    %ch,0x65(%ebx)
  1085ee:	72 6e                	jb     10865e <__debug_baud_rate+0x58a>
  1085f0:	65 6c                	gs insb (%dx),%es:(%edi)
  1085f2:	5f                   	pop    %edi
  1085f3:	70 61                	jo     108656 <__debug_baud_rate+0x582>
  1085f5:	6e                   	outsb  %ds:(%esi),(%dx)
  1085f6:	69 63 28 29 20 72 65 	imul   $0x65722029,0x28(%ebx),%esp
  1085fd:	63 65 69             	arpl   %sp,0x69(%ebp)
  108600:	76 65                	jbe    108667 <__debug_baud_rate+0x593>
  108602:	64 20 61 6e          	and    %ah,%fs:0x6e(%ecx)
  108606:	20 69 6e             	and    %ch,0x6e(%ecx)
  108609:	76 61                	jbe    10866c <__debug_baud_rate+0x598>
  10860b:	6c                   	insb   (%dx),%es:(%edi)
  10860c:	69 64 20 62 75 67 63 	imul   $0x6f636775,0x62(%eax,%eiz,1),%esp
  108613:	6f 
  108614:	64 65 20 28          	fs and %ch,%gs:(%eax)
  108618:	30 78 25             	xor    %bh,0x25(%eax)
  10861b:	78 29                	js     108646 <__debug_baud_rate+0x572>
  10861d:	0a 00                	or     (%eax),%al
  10861f:	2a 2a                	sub    (%edx),%ch
  108621:	2a 20                	sub    (%eax),%ah
  108623:	25 73 00 1b 5b       	and    $0x5b1b0073,%eax
  108628:	31 3b                	xor    %edi,(%ebx)
  10862a:	33 31                	xor    (%ecx),%esi
  10862c:	6d                   	insl   (%dx),%es:(%edi)
  10862d:	2a 2a                	sub    (%edx),%ch
  10862f:	2a 20                	sub    (%eax),%ah
  108631:	53                   	push   %ebx
  108632:	54                   	push   %esp
  108633:	4f                   	dec    %edi
  108634:	50                   	push   %eax
  108635:	3a 20                	cmp    (%eax),%ah
  108637:	25 73 0a 00 00       	and    $0xa73,%eax
  10863c:	76 61                	jbe    10869f <__debug_baud_rate+0x5cb>
  10863e:	6c                   	insb   (%dx),%es:(%edi)
  10863f:	6c                   	insb   (%dx),%es:(%edi)
  108640:	6f                   	outsl  %ds:(%esi),(%dx)
  108641:	63 28                	arpl   %bp,(%eax)
  108643:	29 20                	sub    %esp,(%eax)
  108645:	69 73 20 6e 6f 74 20 	imul   $0x20746f6e,0x20(%ebx),%esi
  10864c:	73 75                	jae    1086c3 <__debug_baud_rate+0x5ef>
  10864e:	70 70                	jo     1086c0 <__debug_baud_rate+0x5ec>
  108650:	6f                   	outsl  %ds:(%esi),(%dx)
  108651:	72 74                	jb     1086c7 <__debug_baud_rate+0x5f3>
  108653:	65 64 20 69 6e       	gs and %ch,%fs:0x6e(%ecx)
  108658:	20 74 68 69          	and    %dh,0x69(%eax,%ebp,2)
  10865c:	73 20                	jae    10867e <__debug_baud_rate+0x5aa>
  10865e:	63 6f 6e             	arpl   %bp,0x6e(%edi)
  108661:	74 65                	je     1086c8 <__debug_baud_rate+0x5f4>
  108663:	78 74                	js     1086d9 <__debug_baud_rate+0x605>
  108665:	2e 0a 00             	or     %cs:(%eax),%al
  108668:	61                   	popa   
  108669:	6c                   	insb   (%dx),%es:(%edi)
  10866a:	6c                   	insb   (%dx),%es:(%edi)
  10866b:	6f                   	outsl  %ds:(%esi),(%dx)
  10866c:	63 00                	arpl   %ax,(%eax)
  10866e:	00 00                	add    %al,(%eax)
  108670:	41                   	inc    %ecx
  108671:	74 74                	je     1086e7 <__debug_baud_rate+0x613>
  108673:	65 6d                	gs insl (%dx),%es:(%edi)
  108675:	70 74                	jo     1086eb <__debug_baud_rate+0x617>
  108677:	65 64 20 74 6f 20    	gs and %dh,%fs:0x20(%edi,%ebp,2)
  10867d:	70 72                	jo     1086f1 <__debug_baud_rate+0x61d>
  10867f:	6f                   	outsl  %ds:(%esi),(%dx)
  108680:	66 69 6c 65 20 6d 65 	imul   $0x656d,0x20(%ebp,%eiz,2),%bp
  108687:	6d                   	insl   (%dx),%es:(%edi)
  108688:	6f                   	outsl  %ds:(%esi),(%dx)
  108689:	72 79                	jb     108704 <__debug_baud_rate+0x630>
  10868b:	20 73 79             	and    %dh,0x79(%ebx)
  10868e:	73 74                	jae    108704 <__debug_baud_rate+0x630>
  108690:	65 6d                	gs insl (%dx),%es:(%edi)
  108692:	2c 20                	sub    $0x20,%al
  108694:	62 75 74             	bound  %esi,0x74(%ebp)
  108697:	20 69 74             	and    %ch,0x74(%ecx)
  10869a:	20 69 73             	and    %ch,0x73(%ecx)
  10869d:	20 75 6e             	and    %dh,0x6e(%ebp)
  1086a0:	73 75                	jae    108717 <__debug_baud_rate+0x643>
  1086a2:	70 70                	jo     108714 <__debug_baud_rate+0x640>
  1086a4:	6f                   	outsl  %ds:(%esi),(%dx)
  1086a5:	72 74                	jb     10871b <__debug_baud_rate+0x647>
  1086a7:	65 64 2e 00 6d 65    	gs fs add %ch,%cs:0x65(%ebp)
  1086ad:	6d                   	insl   (%dx),%es:(%edi)
  1086ae:	2f                   	das    
  1086af:	61                   	popa   
  1086b0:	6c                   	insb   (%dx),%es:(%edi)
  1086b1:	6c                   	insb   (%dx),%es:(%edi)
  1086b2:	6f                   	outsl  %ds:(%esi),(%dx)
  1086b3:	63 2e                	arpl   %bp,(%esi)
  1086b5:	63 00                	arpl   %ax,(%eax)
  1086b7:	00 4e 6f             	add    %cl,0x6f(%esi)
  1086ba:	20 73 70             	and    %dh,0x70(%ebx)
  1086bd:	69 6e 6c 6f 63 6b 20 	imul   $0x206b636f,0x6c(%esi),%ebp
  1086c4:	73 75                	jae    10873b <__debug_baud_rate+0x667>
  1086c6:	70 70                	jo     108738 <__debug_baud_rate+0x664>
  1086c8:	6f                   	outsl  %ds:(%esi),(%dx)
  1086c9:	72 74                	jb     10873f <__debug_baud_rate+0x66b>
  1086cb:	20 61 64             	and    %ah,0x64(%ecx)
  1086ce:	64 65 64 20 69 6e    	fs gs and %ch,%fs:0x6e(%ecx)
  1086d4:	20 61 6c             	and    %ah,0x6c(%ecx)
  1086d7:	6c                   	insb   (%dx),%es:(%edi)
  1086d8:	6f                   	outsl  %ds:(%esi),(%dx)
  1086d9:	63 61 74             	arpl   %sp,0x74(%ecx)
  1086dc:	6f                   	outsl  %ds:(%esi),(%dx)
  1086dd:	72 20                	jb     1086ff <__debug_baud_rate+0x62b>
  1086df:	6d                   	insl   (%dx),%es:(%edi)
  1086e0:	61                   	popa   
  1086e1:	6e                   	outsb  %ds:(%esi),(%dx)
  1086e2:	61                   	popa   
  1086e3:	67 65 6d             	gs insl (%dx),%es:(%di)
  1086e6:	65 6e                	outsb  %gs:(%esi),(%dx)
  1086e8:	74 20                	je     10870a <__debug_baud_rate+0x636>
  1086ea:	73 79                	jae    108765 <__debug_baud_rate+0x691>
  1086ec:	73 74                	jae    108762 <__debug_baud_rate+0x68e>
  1086ee:	65 6d                	gs insl (%dx),%es:(%edi)
  1086f0:	21 0a                	and    %ecx,(%edx)
  1086f2:	00 70 68             	add    %dh,0x68(%eax)
  1086f5:	79 73                	jns    10876a <__debug_baud_rate+0x696>
  1086f7:	6d                   	insl   (%dx),%es:(%edi)
  1086f8:	65 6d                	gs insl (%dx),%es:(%edi)
  1086fa:	00 00                	add    %al,(%eax)
  1086fc:	74 6f                	je     10876d <__debug_baud_rate+0x699>
  1086fe:	61                   	popa   
  1086ff:	72 75                	jb     108776 <__debug_baud_rate+0x6a2>
  108701:	5f                   	pop    %edi
  108702:	61                   	popa   
  108703:	6c                   	insb   (%dx),%es:(%edi)
  108704:	6c                   	insb   (%dx),%es:(%edi)
  108705:	6f                   	outsl  %ds:(%esi),(%dx)
  108706:	63 00                	arpl   %ax,(%eax)
  108708:	2a 2a                	sub    (%edx),%ch
  10870a:	2a 20                	sub    (%eax),%ah
  10870c:	41                   	inc    %ecx
  10870d:	73 73                	jae    108782 <__debug_baud_rate+0x6ae>
  10870f:	65 72 74             	gs jb  108786 <__debug_baud_rate+0x6b2>
  108712:	69 6f 6e 20 66 61 69 	imul   $0x69616620,0x6e(%edi),%ebp
  108719:	6c                   	insb   (%dx),%es:(%edi)
  10871a:	65 64 20 69 6e       	gs and %ch,%fs:0x6e(%ecx)
  10871f:	20 61 6c             	and    %ah,0x6c(%ecx)
  108722:	6c                   	insb   (%dx),%es:(%edi)
  108723:	6f                   	outsl  %ds:(%esi),(%dx)
  108724:	63 61 74             	arpl   %sp,0x74(%ecx)
  108727:	6f                   	outsl  %ds:(%esi),(%dx)
  108728:	72 20                	jb     10874a <__debug_baud_rate+0x676>
  10872a:	28 25 73 3a 25 69    	sub    %ah,0x69253a73
  108730:	29 3a                	sub    %edi,(%edx)
  108732:	20 25 73 0a 0a 00    	and    %ah,0xa0a73
  108738:	6d                   	insl   (%dx),%es:(%edi)
  108739:	65 6d                	gs insl (%dx),%es:(%edi)
  10873b:	2f                   	das    
  10873c:	74 6f                	je     1087ad <__debug_baud_rate+0x6d9>
  10873e:	61                   	popa   
  10873f:	72 75                	jb     1087b6 <__debug_baud_rate+0x6e2>
  108741:	5f                   	pop    %edi
  108742:	61                   	popa   
  108743:	6c                   	insb   (%dx),%es:(%edi)
  108744:	6c                   	insb   (%dx),%es:(%edi)
  108745:	6f                   	outsl  %ds:(%esi),(%dx)
  108746:	63 2f                	arpl   %bp,(%edi)
  108748:	74 6f                	je     1087b9 <__debug_baud_rate+0x6e5>
  10874a:	61                   	popa   
  10874b:	72 75                	jb     1087c2 <__debug_baud_rate+0x6ee>
  10874d:	5f                   	pop    %edi
  10874e:	61                   	popa   
  10874f:	6c                   	insb   (%dx),%es:(%edi)
  108750:	6c                   	insb   (%dx),%es:(%edi)
  108751:	6f                   	outsl  %ds:(%esi),(%dx)
  108752:	63 2e                	arpl   %bp,(%esi)
  108754:	63 00                	arpl   %ax,(%eax)
  108756:	00 00                	add    %al,(%eax)
  108758:	43                   	inc    %ebx
  108759:	55                   	push   %ebp
  10875a:	52                   	push   %edx
  10875b:	52                   	push   %edx
  10875c:	45                   	inc    %ebp
  10875d:	4e                   	dec    %esi
  10875e:	54                   	push   %esp
  10875f:	20 41 4c             	and    %al,0x4c(%ecx)
  108762:	4c                   	dec    %esp
  108763:	4f                   	dec    %edi
  108764:	43                   	inc    %ebx
  108765:	41                   	inc    %ecx
  108766:	54                   	push   %esp
  108767:	4f                   	dec    %edi
  108768:	52                   	push   %edx
  108769:	20 49 4e             	and    %cl,0x4e(%ecx)
  10876c:	20 55 53             	and    %dl,0x53(%ebp)
  10876f:	45                   	inc    %ebp
  108770:	3a 20                	cmp    (%eax),%ah
  108772:	74 6f                	je     1087e3 <__debug_baud_rate+0x70f>
  108774:	61                   	popa   
  108775:	72 75                	jb     1087ec <__debug_baud_rate+0x718>
  108777:	5f                   	pop    %edi
  108778:	61                   	popa   
  108779:	6c                   	insb   (%dx),%es:(%edi)
  10877a:	6c                   	insb   (%dx),%es:(%edi)
  10877b:	6f                   	outsl  %ds:(%esi),(%dx)
  10877c:	63 0a                	arpl   %cx,(%edx)
  10877e:	00 00                	add    %al,(%eax)
  108780:	28 6e 6f             	sub    %ch,0x6f(%esi)
  108783:	64 65 2d 3e 73 69 7a 	fs gs sub $0x7a69733e,%eax
  10878a:	65 20 2b             	and    %ch,%gs:(%ebx)
  10878d:	20 73 69             	and    %dh,0x69(%ebx)
  108790:	7a 65                	jp     1087f7 <__debug_baud_rate+0x723>
  108792:	6f                   	outsl  %ds:(%esi),(%dx)
  108793:	66 28 6b 6c          	data16 sub %ch,0x6c(%ebx)
  108797:	6d                   	insl   (%dx),%es:(%edi)
  108798:	61                   	popa   
  108799:	6c                   	insb   (%dx),%es:(%edi)
  10879a:	6c                   	insb   (%dx),%es:(%edi)
  10879b:	6f                   	outsl  %ds:(%esi),(%dx)
  10879c:	63 5f 62             	arpl   %bx,0x62(%edi)
  10879f:	69 67 5f 62 69 6e 5f 	imul   $0x5f6e6962,0x5f(%edi),%esp
  1087a6:	68 65 61 64 65       	push   $0x65646165
  1087ab:	72 29                	jb     1087d6 <__debug_baud_rate+0x702>
  1087ad:	29 20                	sub    %esp,(%eax)
  1087af:	25 20 50 41 47       	and    $0x47415020,%eax
  1087b4:	45                   	inc    %ebp
  1087b5:	5f                   	pop    %edi
  1087b6:	53                   	push   %ebx
  1087b7:	49                   	dec    %ecx
  1087b8:	5a                   	pop    %edx
  1087b9:	45                   	inc    %ebp
  1087ba:	20 3d 3d 20 30 00    	and    %bh,0x30203d
  1087c0:	28 75 69             	sub    %dh,0x69(%ebp)
  1087c3:	6e                   	outsb  %ds:(%esi),(%dx)
  1087c4:	74 70                	je     108836 <__debug_baud_rate+0x762>
  1087c6:	74 72                	je     10883a <__debug_baud_rate+0x766>
  1087c8:	5f                   	pop    %edi
  1087c9:	74 29                	je     1087f4 <__debug_baud_rate+0x720>
  1087cb:	6e                   	outsb  %ds:(%esi),(%dx)
  1087cc:	6f                   	outsl  %ds:(%esi),(%dx)
  1087cd:	64 65 20 25 20 50 41 	fs and %ah,%gs:0x47415020
  1087d4:	47 
  1087d5:	45                   	inc    %ebp
  1087d6:	5f                   	pop    %edi
  1087d7:	53                   	push   %ebx
  1087d8:	49                   	dec    %ecx
  1087d9:	5a                   	pop    %edx
  1087da:	45                   	inc    %ebp
  1087db:	20 3d 3d 20 30 00    	and    %bh,0x30203d
  1087e1:	76 61                	jbe    108844 <__debug_baud_rate+0x770>
  1087e3:	6c                   	insb   (%dx),%es:(%edi)
  1087e4:	75 65                	jne    10884b <__debug_baud_rate+0x777>
  1087e6:	20 21                	and    %ah,(%ecx)
  1087e8:	3d 20 4e 55 4c       	cmp    $0x4c554e20,%eax
  1087ed:	4c                   	dec    %esp
  1087ee:	00 76 61             	add    %dh,0x61(%esi)
  1087f1:	6c                   	insb   (%dx),%es:(%edi)
  1087f2:	75 65                	jne    108859 <__debug_baud_rate+0x785>
  1087f4:	2d 3e 68 65 61       	sub    $0x6165683e,%eax
  1087f9:	64 20 21             	and    %ah,%fs:(%ecx)
  1087fc:	3d 20 4e 55 4c       	cmp    $0x4c554e20,%eax
  108801:	4c                   	dec    %esp
  108802:	00 00                	add    %al,(%eax)
  108804:	28 75 69             	sub    %dh,0x69(%ebp)
  108807:	6e                   	outsb  %ds:(%esi),(%dx)
  108808:	74 70                	je     10887a <__debug_baud_rate+0x7a6>
  10880a:	74 72                	je     10887e <__debug_baud_rate+0x7aa>
  10880c:	5f                   	pop    %edi
  10880d:	74 29                	je     108838 <__debug_baud_rate+0x764>
  10880f:	76 61                	jbe    108872 <__debug_baud_rate+0x79e>
  108811:	6c                   	insb   (%dx),%es:(%edi)
  108812:	75 65                	jne    108879 <__debug_baud_rate+0x7a5>
  108814:	2d 3e 68 65 61       	sub    $0x6165683e,%eax
  108819:	64 20 3e             	and    %bh,%fs:(%esi)
  10881c:	20 28                	and    %ch,(%eax)
  10881e:	75 69                	jne    108889 <__debug_baud_rate+0x7b5>
  108820:	6e                   	outsb  %ds:(%esi),(%dx)
  108821:	74 70                	je     108893 <__debug_baud_rate+0x7bf>
  108823:	74 72                	je     108897 <__debug_baud_rate+0x7c3>
  108825:	5f                   	pop    %edi
  108826:	74 29                	je     108851 <__debug_baud_rate+0x77d>
  108828:	76 61                	jbe    10888b <__debug_baud_rate+0x7b7>
  10882a:	6c                   	insb   (%dx),%es:(%edi)
  10882b:	75 65                	jne    108892 <__debug_baud_rate+0x7be>
  10882d:	00 00                	add    %al,(%eax)
  10882f:	00 28                	add    %ch,(%eax)
  108831:	75 69                	jne    10889c <__debug_baud_rate+0x7c8>
  108833:	6e                   	outsb  %ds:(%esi),(%dx)
  108834:	74 70                	je     1088a6 <__debug_baud_rate+0x7d2>
  108836:	74 72                	je     1088aa <__debug_baud_rate+0x7d6>
  108838:	5f                   	pop    %edi
  108839:	74 29                	je     108864 <__debug_baud_rate+0x790>
  10883b:	76 61                	jbe    10889e <__debug_baud_rate+0x7ca>
  10883d:	6c                   	insb   (%dx),%es:(%edi)
  10883e:	75 65                	jne    1088a5 <__debug_baud_rate+0x7d1>
  108840:	2d 3e 68 65 61       	sub    $0x6165683e,%eax
  108845:	64 20 3c 20          	and    %bh,%fs:(%eax,%eiz,1)
  108849:	28 75 69             	sub    %dh,0x69(%ebp)
  10884c:	6e                   	outsb  %ds:(%esi),(%dx)
  10884d:	74 70                	je     1088bf <__debug_baud_rate+0x7eb>
  10884f:	74 72                	je     1088c3 <__debug_baud_rate+0x7ef>
  108851:	5f                   	pop    %edi
  108852:	74 29                	je     10887d <__debug_baud_rate+0x7a9>
  108854:	76 61                	jbe    1088b7 <__debug_baud_rate+0x7e3>
  108856:	6c                   	insb   (%dx),%es:(%edi)
  108857:	75 65                	jne    1088be <__debug_baud_rate+0x7ea>
  108859:	20 2b                	and    %ch,(%ebx)
  10885b:	20 76 61             	and    %dh,0x61(%esi)
  10885e:	6c                   	insb   (%dx),%es:(%edi)
  10885f:	75 65                	jne    1088c6 <__debug_baud_rate+0x7f2>
  108861:	2d 3e 73 69 7a       	sub    $0x7a69733e,%eax
  108866:	65 00 28             	add    %ch,%gs:(%eax)
  108869:	75 69                	jne    1088d4 <__debug_baud_rate+0x800>
  10886b:	6e                   	outsb  %ds:(%esi),(%dx)
  10886c:	74 70                	je     1088de <__debug_baud_rate+0x80a>
  10886e:	74 72                	je     1088e2 <__debug_baud_rate+0x80e>
  108870:	5f                   	pop    %edi
  108871:	74 29                	je     10889c <__debug_baud_rate+0x7c8>
  108873:	76 61                	jbe    1088d6 <__debug_baud_rate+0x802>
  108875:	6c                   	insb   (%dx),%es:(%edi)
  108876:	75 65                	jne    1088dd <__debug_baud_rate+0x809>
  108878:	2d 3e 68 65 61       	sub    $0x6165683e,%eax
  10887d:	64 20 3c 20          	and    %bh,%fs:(%eax,%eiz,1)
  108881:	28 75 69             	sub    %dh,0x69(%ebp)
  108884:	6e                   	outsb  %ds:(%esi),(%dx)
  108885:	74 70                	je     1088f7 <__debug_baud_rate+0x823>
  108887:	74 72                	je     1088fb <__debug_baud_rate+0x827>
  108889:	5f                   	pop    %edi
  10888a:	74 29                	je     1088b5 <__debug_baud_rate+0x7e1>
  10888c:	76 61                	jbe    1088ef <__debug_baud_rate+0x81b>
  10888e:	6c                   	insb   (%dx),%es:(%edi)
  10888f:	75 65                	jne    1088f6 <__debug_baud_rate+0x822>
  108891:	20 2b                	and    %ch,(%ebx)
  108893:	20 50 41             	and    %dl,0x41(%eax)
  108896:	47                   	inc    %edi
  108897:	45                   	inc    %ebp
  108898:	5f                   	pop    %edi
  108899:	53                   	push   %ebx
  10889a:	49                   	dec    %ecx
  10889b:	5a                   	pop    %edx
  10889c:	45                   	inc    %ebp
  10889d:	00 00                	add    %al,(%eax)
  10889f:	00 28                	add    %ch,(%eax)
  1088a1:	75 69                	jne    10890c <__debug_baud_rate+0x838>
  1088a3:	6e                   	outsb  %ds:(%esi),(%dx)
  1088a4:	74 70                	je     108916 <__debug_baud_rate+0x842>
  1088a6:	74 72                	je     10891a <__debug_baud_rate+0x846>
  1088a8:	5f                   	pop    %edi
  1088a9:	74 29                	je     1088d4 <__debug_baud_rate+0x800>
  1088ab:	76 61                	jbe    10890e <__debug_baud_rate+0x83a>
  1088ad:	6c                   	insb   (%dx),%es:(%edi)
  1088ae:	75 65                	jne    108915 <__debug_baud_rate+0x841>
  1088b0:	20 25 20 50 41 47    	and    %ah,0x47415020
  1088b6:	45                   	inc    %ebp
  1088b7:	5f                   	pop    %edi
  1088b8:	53                   	push   %ebx
  1088b9:	49                   	dec    %ecx
  1088ba:	5a                   	pop    %edx
  1088bb:	45                   	inc    %ebp
  1088bc:	20 3d 3d 20 30 00    	and    %bh,0x30203d
  1088c2:	00 00                	add    %al,(%eax)
  1088c4:	28 76 61             	sub    %dh,0x61(%esi)
  1088c7:	6c                   	insb   (%dx),%es:(%edi)
  1088c8:	75 65                	jne    10892f <__debug_baud_rate+0x85b>
  1088ca:	2d 3e 73 69 7a       	sub    $0x7a69733e,%eax
  1088cf:	65 20 2b             	and    %ch,%gs:(%ebx)
  1088d2:	20 73 69             	and    %dh,0x69(%ebx)
  1088d5:	7a 65                	jp     10893c <__debug_baud_rate+0x868>
  1088d7:	6f                   	outsl  %ds:(%esi),(%dx)
  1088d8:	66 28 6b 6c          	data16 sub %ch,0x6c(%ebx)
  1088dc:	6d                   	insl   (%dx),%es:(%edi)
  1088dd:	61                   	popa   
  1088de:	6c                   	insb   (%dx),%es:(%edi)
  1088df:	6c                   	insb   (%dx),%es:(%edi)
  1088e0:	6f                   	outsl  %ds:(%esi),(%dx)
  1088e1:	63 5f 62             	arpl   %bx,0x62(%edi)
  1088e4:	69 67 5f 62 69 6e 5f 	imul   $0x5f6e6962,0x5f(%edi),%esp
  1088eb:	68 65 61 64 65       	push   $0x65646165
  1088f0:	72 29                	jb     10891b <__debug_baud_rate+0x847>
  1088f2:	29 20                	sub    %esp,(%eax)
  1088f4:	25 20 50 41 47       	and    $0x47415020,%eax
  1088f9:	45                   	inc    %ebp
  1088fa:	5f                   	pop    %edi
  1088fb:	53                   	push   %ebx
  1088fc:	49                   	dec    %ecx
  1088fd:	5a                   	pop    %edx
  1088fe:	45                   	inc    %ebp
  1088ff:	20 3d 3d 20 30 00    	and    %bh,0x30203d
  108905:	76 61                	jbe    108968 <__debug_baud_rate+0x894>
  108907:	6c                   	insb   (%dx),%es:(%edi)
  108908:	75 65                	jne    10896f <__debug_baud_rate+0x89b>
  10890a:	2d 3e 73 69 7a       	sub    $0x7a69733e,%eax
  10890f:	65 20 21             	and    %ah,%gs:(%ecx)
  108912:	3d 20 30 00 00       	cmp    $0x3020,%eax
  108917:	00 28                	add    %ch,(%eax)
  108919:	6e                   	outsb  %ds:(%esi),(%dx)
  10891a:	6f                   	outsl  %ds:(%esi),(%dx)
  10891b:	64 65 2d 3e 66 6f 72 	fs gs sub $0x726f663e,%eax
  108922:	77 61                	ja     108985 <__debug_baud_rate+0x8b1>
  108924:	72 64                	jb     10898a <__debug_baud_rate+0x8b6>
  108926:	5b                   	pop    %ebx
  108927:	69 5d 2d 3e 73 69 7a 	imul   $0x7a69733e,0x2d(%ebp),%ebx
  10892e:	65 20 2b             	and    %ch,%gs:(%ebx)
  108931:	20 73 69             	and    %dh,0x69(%ebx)
  108934:	7a 65                	jp     10899b <__debug_baud_rate+0x8c7>
  108936:	6f                   	outsl  %ds:(%esi),(%dx)
  108937:	66 28 6b 6c          	data16 sub %ch,0x6c(%ebx)
  10893b:	6d                   	insl   (%dx),%es:(%edi)
  10893c:	61                   	popa   
  10893d:	6c                   	insb   (%dx),%es:(%edi)
  10893e:	6c                   	insb   (%dx),%es:(%edi)
  10893f:	6f                   	outsl  %ds:(%esi),(%dx)
  108940:	63 5f 62             	arpl   %bx,0x62(%edi)
  108943:	69 67 5f 62 69 6e 5f 	imul   $0x5f6e6962,0x5f(%edi),%esp
  10894a:	68 65 61 64 65       	push   $0x65646165
  10894f:	72 29                	jb     10897a <__debug_baud_rate+0x8a6>
  108951:	29 20                	sub    %esp,(%eax)
  108953:	25 20 50 41 47       	and    $0x47415020,%eax
  108958:	45                   	inc    %ebp
  108959:	5f                   	pop    %edi
  10895a:	53                   	push   %ebx
  10895b:	49                   	dec    %ecx
  10895c:	5a                   	pop    %edx
  10895d:	45                   	inc    %ebp
  10895e:	20 3d 3d 20 30 00    	and    %bh,0x30203d
  108964:	76 61                	jbe    1089c7 <__debug_baud_rate+0x8f3>
  108966:	6c                   	insb   (%dx),%es:(%edi)
  108967:	75 65                	jne    1089ce <__debug_baud_rate+0x8fa>
  108969:	2d 3e 68 65 61       	sub    $0x6165683e,%eax
  10896e:	64 00 28             	add    %ch,%fs:(%eax)
  108971:	75 69                	jne    1089dc <__debug_baud_rate+0x908>
  108973:	6e                   	outsb  %ds:(%esi),(%dx)
  108974:	74 70                	je     1089e6 <__debug_baud_rate+0x912>
  108976:	74 72                	je     1089ea <__debug_baud_rate+0x916>
  108978:	5f                   	pop    %edi
  108979:	74 29                	je     1089a4 <__debug_baud_rate+0x8d0>
  10897b:	28 75 70             	sub    %dh,0x70(%ebp)
  10897e:	64 61                	fs popa 
  108980:	74 65                	je     1089e7 <__debug_baud_rate+0x913>
  108982:	5b                   	pop    %ebx
  108983:	69 5d 2d 3e 66 6f 72 	imul   $0x726f663e,0x2d(%ebp),%ebx
  10898a:	77 61                	ja     1089ed <__debug_baud_rate+0x919>
  10898c:	72 64                	jb     1089f2 <__debug_baud_rate+0x91e>
  10898e:	5b                   	pop    %ebx
  10898f:	69 5d 29 20 25 20 50 	imul   $0x50202520,0x29(%ebp),%ebx
  108996:	41                   	inc    %ecx
  108997:	47                   	inc    %edi
  108998:	45                   	inc    %ebp
  108999:	5f                   	pop    %edi
  10899a:	53                   	push   %ebx
  10899b:	49                   	dec    %ecx
  10899c:	5a                   	pop    %edx
  10899d:	45                   	inc    %ebp
  10899e:	20 3d 3d 20 30 00    	and    %bh,0x30203d
  1089a4:	28 75 70             	sub    %dh,0x70(%ebp)
  1089a7:	64 61                	fs popa 
  1089a9:	74 65                	je     108a10 <__debug_baud_rate+0x93c>
  1089ab:	5b                   	pop    %ebx
  1089ac:	69 5d 2d 3e 66 6f 72 	imul   $0x726f663e,0x2d(%ebp),%ebx
  1089b3:	77 61                	ja     108a16 <__debug_baud_rate+0x942>
  1089b5:	72 64                	jb     108a1b <__debug_baud_rate+0x947>
  1089b7:	5b                   	pop    %ebx
  1089b8:	69 5d 2d 3e 73 69 7a 	imul   $0x7a69733e,0x2d(%ebp),%ebx
  1089bf:	65 20 2b             	and    %ch,%gs:(%ebx)
  1089c2:	20 73 69             	and    %dh,0x69(%ebx)
  1089c5:	7a 65                	jp     108a2c <__debug_baud_rate+0x958>
  1089c7:	6f                   	outsl  %ds:(%esi),(%dx)
  1089c8:	66 28 6b 6c          	data16 sub %ch,0x6c(%ebx)
  1089cc:	6d                   	insl   (%dx),%es:(%edi)
  1089cd:	61                   	popa   
  1089ce:	6c                   	insb   (%dx),%es:(%edi)
  1089cf:	6c                   	insb   (%dx),%es:(%edi)
  1089d0:	6f                   	outsl  %ds:(%esi),(%dx)
  1089d1:	63 5f 62             	arpl   %bx,0x62(%edi)
  1089d4:	69 67 5f 62 69 6e 5f 	imul   $0x5f6e6962,0x5f(%edi),%esp
  1089db:	68 65 61 64 65       	push   $0x65646165
  1089e0:	72 29                	jb     108a0b <__debug_baud_rate+0x937>
  1089e2:	29 20                	sub    %esp,(%eax)
  1089e4:	25 20 50 41 47       	and    $0x47415020,%eax
  1089e9:	45                   	inc    %ebp
  1089ea:	5f                   	pop    %edi
  1089eb:	53                   	push   %ebx
  1089ec:	49                   	dec    %ecx
  1089ed:	5a                   	pop    %edx
  1089ee:	45                   	inc    %ebp
  1089ef:	20 3d 3d 20 30 00    	and    %bh,0x30203d
  1089f5:	68 65 61 64 65       	push   $0x65646165
  1089fa:	72 00                	jb     1089fc <__debug_baud_rate+0x928>
  1089fc:	68 65 61 64 65       	push   $0x65646165
  108a01:	72 2d                	jb     108a30 <__debug_baud_rate+0x95c>
  108a03:	3e 68 65 61 64 20    	ds push $0x20646165
  108a09:	21 3d 20 4e 55 4c    	and    %edi,0x4c554e20
  108a0f:	4c                   	dec    %esp
  108a10:	00 00                	add    %al,(%eax)
  108a12:	00 00                	add    %al,(%eax)
  108a14:	28 75 69             	sub    %dh,0x69(%ebp)
  108a17:	6e                   	outsb  %ds:(%esi),(%dx)
  108a18:	74 70                	je     108a8a <__debug_baud_rate+0x9b6>
  108a1a:	74 72                	je     108a8e <__debug_baud_rate+0x9ba>
  108a1c:	5f                   	pop    %edi
  108a1d:	74 29                	je     108a48 <__debug_baud_rate+0x974>
  108a1f:	68 65 61 64 65       	push   $0x65646165
  108a24:	72 2d                	jb     108a53 <__debug_baud_rate+0x97f>
  108a26:	3e 68 65 61 64 20    	ds push $0x20646165
  108a2c:	3e 20 28             	and    %ch,%ds:(%eax)
  108a2f:	75 69                	jne    108a9a <__debug_baud_rate+0x9c6>
  108a31:	6e                   	outsb  %ds:(%esi),(%dx)
  108a32:	74 70                	je     108aa4 <__debug_baud_rate+0x9d0>
  108a34:	74 72                	je     108aa8 <__debug_baud_rate+0x9d4>
  108a36:	5f                   	pop    %edi
  108a37:	74 29                	je     108a62 <__debug_baud_rate+0x98e>
  108a39:	68 65 61 64 65       	push   $0x65646165
  108a3e:	72 00                	jb     108a40 <__debug_baud_rate+0x96c>
  108a40:	28 75 69             	sub    %dh,0x69(%ebp)
  108a43:	6e                   	outsb  %ds:(%esi),(%dx)
  108a44:	74 70                	je     108ab6 <__debug_baud_rate+0x9e2>
  108a46:	74 72                	je     108aba <__debug_baud_rate+0x9e6>
  108a48:	5f                   	pop    %edi
  108a49:	74 29                	je     108a74 <__debug_baud_rate+0x9a0>
  108a4b:	68 65 61 64 65       	push   $0x65646165
  108a50:	72 2d                	jb     108a7f <__debug_baud_rate+0x9ab>
  108a52:	3e 68 65 61 64 20    	ds push $0x20646165
  108a58:	3c 20                	cmp    $0x20,%al
  108a5a:	28 75 69             	sub    %dh,0x69(%ebp)
  108a5d:	6e                   	outsb  %ds:(%esi),(%dx)
  108a5e:	74 70                	je     108ad0 <__debug_baud_rate+0x9fc>
  108a60:	74 72                	je     108ad4 <__debug_baud_rate+0xa00>
  108a62:	5f                   	pop    %edi
  108a63:	74 29                	je     108a8e <__debug_baud_rate+0x9ba>
  108a65:	68 65 61 64 65       	push   $0x65646165
  108a6a:	72 20                	jb     108a8c <__debug_baud_rate+0x9b8>
  108a6c:	2b 20                	sub    (%eax),%esp
  108a6e:	68 65 61 64 65       	push   $0x65646165
  108a73:	72 2d                	jb     108aa2 <__debug_baud_rate+0x9ce>
  108a75:	3e 73 69             	jae,pt 108ae1 <__debug_baud_rate+0xa0d>
  108a78:	7a 65                	jp     108adf <__debug_baud_rate+0xa0b>
  108a7a:	00 00                	add    %al,(%eax)
  108a7c:	28 75 69             	sub    %dh,0x69(%ebp)
  108a7f:	6e                   	outsb  %ds:(%esi),(%dx)
  108a80:	74 70                	je     108af2 <__debug_baud_rate+0xa1e>
  108a82:	74 72                	je     108af6 <__debug_baud_rate+0xa22>
  108a84:	5f                   	pop    %edi
  108a85:	74 29                	je     108ab0 <__debug_baud_rate+0x9dc>
  108a87:	68 65 61 64 65       	push   $0x65646165
  108a8c:	72 2d                	jb     108abb <__debug_baud_rate+0x9e7>
  108a8e:	3e 68 65 61 64 20    	ds push $0x20646165
  108a94:	3c 20                	cmp    $0x20,%al
  108a96:	28 75 69             	sub    %dh,0x69(%ebp)
  108a99:	6e                   	outsb  %ds:(%esi),(%dx)
  108a9a:	74 70                	je     108b0c <__debug_baud_rate+0xa38>
  108a9c:	74 72                	je     108b10 <__debug_baud_rate+0xa3c>
  108a9e:	5f                   	pop    %edi
  108a9f:	74 29                	je     108aca <__debug_baud_rate+0x9f6>
  108aa1:	68 65 61 64 65       	push   $0x65646165
  108aa6:	72 20                	jb     108ac8 <__debug_baud_rate+0x9f4>
  108aa8:	2b 20                	sub    (%eax),%esp
  108aaa:	50                   	push   %eax
  108aab:	41                   	inc    %ecx
  108aac:	47                   	inc    %edi
  108aad:	45                   	inc    %ebp
  108aae:	5f                   	pop    %edi
  108aaf:	53                   	push   %ebx
  108ab0:	49                   	dec    %ecx
  108ab1:	5a                   	pop    %edx
  108ab2:	45                   	inc    %ebp
  108ab3:	00 28                	add    %ch,(%eax)
  108ab5:	75 69                	jne    108b20 <__debug_baud_rate+0xa4c>
  108ab7:	6e                   	outsb  %ds:(%esi),(%dx)
  108ab8:	74 70                	je     108b2a <__debug_baud_rate+0xa56>
  108aba:	74 72                	je     108b2e <__debug_baud_rate+0xa5a>
  108abc:	5f                   	pop    %edi
  108abd:	74 29                	je     108ae8 <__debug_baud_rate+0xa14>
  108abf:	68 65 61 64 65       	push   $0x65646165
  108ac4:	72 2d                	jb     108af3 <__debug_baud_rate+0xa1f>
  108ac6:	3e 68 65 61 64 20    	ds push $0x20646165
  108acc:	3e 20 28             	and    %ch,%ds:(%eax)
  108acf:	75 69                	jne    108b3a <__debug_baud_rate+0xa66>
  108ad1:	6e                   	outsb  %ds:(%esi),(%dx)
  108ad2:	74 70                	je     108b44 <__debug_baud_rate+0xa70>
  108ad4:	74 72                	je     108b48 <__debug_baud_rate+0xa74>
  108ad6:	5f                   	pop    %edi
  108ad7:	74 29                	je     108b02 <__debug_baud_rate+0xa2e>
  108ad9:	68 65 61 64 65       	push   $0x65646165
  108ade:	72 20                	jb     108b00 <__debug_baud_rate+0xa2c>
  108ae0:	2b 20                	sub    (%eax),%esp
  108ae2:	73 69                	jae    108b4d <__debug_baud_rate+0xa79>
  108ae4:	7a 65                	jp     108b4b <__debug_baud_rate+0xa77>
  108ae6:	6f                   	outsl  %ds:(%esi),(%dx)
  108ae7:	66 28 6b 6c          	data16 sub %ch,0x6c(%ebx)
  108aeb:	6d                   	insl   (%dx),%es:(%edi)
  108aec:	61                   	popa   
  108aed:	6c                   	insb   (%dx),%es:(%edi)
  108aee:	6c                   	insb   (%dx),%es:(%edi)
  108aef:	6f                   	outsl  %ds:(%esi),(%dx)
  108af0:	63 5f 62             	arpl   %bx,0x62(%edi)
  108af3:	69 6e 5f 68 65 61 64 	imul   $0x64616568,0x5f(%esi),%ebp
  108afa:	65 72 29             	gs jb  108b26 <__debug_baud_rate+0xa52>
  108afd:	20 2d 20 31 00 70    	and    %ch,0x70003120
  108b03:	74 72                	je     108b77 <__debug_baud_rate+0xaa3>
  108b05:	20 21                	and    %ah,(%ecx)
  108b07:	3d 20 4e 55 4c       	cmp    $0x4c554e20,%eax
  108b0c:	4c                   	dec    %esp
  108b0d:	00 00                	add    %al,(%eax)
  108b0f:	00 28                	add    %ch,(%eax)
  108b11:	75 69                	jne    108b7c <__debug_baud_rate+0xaa8>
  108b13:	6e                   	outsb  %ds:(%esi),(%dx)
  108b14:	74 70                	je     108b86 <__debug_baud_rate+0xab2>
  108b16:	74 72                	je     108b8a <__debug_baud_rate+0xab6>
  108b18:	5f                   	pop    %edi
  108b19:	74 29                	je     108b44 <__debug_baud_rate+0xa70>
  108b1b:	70 74                	jo     108b91 <__debug_baud_rate+0xabd>
  108b1d:	72 20                	jb     108b3f <__debug_baud_rate+0xa6b>
  108b1f:	3e 20 28             	and    %ch,%ds:(%eax)
  108b22:	75 69                	jne    108b8d <__debug_baud_rate+0xab9>
  108b24:	6e                   	outsb  %ds:(%esi),(%dx)
  108b25:	74 70                	je     108b97 <__debug_baud_rate+0xac3>
  108b27:	74 72                	je     108b9b <__debug_baud_rate+0xac7>
  108b29:	5f                   	pop    %edi
  108b2a:	74 29                	je     108b55 <__debug_baud_rate+0xa81>
  108b2c:	68 65 61 64 65       	push   $0x65646165
  108b31:	72 00                	jb     108b33 <__debug_baud_rate+0xa5f>
  108b33:	00 28                	add    %ch,(%eax)
  108b35:	75 69                	jne    108ba0 <__debug_baud_rate+0xacc>
  108b37:	6e                   	outsb  %ds:(%esi),(%dx)
  108b38:	74 70                	je     108baa <__debug_baud_rate+0xad6>
  108b3a:	74 72                	je     108bae <__debug_baud_rate+0xada>
  108b3c:	5f                   	pop    %edi
  108b3d:	74 29                	je     108b68 <__debug_baud_rate+0xa94>
  108b3f:	70 74                	jo     108bb5 <__debug_baud_rate+0xae1>
  108b41:	72 20                	jb     108b63 <__debug_baud_rate+0xa8f>
  108b43:	3c 20                	cmp    $0x20,%al
  108b45:	28 75 69             	sub    %dh,0x69(%ebp)
  108b48:	6e                   	outsb  %ds:(%esi),(%dx)
  108b49:	74 70                	je     108bbb <__debug_baud_rate+0xae7>
  108b4b:	74 72                	je     108bbf <__debug_baud_rate+0xaeb>
  108b4d:	5f                   	pop    %edi
  108b4e:	74 29                	je     108b79 <__debug_baud_rate+0xaa5>
  108b50:	68 65 61 64 65       	push   $0x65646165
  108b55:	72 20                	jb     108b77 <__debug_baud_rate+0xaa3>
  108b57:	2b 20                	sub    (%eax),%esp
  108b59:	68 65 61 64 65       	push   $0x65646165
  108b5e:	72 2d                	jb     108b8d <__debug_baud_rate+0xab9>
  108b60:	3e 73 69             	jae,pt 108bcc <__debug_baud_rate+0xaf8>
  108b63:	7a 65                	jp     108bca <__debug_baud_rate+0xaf6>
  108b65:	00 00                	add    %al,(%eax)
  108b67:	00 28                	add    %ch,(%eax)
  108b69:	28 28                	sub    %ch,(%eax)
  108b6b:	75 69                	jne    108bd6 <__debug_baud_rate+0xb02>
  108b6d:	6e                   	outsb  %ds:(%esi),(%dx)
  108b6e:	74 70                	je     108be0 <__debug_baud_rate+0xb0c>
  108b70:	74 72                	je     108be4 <__debug_baud_rate+0xb10>
  108b72:	5f                   	pop    %edi
  108b73:	74 29                	je     108b9e <__debug_baud_rate+0xaca>
  108b75:	70 74                	jo     108beb <__debug_baud_rate+0xb17>
  108b77:	72 20                	jb     108b99 <__debug_baud_rate+0xac5>
  108b79:	2d 20 73 69 7a       	sub    $0x7a697320,%eax
  108b7e:	65 6f                	outsl  %gs:(%esi),(%dx)
  108b80:	66 28 6b 6c          	data16 sub %ch,0x6c(%ebx)
  108b84:	6d                   	insl   (%dx),%es:(%edi)
  108b85:	61                   	popa   
  108b86:	6c                   	insb   (%dx),%es:(%edi)
  108b87:	6c                   	insb   (%dx),%es:(%edi)
  108b88:	6f                   	outsl  %ds:(%esi),(%dx)
  108b89:	63 5f 62             	arpl   %bx,0x62(%edi)
  108b8c:	69 6e 5f 68 65 61 64 	imul   $0x64616568,0x5f(%esi),%ebp
  108b93:	65 72 29             	gs jb  108bbf <__debug_baud_rate+0xaeb>
  108b96:	29 20                	sub    %esp,(%eax)
  108b98:	26 20 28             	and    %ch,%es:(%eax)
  108b9b:	28 31                	sub    %dh,(%ecx)
  108b9d:	55                   	push   %ebp
  108b9e:	4c                   	dec    %esp
  108b9f:	20 3c 3c             	and    %bh,(%esp,%edi,1)
  108ba2:	20 28                	and    %ch,(%eax)
  108ba4:	68 65 61 64 65       	push   $0x65646165
  108ba9:	72 2d                	jb     108bd8 <__debug_baud_rate+0xb04>
  108bab:	3e 73 69             	jae,pt 108c17 <__debug_baud_rate+0xb43>
  108bae:	7a 65                	jp     108c15 <__debug_baud_rate+0xb41>
  108bb0:	20 2b                	and    %ch,(%ebx)
  108bb2:	20 53 4d             	and    %dl,0x4d(%ebx)
  108bb5:	41                   	inc    %ecx
  108bb6:	4c                   	dec    %esp
  108bb7:	4c                   	dec    %esp
  108bb8:	45                   	inc    %ebp
  108bb9:	53                   	push   %ebx
  108bba:	54                   	push   %esp
  108bbb:	5f                   	pop    %edi
  108bbc:	42                   	inc    %edx
  108bbd:	49                   	dec    %ecx
  108bbe:	4e                   	dec    %esi
  108bbf:	5f                   	pop    %edi
  108bc0:	4c                   	dec    %esp
  108bc1:	4f                   	dec    %edi
  108bc2:	47                   	inc    %edi
  108bc3:	29 29                	sub    %ebp,(%ecx)
  108bc5:	20 2d 20 31 29 29    	and    %ch,0x29293120
  108bcb:	20 3d 3d 20 30 00    	and    %bh,0x30203d
  108bd1:	00 00                	add    %al,(%eax)
  108bd3:	00 28                	add    %ch,(%eax)
  108bd5:	75 69                	jne    108c40 <__debug_baud_rate+0xb6c>
  108bd7:	6e                   	outsb  %ds:(%esi),(%dx)
  108bd8:	74 70                	je     108c4a <__debug_baud_rate+0xb76>
  108bda:	74 72                	je     108c4e <__debug_baud_rate+0xb7a>
  108bdc:	5f                   	pop    %edi
  108bdd:	74 29                	je     108c08 <__debug_baud_rate+0xb34>
  108bdf:	70 74                	jo     108c55 <__debug_baud_rate+0xb81>
  108be1:	72 20                	jb     108c03 <__debug_baud_rate+0xb2f>
  108be3:	3c 20                	cmp    $0x20,%al
  108be5:	28 75 69             	sub    %dh,0x69(%ebp)
  108be8:	6e                   	outsb  %ds:(%esi),(%dx)
  108be9:	74 70                	je     108c5b <__debug_baud_rate+0xb87>
  108beb:	74 72                	je     108c5f <__debug_baud_rate+0xb8b>
  108bed:	5f                   	pop    %edi
  108bee:	74 29                	je     108c19 <__debug_baud_rate+0xb45>
  108bf0:	68 65 61 64 65       	push   $0x65646165
  108bf5:	72 20                	jb     108c17 <__debug_baud_rate+0xb43>
  108bf7:	2b 20                	sub    (%eax),%esp
  108bf9:	50                   	push   %eax
  108bfa:	41                   	inc    %ecx
  108bfb:	47                   	inc    %edi
  108bfc:	45                   	inc    %ebp
  108bfd:	5f                   	pop    %edi
  108bfe:	53                   	push   %ebx
  108bff:	49                   	dec    %ecx
  108c00:	5a                   	pop    %edx
  108c01:	45                   	inc    %ebp
  108c02:	00 00                	add    %al,(%eax)
  108c04:	28 75 69             	sub    %dh,0x69(%ebp)
  108c07:	6e                   	outsb  %ds:(%esi),(%dx)
  108c08:	74 70                	je     108c7a <__debug_baud_rate+0xba6>
  108c0a:	74 72                	je     108c7e <__debug_baud_rate+0xbaa>
  108c0c:	5f                   	pop    %edi
  108c0d:	74 29                	je     108c38 <__debug_baud_rate+0xb64>
  108c0f:	62 69 6e             	bound  %ebp,0x6e(%ecx)
  108c12:	5f                   	pop    %edi
  108c13:	68 65 61 64 65       	push   $0x65646165
  108c18:	72 20                	jb     108c3a <__debug_baud_rate+0xb66>
  108c1a:	25 20 50 41 47       	and    $0x47415020,%eax
  108c1f:	45                   	inc    %ebp
  108c20:	5f                   	pop    %edi
  108c21:	53                   	push   %ebx
  108c22:	49                   	dec    %ecx
  108c23:	5a                   	pop    %edx
  108c24:	45                   	inc    %ebp
  108c25:	20 3d 3d 20 30 00    	and    %bh,0x30203d
  108c2b:	00 62 69             	add    %ah,0x69(%edx)
  108c2e:	6e                   	outsb  %ds:(%esi),(%dx)
  108c2f:	5f                   	pop    %edi
  108c30:	68 65 61 64 65       	push   $0x65646165
  108c35:	72 2d                	jb     108c64 <__debug_baud_rate+0xb90>
  108c37:	3e 62 69 6e          	bound  %ebp,%ds:0x6e(%ecx)
  108c3b:	5f                   	pop    %edi
  108c3c:	6d                   	insl   (%dx),%es:(%edi)
  108c3d:	61                   	popa   
  108c3e:	67 69 63 20 3d 3d 20 	imul   $0x42203d3d,0x20(%bp,%di),%esp
  108c45:	42 
  108c46:	49                   	dec    %ecx
  108c47:	4e                   	dec    %esi
  108c48:	5f                   	pop    %edi
  108c49:	4d                   	dec    %ebp
  108c4a:	41                   	inc    %ecx
  108c4b:	47                   	inc    %edi
  108c4c:	49                   	dec    %ecx
  108c4d:	43                   	inc    %ebx
  108c4e:	00 62 69             	add    %ah,0x69(%edx)
  108c51:	6e                   	outsb  %ds:(%esi),(%dx)
  108c52:	5f                   	pop    %edi
  108c53:	68 65 61 64 65       	push   $0x65646165
  108c58:	72 2d                	jb     108c87 <__debug_baud_rate+0xbb3>
  108c5a:	3e 73 69             	jae,pt 108cc6 <__debug_baud_rate+0xbf2>
  108c5d:	7a 65                	jp     108cc4 <__debug_baud_rate+0xbf0>
  108c5f:	20 3e                	and    %bh,(%esi)
  108c61:	3d 20 73 69 7a       	cmp    $0x7a697320,%eax
  108c66:	65 00 28             	add    %ch,%gs:(%eax)
  108c69:	62 69 6e             	bound  %ebp,0x6e(%ecx)
  108c6c:	5f                   	pop    %edi
  108c6d:	68 65 61 64 65       	push   $0x65646165
  108c72:	72 2d                	jb     108ca1 <__debug_baud_rate+0xbcd>
  108c74:	3e 73 69             	jae,pt 108ce0 <__debug_baud_rate+0xc0c>
  108c77:	7a 65                	jp     108cde <__debug_baud_rate+0xc0a>
  108c79:	20 2b                	and    %ch,(%ebx)
  108c7b:	20 73 69             	and    %dh,0x69(%ebx)
  108c7e:	7a 65                	jp     108ce5 <__debug_baud_rate+0xc11>
  108c80:	6f                   	outsl  %ds:(%esi),(%dx)
  108c81:	66 28 6b 6c          	data16 sub %ch,0x6c(%ebx)
  108c85:	6d                   	insl   (%dx),%es:(%edi)
  108c86:	61                   	popa   
  108c87:	6c                   	insb   (%dx),%es:(%edi)
  108c88:	6c                   	insb   (%dx),%es:(%edi)
  108c89:	6f                   	outsl  %ds:(%esi),(%dx)
  108c8a:	63 5f 62             	arpl   %bx,0x62(%edi)
  108c8d:	69 67 5f 62 69 6e 5f 	imul   $0x5f6e6962,0x5f(%edi),%esp
  108c94:	68 65 61 64 65       	push   $0x65646165
  108c99:	72 29                	jb     108cc4 <__debug_baud_rate+0xbf0>
  108c9b:	29 20                	sub    %esp,(%eax)
  108c9d:	25 20 50 41 47       	and    $0x47415020,%eax
  108ca2:	45                   	inc    %ebp
  108ca3:	5f                   	pop    %edi
  108ca4:	53                   	push   %ebx
  108ca5:	49                   	dec    %ecx
  108ca6:	5a                   	pop    %edx
  108ca7:	45                   	inc    %ebp
  108ca8:	20 3d 3d 20 30 00    	and    %bh,0x30203d
  108cae:	00 00                	add    %al,(%eax)
  108cb0:	28 75 69             	sub    %dh,0x69(%ebp)
  108cb3:	6e                   	outsb  %ds:(%esi),(%dx)
  108cb4:	74 70                	je     108d26 <__debug_baud_rate+0xc52>
  108cb6:	74 72                	je     108d2a <__debug_baud_rate+0xc56>
  108cb8:	5f                   	pop    %edi
  108cb9:	74 29                	je     108ce4 <__debug_baud_rate+0xc10>
  108cbb:	68 65 61 64 65       	push   $0x65646165
  108cc0:	72 20                	jb     108ce2 <__debug_baud_rate+0xc0e>
  108cc2:	25 20 50 41 47       	and    $0x47415020,%eax
  108cc7:	45                   	inc    %ebp
  108cc8:	5f                   	pop    %edi
  108cc9:	53                   	push   %ebx
  108cca:	49                   	dec    %ecx
  108ccb:	5a                   	pop    %edx
  108ccc:	45                   	inc    %ebp
  108ccd:	20 3d 3d 20 30 00    	and    %bh,0x30203d
  108cd3:	62 68 65             	bound  %ebp,0x65(%eax)
  108cd6:	61                   	popa   
  108cd7:	64 65 72 00          	fs gs jb 108cdb <__debug_baud_rate+0xc07>
  108cdb:	62 68 65             	bound  %ebp,0x65(%eax)
  108cde:	61                   	popa   
  108cdf:	64 65 72 2d          	fs gs jb 108d10 <__debug_baud_rate+0xc3c>
  108ce3:	3e 68 65 61 64 20    	ds push $0x20646165
  108ce9:	3d 3d 20 4e 55       	cmp    $0x554e203d,%eax
  108cee:	4c                   	dec    %esp
  108cef:	4c                   	dec    %esp
  108cf0:	00 00                	add    %al,(%eax)
  108cf2:	00 00                	add    %al,(%eax)
  108cf4:	28 62 68             	sub    %ah,0x68(%edx)
  108cf7:	65 61                	gs popa 
  108cf9:	64 65 72 2d          	fs gs jb 108d2a <__debug_baud_rate+0xc56>
  108cfd:	3e 73 69             	jae,pt 108d69 <__debug_baud_rate+0xc95>
  108d00:	7a 65                	jp     108d67 <__debug_baud_rate+0xc93>
  108d02:	20 2b                	and    %ch,(%ebx)
  108d04:	20 73 69             	and    %dh,0x69(%ebx)
  108d07:	7a 65                	jp     108d6e <__debug_baud_rate+0xc9a>
  108d09:	6f                   	outsl  %ds:(%esi),(%dx)
  108d0a:	66 28 6b 6c          	data16 sub %ch,0x6c(%ebx)
  108d0e:	6d                   	insl   (%dx),%es:(%edi)
  108d0f:	61                   	popa   
  108d10:	6c                   	insb   (%dx),%es:(%edi)
  108d11:	6c                   	insb   (%dx),%es:(%edi)
  108d12:	6f                   	outsl  %ds:(%esi),(%dx)
  108d13:	63 5f 62             	arpl   %bx,0x62(%edi)
  108d16:	69 67 5f 62 69 6e 5f 	imul   $0x5f6e6962,0x5f(%edi),%esp
  108d1d:	68 65 61 64 65       	push   $0x65646165
  108d22:	72 29                	jb     108d4d <__debug_baud_rate+0xc79>
  108d24:	29 20                	sub    %esp,(%eax)
  108d26:	25 20 50 41 47       	and    $0x47415020,%eax
  108d2b:	45                   	inc    %ebp
  108d2c:	5f                   	pop    %edi
  108d2d:	53                   	push   %ebx
  108d2e:	49                   	dec    %ecx
  108d2f:	5a                   	pop    %edx
  108d30:	45                   	inc    %ebp
  108d31:	20 3d 3d 20 30 00    	and    %bh,0x30203d
  108d37:	62 68 65             	bound  %ebp,0x65(%eax)
  108d3a:	61                   	popa   
  108d3b:	64 65 72 2d          	fs gs jb 108d6c <__debug_baud_rate+0xc98>
  108d3f:	3e 68 65 61 64 20    	ds push $0x20646165
  108d45:	21 3d 20 4e 55 4c    	and    %edi,0x4c554e20
  108d4b:	4c                   	dec    %esp
  108d4c:	00 00                	add    %al,(%eax)
  108d4e:	00 00                	add    %al,(%eax)
  108d50:	28 75 69             	sub    %dh,0x69(%ebp)
  108d53:	6e                   	outsb  %ds:(%esi),(%dx)
  108d54:	74 70                	je     108dc6 <__debug_baud_rate+0xcf2>
  108d56:	74 72                	je     108dca <__debug_baud_rate+0xcf6>
  108d58:	5f                   	pop    %edi
  108d59:	74 29                	je     108d84 <__debug_baud_rate+0xcb0>
  108d5b:	6f                   	outsl  %ds:(%esi),(%dx)
  108d5c:	75 74                	jne    108dd2 <__debug_baud_rate+0xcfe>
  108d5e:	20 25 20 50 41 47    	and    %ah,0x47415020
  108d64:	45                   	inc    %ebp
  108d65:	5f                   	pop    %edi
  108d66:	53                   	push   %ebx
  108d67:	49                   	dec    %ecx
  108d68:	5a                   	pop    %edx
  108d69:	45                   	inc    %ebp
  108d6a:	20 3d 3d 20 30 00    	and    %bh,0x30203d
  108d70:	30 20                	xor    %ah,(%eax)
  108d72:	26 26 20 22          	es and %ah,%es:(%edx)
  108d76:	42                   	inc    %edx
  108d77:	61                   	popa   
  108d78:	64 20 6d 61          	and    %ch,%fs:0x61(%ebp)
  108d7c:	67 69 63 20 6f 6e 20 	imul   $0x72206e6f,0x20(%bp,%di),%esp
  108d83:	72 
  108d84:	65 61                	gs popa 
  108d86:	6c                   	insb   (%dx),%es:(%edi)
  108d87:	6c                   	insb   (%dx),%es:(%edi)
  108d88:	6f                   	outsl  %ds:(%esi),(%dx)
  108d89:	63 2e                	arpl   %bp,(%esi)
  108d8b:	22 00                	and    (%eax),%al
  108d8d:	00 00                	add    %al,(%eax)
  108d8f:	00 54 68 65          	add    %dl,0x65(%eax,%ebp,2)
  108d93:	20 6b 65             	and    %ch,0x65(%ebx)
  108d96:	72 6e                	jb     108e06 <__debug_baud_rate+0xd32>
  108d98:	65 6c                	gs insb (%dx),%es:(%edi)
  108d9a:	20 72 65             	and    %dh,0x65(%edx)
  108d9d:	71 75                	jno    108e14 <__debug_baud_rate+0xd40>
  108d9f:	69 72 65 73 20 61 20 	imul   $0x20612073,0x65(%edx),%esi
  108da6:	6d                   	insl   (%dx),%es:(%edi)
  108da7:	65 6d                	gs insl (%dx),%es:(%edi)
  108da9:	6f                   	outsl  %ds:(%esi),(%dx)
  108daa:	72 79                	jb     108e25 <__debug_baud_rate+0xd51>
  108dac:	20 6d 61             	and    %ch,0x61(%ebp)
  108daf:	70 20                	jo     108dd1 <__debug_baud_rate+0xcfd>
  108db1:	74 6f                	je     108e22 <__debug_baud_rate+0xd4e>
  108db3:	20 73 74             	and    %dh,0x74(%ebx)
  108db6:	61                   	popa   
  108db7:	72 74                	jb     108e2d <__debug_baud_rate+0xd59>
  108db9:	75 70                	jne    108e2b <__debug_baud_rate+0xd57>
  108dbb:	20 70 72             	and    %dh,0x72(%eax)
  108dbe:	6f                   	outsl  %ds:(%esi),(%dx)
  108dbf:	70 65                	jo     108e26 <__debug_baud_rate+0xd52>
  108dc1:	72 6c                	jb     108e2f <__debug_baud_rate+0xd5b>
  108dc3:	79 2e                	jns    108df3 <__debug_baud_rate+0xd1f>
  108dc5:	20 41 20             	and    %al,0x20(%ecx)
  108dc8:	6d                   	insl   (%dx),%es:(%edi)
  108dc9:	65 6d                	gs insl (%dx),%es:(%edi)
  108dcb:	6f                   	outsl  %ds:(%esi),(%dx)
  108dcc:	72 79                	jb     108e47 <__debug_baud_rate+0xd73>
  108dce:	20 6d 61             	and    %ch,0x61(%ebp)
  108dd1:	70 20                	jo     108df3 <__debug_baud_rate+0xd1f>
  108dd3:	77 61                	ja     108e36 <__debug_baud_rate+0xd62>
  108dd5:	73 20                	jae    108df7 <__debug_baud_rate+0xd23>
  108dd7:	6e                   	outsb  %ds:(%esi),(%dx)
  108dd8:	6f                   	outsl  %ds:(%esi),(%dx)
  108dd9:	74 20                	je     108dfb <__debug_baud_rate+0xd27>
  108ddb:	66 6f                	outsw  %ds:(%esi),(%dx)
  108ddd:	75 6e                	jne    108e4d <__debug_baud_rate+0xd79>
  108ddf:	64 20 69 6e          	and    %ch,%fs:0x6e(%ecx)
  108de3:	20 74 68 65          	and    %dh,0x65(%eax,%ebp,2)
  108de7:	20 4d 75             	and    %cl,0x75(%ebp)
  108dea:	6c                   	insb   (%dx),%es:(%edi)
  108deb:	74 69                	je     108e56 <__debug_baud_rate+0xd82>
  108ded:	62 6f 6f             	bound  %ebp,0x6f(%edi)
  108df0:	74 20                	je     108e12 <__debug_baud_rate+0xd3e>
  108df2:	73 74                	jae    108e68 <__debug_baud_rate+0xd94>
  108df4:	72 75                	jb     108e6b <__debug_baud_rate+0xd97>
  108df6:	63 74 75 72          	arpl   %si,0x72(%ebp,%esi,2)
  108dfa:	65 2e 0a 00          	gs or  %cs:(%eax),%al
  108dfe:	61                   	popa   
  108dff:	72 63                	jb     108e64 <__debug_baud_rate+0xd90>
  108e01:	68 00 00 42 61       	push   $0x61420000
  108e06:	64 20 6d 65          	and    %ch,%fs:0x65(%ebp)
  108e0a:	6d                   	insl   (%dx),%es:(%edi)
  108e0b:	6f                   	outsl  %ds:(%esi),(%dx)
  108e0c:	72 79                	jb     108e87 <__debug_baud_rate+0xdb3>
  108e0e:	20 64 65 73          	and    %ah,0x73(%ebp,%eiz,2)
  108e12:	63 72 69             	arpl   %si,0x69(%edx)
  108e15:	70 74                	jo     108e8b <__debug_baud_rate+0xdb7>
  108e17:	6f                   	outsl  %ds:(%esi),(%dx)
  108e18:	72 20                	jb     108e3a <__debug_baud_rate+0xd66>
  108e1a:	65 6e                	outsb  %gs:(%esi),(%dx)
  108e1c:	63 6f 75             	arpl   %bp,0x75(%edi)
  108e1f:	6e                   	outsb  %ds:(%esi),(%dx)
  108e20:	74 65                	je     108e87 <__debug_baud_rate+0xdb3>
  108e22:	72 65                	jb     108e89 <__debug_baud_rate+0xdb5>
  108e24:	64 20 2d 20 25 30 31 	and    %ch,%fs:0x31302520
  108e2b:	36 6c                	ss insb (%dx),%es:(%edi)
  108e2d:	6c                   	insb   (%dx),%es:(%edi)
  108e2e:	58                   	pop    %eax
  108e2f:	20 6c 65 6e          	and    %ch,0x6e(%ebp,%eiz,2)
  108e33:	67 74 68             	addr16 je 108e9e <__debug_baud_rate+0xdca>
  108e36:	20 25 30 31 36 6c    	and    %ah,0x6c363130
  108e3c:	6c                   	insb   (%dx),%es:(%edi)
  108e3d:	58                   	pop    %eax
  108e3e:	20 28                	and    %ch,(%eax)
  108e40:	33 32                	xor    (%edx),%esi
  108e42:	2d 62 69 74 20       	sub    $0x20746962,%eax
  108e47:	2d 20 36 34 2d       	sub    $0x2d343620,%eax
  108e4c:	62 69 74             	bound  %ebp,0x74(%ecx)
  108e4f:	20 6f 76             	and    %ch,0x76(%edi)
  108e52:	65 72 66             	gs jb  108ebb <__debug_baud_rate+0xde7>
  108e55:	6c                   	insb   (%dx),%es:(%edi)
  108e56:	6f                   	outsl  %ds:(%esi),(%dx)
  108e57:	77 29                	ja     108e82 <__debug_baud_rate+0xdae>
  108e59:	0a 00                	or     (%eax),%al
  108e5b:	61                   	popa   
  108e5c:	72 63                	jb     108ec1 <__debug_baud_rate+0xded>
  108e5e:	68 2f 69 33 38       	push   $0x3833692f
  108e63:	36 2f                	ss das 
  108e65:	6d                   	insl   (%dx),%es:(%edi)
  108e66:	75 6c                	jne    108ed4 <__debug_baud_rate+0xe00>
  108e68:	74 69                	je     108ed3 <__debug_baud_rate+0xdff>
  108e6a:	62 6f 6f             	bound  %ebp,0x6f(%edi)
  108e6d:	74 2e                	je     108e9d <__debug_baud_rate+0xdc9>
  108e6f:	63 00                	arpl   %ax,(%eax)
  108e71:	00 00                	add    %al,(%eax)
  108e73:	00 4d 61             	add    %cl,0x61(%ebp)
  108e76:	72 6b                	jb     108ee3 <__debug_baud_rate+0xe0f>
  108e78:	65 64 20 6d 65       	gs and %ch,%fs:0x65(%ebp)
  108e7d:	6d                   	insl   (%dx),%es:(%edi)
  108e7e:	6f                   	outsl  %ds:(%esi),(%dx)
  108e7f:	72 79                	jb     108efa <__debug_baud_rate+0xe26>
  108e81:	20 64 65 73          	and    %ah,0x73(%ebp,%eiz,2)
  108e85:	63 72 69             	arpl   %si,0x69(%edx)
  108e88:	70 74                	jo     108efe <__debug_baud_rate+0xe2a>
  108e8a:	6f                   	outsl  %ds:(%esi),(%dx)
  108e8b:	72 20                	jb     108ead <__debug_baud_rate+0xdd9>
  108e8d:	25 30 31 36 6c       	and    $0x6c363130,%eax
  108e92:	6c                   	insb   (%dx),%es:(%edi)
  108e93:	58                   	pop    %eax
  108e94:	20 2d 20 25 30 31    	and    %ch,0x31302520
  108e9a:	36 6c                	ss insb (%dx),%es:(%edi)
  108e9c:	6c                   	insb   (%dx),%es:(%edi)
  108e9d:	58                   	pop    %eax
  108e9e:	20 28                	and    %ch,(%eax)
  108ea0:	25 69 20 4b 42       	and    $0x424b2069,%eax
  108ea5:	29 20                	sub    %esp,(%eax)
  108ea7:	61                   	popa   
  108ea8:	73 20                	jae    108eca <__debug_baud_rate+0xdf6>
  108eaa:	61                   	popa   
  108eab:	76 61                	jbe    108f0e <__debug_baud_rate+0xe3a>
  108ead:	69 6c 61 62 6c 65 20 	imul   $0x6d20656c,0x62(%ecx,%eiz,2),%ebp
  108eb4:	6d 
  108eb5:	65 6d                	gs insl (%dx),%es:(%edi)
  108eb7:	6f                   	outsl  %ds:(%esi),(%dx)
  108eb8:	72 79                	jb     108f33 <__debug_baud_rate+0xe5f>
  108eba:	0a 00                	or     (%eax),%al
  108ebc:	4d                   	dec    %ebp
  108ebd:	61                   	popa   
  108ebe:	72 6b                	jb     108f2b <__debug_baud_rate+0xe57>
  108ec0:	65 64 20 6d 65       	gs and %ch,%fs:0x65(%ebp)
  108ec5:	6d                   	insl   (%dx),%es:(%edi)
  108ec6:	6f                   	outsl  %ds:(%esi),(%dx)
  108ec7:	72 79                	jb     108f42 <__debug_baud_rate+0xe6e>
  108ec9:	20 64 65 73          	and    %ah,0x73(%ebp,%eiz,2)
  108ecd:	63 72 69             	arpl   %si,0x69(%edx)
  108ed0:	70 74                	jo     108f46 <__debug_baud_rate+0xe72>
  108ed2:	6f                   	outsl  %ds:(%esi),(%dx)
  108ed3:	72 20                	jb     108ef5 <__debug_baud_rate+0xe21>
  108ed5:	30 78 30             	xor    %bh,0x30(%eax)
  108ed8:	30 30                	xor    %dh,(%eax)
  108eda:	30 30                	xor    %dh,(%eax)
  108edc:	20 2d 20 30 78 46    	and    %ch,0x46783020
  108ee2:	46                   	inc    %esi
  108ee3:	30 30                	xor    %dh,(%eax)
  108ee5:	30 20                	xor    %ah,(%eax)
  108ee7:	61                   	popa   
  108ee8:	73 20                	jae    108f0a <__debug_baud_rate+0xe36>
  108eea:	44                   	inc    %esp
  108eeb:	4d                   	dec    %ebp
  108eec:	41                   	inc    %ecx
  108eed:	20 6d 65             	and    %ch,0x65(%ebp)
  108ef0:	6d                   	insl   (%dx),%es:(%edi)
  108ef1:	6f                   	outsl  %ds:(%esi),(%dx)
  108ef2:	72 79                	jb     108f6d <__debug_baud_rate+0xe99>
  108ef4:	20 28                	and    %ch,(%eax)
  108ef6:	51                   	push   %ecx
  108ef7:	45                   	inc    %ebp
  108ef8:	4d                   	dec    %ebp
  108ef9:	55                   	push   %ebp
  108efa:	20 62 75             	and    %ah,0x75(%edx)
  108efd:	67 29 0a             	sub    %ecx,(%bp,%si)
  108f00:	00 00                	add    %al,(%eax)
  108f02:	00 00                	add    %al,(%eax)
  108f04:	4d                   	dec    %ebp
  108f05:	61                   	popa   
  108f06:	72 6b                	jb     108f73 <__debug_baud_rate+0xe9f>
  108f08:	65 64 20 6d 65       	gs and %ch,%fs:0x65(%ebp)
  108f0d:	6d                   	insl   (%dx),%es:(%edi)
  108f0e:	6f                   	outsl  %ds:(%esi),(%dx)
  108f0f:	72 79                	jb     108f8a <__debug_baud_rate+0xeb6>
  108f11:	20 64 65 73          	and    %ah,0x73(%ebp,%eiz,2)
  108f15:	63 72 69             	arpl   %si,0x69(%edx)
  108f18:	70 74                	jo     108f8e <__debug_baud_rate+0xeba>
  108f1a:	6f                   	outsl  %ds:(%esi),(%dx)
  108f1b:	72 20                	jb     108f3d <__debug_baud_rate+0xe69>
  108f1d:	25 30 31 36 58       	and    $0x58363130,%eax
  108f22:	20 2d 20 25 30 31    	and    %ch,0x31302520
  108f28:	36 58                	ss pop %eax
  108f2a:	20 28                	and    %ch,(%eax)
  108f2c:	25 69 20 4b 42       	and    $0x424b2069,%eax
  108f31:	29 20                	sub    %esp,(%eax)
  108f33:	61                   	popa   
  108f34:	73 20                	jae    108f56 <__debug_baud_rate+0xe82>
  108f36:	6b 65 72 6e          	imul   $0x6e,0x72(%ebp),%esp
  108f3a:	65 6c                	gs insb (%dx),%es:(%edi)
  108f3c:	20 6d 65             	and    %ch,0x65(%ebp)
  108f3f:	6d                   	insl   (%dx),%es:(%edi)
  108f40:	6f                   	outsl  %ds:(%esi),(%dx)
  108f41:	72 79                	jb     108fbc <__debug_baud_rate+0xee8>
  108f43:	0a 00                	or     (%eax),%al
  108f45:	00 00                	add    %al,(%eax)
  108f47:	00 4d 61             	add    %cl,0x61(%ebp)
  108f4a:	72 6b                	jb     108fb7 <__debug_baud_rate+0xee3>
  108f4c:	65 64 20 76 61       	gs and %dh,%fs:0x61(%esi)
  108f51:	6c                   	insb   (%dx),%es:(%edi)
  108f52:	69 64 20 6d 65 6d 6f 	imul   $0x726f6d65,0x6d(%eax,%eiz,1),%esp
  108f59:	72 
  108f5a:	79 20                	jns    108f7c <__debug_baud_rate+0xea8>
  108f5c:	2d 20 50 4d 4d       	sub    $0x4d4d5020,%eax
  108f61:	20 68 61             	and    %ch,0x61(%eax)
  108f64:	73 20                	jae    108f86 <__debug_baud_rate+0xeb2>
  108f66:	25 69 20 66 72       	and    $0x72662069,%eax
  108f6b:	65 65 20 62 6c       	gs and %ah,%gs:0x6c(%edx)
  108f70:	6f                   	outsl  %ds:(%esi),(%dx)
  108f71:	63 6b 73             	arpl   %bp,0x73(%ebx)
  108f74:	20 2f                	and    %ch,(%edi)
  108f76:	20 25 69 20 6d 61    	and    %ah,0x616d2069
  108f7c:	78 20                	js     108f9e <__debug_baud_rate+0xeca>
  108f7e:	62 6c 6f 63          	bound  %ebp,0x63(%edi,%ebp,2)
  108f82:	6b 73 0a 00          	imul   $0x0,0xa(%ebx),%esi
  108f86:	00 00                	add    %al,(%eax)
  108f88:	64 69 76 69 73 69 6f 	imul   $0x6e6f6973,%fs:0x69(%esi),%esi
  108f8f:	6e 
  108f90:	20 65 72             	and    %ah,0x72(%ebp)
  108f93:	72 6f                	jb     109004 <__debug_baud_rate+0xf30>
  108f95:	72 00                	jb     108f97 <__debug_baud_rate+0xec3>
  108f97:	64 65 62 75 67       	fs bound %esi,%gs:0x67(%ebp)
  108f9c:	20 74 72 61          	and    %dh,0x61(%edx,%esi,2)
  108fa0:	70 00                	jo     108fa2 <__debug_baud_rate+0xece>
  108fa2:	4e                   	dec    %esi
  108fa3:	4d                   	dec    %ebp
  108fa4:	49                   	dec    %ecx
  108fa5:	20 65 78             	and    %ah,0x78(%ebp)
  108fa8:	63 65 70             	arpl   %sp,0x70(%ebp)
  108fab:	74 69                	je     109016 <__debug_baud_rate+0xf42>
  108fad:	6f                   	outsl  %ds:(%esi),(%dx)
  108fae:	6e                   	outsb  %ds:(%esi),(%dx)
  108faf:	00 62 72             	add    %ah,0x72(%edx)
  108fb2:	65 61                	gs popa 
  108fb4:	6b 70 6f 69          	imul   $0x69,0x6f(%eax),%esi
  108fb8:	6e                   	outsb  %ds:(%esi),(%dx)
  108fb9:	74 20                	je     108fdb <__debug_baud_rate+0xf07>
  108fbb:	74 72                	je     10902f <__debug_baud_rate+0xf5b>
  108fbd:	61                   	popa   
  108fbe:	70 00                	jo     108fc0 <__debug_baud_rate+0xeec>
  108fc0:	6f                   	outsl  %ds:(%esi),(%dx)
  108fc1:	76 65                	jbe    109028 <__debug_baud_rate+0xf54>
  108fc3:	72 66                	jb     10902b <__debug_baud_rate+0xf57>
  108fc5:	6c                   	insb   (%dx),%es:(%edi)
  108fc6:	6f                   	outsl  %ds:(%esi),(%dx)
  108fc7:	77 20                	ja     108fe9 <__debug_baud_rate+0xf15>
  108fc9:	74 72                	je     10903d <__debug_baud_rate+0xf69>
  108fcb:	61                   	popa   
  108fcc:	70 00                	jo     108fce <__debug_baud_rate+0xefa>
  108fce:	62 6f 75             	bound  %ebp,0x75(%edi)
  108fd1:	6e                   	outsb  %ds:(%esi),(%dx)
  108fd2:	64 20 72 61          	and    %dh,%fs:0x61(%edx)
  108fd6:	6e                   	outsb  %ds:(%esi),(%dx)
  108fd7:	67 65 20 65 78       	and    %ah,%gs:0x78(%di)
  108fdc:	63 65 65             	arpl   %sp,0x65(%ebp)
  108fdf:	64 65 64 00 69 6e    	fs gs add %ch,%fs:0x6e(%ecx)
  108fe5:	76 61                	jbe    109048 <__debug_baud_rate+0xf74>
  108fe7:	6c                   	insb   (%dx),%es:(%edi)
  108fe8:	69 64 20 6f 70 63 6f 	imul   $0x646f6370,0x6f(%eax,%eiz,1),%esp
  108fef:	64 
  108ff0:	65 00 64 65 76       	add    %ah,%gs:0x76(%ebp,%eiz,2)
  108ff5:	69 63 65 20 6e 6f 74 	imul   $0x746f6e20,0x65(%ebx),%esp
  108ffc:	20 61 76             	and    %ah,0x76(%ecx)
  108fff:	61                   	popa   
  109000:	69 6c 61 62 6c 65 00 	imul   $0x6400656c,0x62(%ecx,%eiz,2),%ebp
  109007:	64 
  109008:	6f                   	outsl  %ds:(%esi),(%dx)
  109009:	75 62                	jne    10906d <__debug_baud_rate+0xf99>
  10900b:	6c                   	insb   (%dx),%es:(%edi)
  10900c:	65 20 66 61          	and    %ah,%gs:0x61(%esi)
  109010:	75 6c                	jne    10907e <__debug_baud_rate+0xfaa>
  109012:	74 00                	je     109014 <__debug_baud_rate+0xf40>
  109014:	63 6f 70             	arpl   %bp,0x70(%edi)
  109017:	72 6f                	jb     109088 <__debug_baud_rate+0xfb4>
  109019:	63 65 73             	arpl   %sp,0x73(%ebp)
  10901c:	73 6f                	jae    10908d <__debug_baud_rate+0xfb9>
  10901e:	72 20                	jb     109040 <__debug_baud_rate+0xf6c>
  109020:	73 65                	jae    109087 <__debug_baud_rate+0xfb3>
  109022:	67 6d                	insl   (%dx),%es:(%di)
  109024:	65 6e                	outsb  %gs:(%esi),(%dx)
  109026:	74 20                	je     109048 <__debug_baud_rate+0xf74>
  109028:	6f                   	outsl  %ds:(%esi),(%dx)
  109029:	76 65                	jbe    109090 <__debug_baud_rate+0xfbc>
  10902b:	72 72                	jb     10909f <__debug_baud_rate+0xfcb>
  10902d:	75 6e                	jne    10909d <__debug_baud_rate+0xfc9>
  10902f:	00 69 6e             	add    %ch,0x6e(%ecx)
  109032:	76 61                	jbe    109095 <__debug_baud_rate+0xfc1>
  109034:	6c                   	insb   (%dx),%es:(%edi)
  109035:	69 64 20 54 53 53 00 	imul   $0x73005353,0x54(%eax,%eiz,1),%esp
  10903c:	73 
  10903d:	65 67 6d             	gs insl (%dx),%es:(%di)
  109040:	65 6e                	outsb  %gs:(%esi),(%dx)
  109042:	74 20                	je     109064 <__debug_baud_rate+0xf90>
  109044:	6e                   	outsb  %ds:(%esi),(%dx)
  109045:	6f                   	outsl  %ds:(%esi),(%dx)
  109046:	74 20                	je     109068 <__debug_baud_rate+0xf94>
  109048:	70 72                	jo     1090bc <__debug_baud_rate+0xfe8>
  10904a:	65 73 65             	gs jae 1090b2 <__debug_baud_rate+0xfde>
  10904d:	6e                   	outsb  %ds:(%esi),(%dx)
  10904e:	74 00                	je     109050 <__debug_baud_rate+0xf7c>
  109050:	73 74                	jae    1090c6 <__debug_baud_rate+0xff2>
  109052:	61                   	popa   
  109053:	63 6b 2d             	arpl   %bp,0x2d(%ebx)
  109056:	73 65                	jae    1090bd <__debug_baud_rate+0xfe9>
  109058:	67 6d                	insl   (%dx),%es:(%di)
  10905a:	65 6e                	outsb  %gs:(%esi),(%dx)
  10905c:	74 20                	je     10907e <__debug_baud_rate+0xfaa>
  10905e:	66 61                	popaw  
  109060:	75 6c                	jne    1090ce <__debug_baud_rate+0xffa>
  109062:	74 00                	je     109064 <__debug_baud_rate+0xf90>
  109064:	67 65 6e             	outsb  %gs:(%si),(%dx)
  109067:	65 72 61             	gs jb  1090cb <__debug_baud_rate+0xff7>
  10906a:	6c                   	insb   (%dx),%es:(%edi)
  10906b:	20 70 72             	and    %dh,0x72(%eax)
  10906e:	6f                   	outsl  %ds:(%esi),(%dx)
  10906f:	74 65                	je     1090d6 <__debug_baud_rate+0x1002>
  109071:	63 74 69 6f          	arpl   %si,0x6f(%ecx,%ebp,2)
  109075:	6e                   	outsb  %ds:(%esi),(%dx)
  109076:	20 66 61             	and    %ah,0x61(%esi)
  109079:	75 6c                	jne    1090e7 <__debug_baud_rate+0x1013>
  10907b:	74 00                	je     10907d <__debug_baud_rate+0xfa9>
  10907d:	70 61                	jo     1090e0 <__debug_baud_rate+0x100c>
  10907f:	67 65 20 66 61       	and    %ah,%gs:0x61(%bp)
  109084:	75 6c                	jne    1090f2 <__debug_baud_rate+0x101e>
  109086:	74 00                	je     109088 <__debug_baud_rate+0xfb4>
  109088:	72 65                	jb     1090ef <__debug_baud_rate+0x101b>
  10908a:	73 65                	jae    1090f1 <__debug_baud_rate+0x101d>
  10908c:	72 76                	jb     109104 <__debug_baud_rate+0x1030>
  10908e:	65 64 00 46 50       	gs add %al,%fs:0x50(%esi)
  109093:	55                   	push   %ebp
  109094:	20 65 78             	and    %ah,0x78(%ebp)
  109097:	63 65 70             	arpl   %sp,0x70(%ebp)
  10909a:	74 69                	je     109105 <__debug_baud_rate+0x1031>
  10909c:	6f                   	outsl  %ds:(%esi),(%dx)
  10909d:	6e                   	outsb  %ds:(%esi),(%dx)
  10909e:	00 61 6c             	add    %ah,0x6c(%ecx)
  1090a1:	69 67 6e 6d 65 6e 74 	imul   $0x746e656d,0x6e(%edi),%esp
  1090a8:	20 63 68             	and    %ah,0x68(%ebx)
  1090ab:	65 63 6b 00          	arpl   %bp,%gs:0x0(%ebx)
  1090af:	6d                   	insl   (%dx),%es:(%edi)
  1090b0:	61                   	popa   
  1090b1:	63 68 69             	arpl   %bp,0x69(%eax)
  1090b4:	6e                   	outsb  %ds:(%esi),(%dx)
  1090b5:	65 20 63 68          	and    %ah,%gs:0x68(%ebx)
  1090b9:	65 63 6b 00          	arpl   %bp,%gs:0x0(%ebx)
  1090bd:	53                   	push   %ebx
  1090be:	49                   	dec    %ecx
  1090bf:	4d                   	dec    %ebp
  1090c0:	44                   	inc    %esp
  1090c1:	20 66 6c             	and    %ah,0x6c(%esi)
  1090c4:	6f                   	outsl  %ds:(%esi),(%dx)
  1090c5:	61                   	popa   
  1090c6:	74 69                	je     109131 <__debug_baud_rate+0x105d>
  1090c8:	6e                   	outsb  %ds:(%esi),(%dx)
  1090c9:	67 2d 70 6f 69 6e    	addr16 sub $0x6e696f70,%eax
  1090cf:	74 20                	je     1090f1 <__debug_baud_rate+0x101d>
  1090d1:	65 78 63             	gs js  109137 <__debug_baud_rate+0x1063>
  1090d4:	65 70 74             	gs jo  10914b <__debug_baud_rate+0x1077>
  1090d7:	69 6f 6e 00 76 69 72 	imul   $0x72697600,0x6e(%edi),%ebp
  1090de:	74 75                	je     109155 <__debug_baud_rate+0x1081>
  1090e0:	61                   	popa   
  1090e1:	6c                   	insb   (%dx),%es:(%edi)
  1090e2:	69 7a 61 74 69 6f 6e 	imul   $0x6e6f6974,0x61(%edx),%edi
  1090e9:	20 65 78             	and    %ah,0x78(%ebp)
  1090ec:	63 65 70             	arpl   %sp,0x70(%ebp)
  1090ef:	74 69                	je     10915a <__debug_baud_rate+0x1086>
  1090f1:	6f                   	outsl  %ds:(%esi),(%dx)
  1090f2:	6e                   	outsb  %ds:(%esi),(%dx)
  1090f3:	00 63 6f             	add    %ah,0x6f(%ebx)
  1090f6:	6e                   	outsb  %ds:(%esi),(%dx)
  1090f7:	74 72                	je     10916b <__debug_baud_rate+0x1097>
  1090f9:	6f                   	outsl  %ds:(%esi),(%dx)
  1090fa:	6c                   	insb   (%dx),%es:(%edi)
  1090fb:	20 70 72             	and    %dh,0x72(%eax)
  1090fe:	6f                   	outsl  %ds:(%esi),(%dx)
  1090ff:	74 65                	je     109166 <__debug_baud_rate+0x1092>
  109101:	63 74 69 6f          	arpl   %si,0x6f(%ecx,%ebp,2)
  109105:	6e                   	outsb  %ds:(%esi),(%dx)
  109106:	20 65 78             	and    %ah,0x78(%ebp)
  109109:	63 65 70             	arpl   %sp,0x70(%ebp)
  10910c:	74 69                	je     109177 <__debug_baud_rate+0x10a3>
  10910e:	6f                   	outsl  %ds:(%esi),(%dx)
  10910f:	6e                   	outsb  %ds:(%esi),(%dx)
  109110:	00 00                	add    %al,(%eax)
  109112:	00 00                	add    %al,(%eax)
  109114:	68 79 70 65 72       	push   $0x72657079
  109119:	76 69                	jbe    109184 <__debug_baud_rate+0x10b0>
  10911b:	73 6f                	jae    10918c <__debug_baud_rate+0x10b8>
  10911d:	72 20                	jb     10913f <__debug_baud_rate+0x106b>
  10911f:	69 6e 6a 65 63 74 69 	imul   $0x69746365,0x6a(%esi),%ebp
  109126:	6f                   	outsl  %ds:(%esi),(%dx)
  109127:	6e                   	outsb  %ds:(%esi),(%dx)
  109128:	20 65 78             	and    %ah,0x78(%ebp)
  10912b:	63 65 70             	arpl   %sp,0x70(%ebp)
  10912e:	74 69                	je     109199 <__debug_baud_rate+0x10c5>
  109130:	6f                   	outsl  %ds:(%esi),(%dx)
  109131:	6e                   	outsb  %ds:(%esi),(%dx)
  109132:	00 56 4d             	add    %dl,0x4d(%esi)
  109135:	4d                   	dec    %ebp
  109136:	20 63 6f             	and    %ah,0x6f(%ebx)
  109139:	6d                   	insl   (%dx),%es:(%edi)
  10913a:	6d                   	insl   (%dx),%es:(%edi)
  10913b:	75 6e                	jne    1091ab <__debug_baud_rate+0x10d7>
  10913d:	69 63 61 74 69 6f 6e 	imul   $0x6e6f6974,0x61(%ebx),%esp
  109144:	20 65 78             	and    %ah,0x78(%ebp)
  109147:	63 65 70             	arpl   %sp,0x70(%ebp)
  10914a:	74 69                	je     1091b5 <__debug_baud_rate+0x10e1>
  10914c:	6f                   	outsl  %ds:(%esi),(%dx)
  10914d:	6e                   	outsb  %ds:(%esi),(%dx)
  10914e:	00 73 65             	add    %dh,0x65(%ebx)
  109151:	63 75 72             	arpl   %si,0x72(%ebp)
  109154:	69 74 79 20 65 78 63 	imul   $0x65637865,0x20(%ecx,%edi,2),%esi
  10915b:	65 
  10915c:	70 74                	jo     1091d2 <__debug_baud_rate+0x10fe>
  10915e:	69 6f 6e 00 00 00 2a 	imul   $0x2a000000,0x6e(%edi),%ebp
  109165:	2a 2a                	sub    (%edx),%ch
  109167:	20 49 53             	and    %cl,0x53(%ecx)
  10916a:	52                   	push   %edx
  10916b:	20 64 65 74          	and    %ah,0x74(%ebp,%eiz,2)
  10916f:	65 63 74 65 64       	arpl   %si,%gs:0x64(%ebp,%eiz,2)
  109174:	20 65 78             	and    %ah,0x78(%ebp)
  109177:	63 65 70             	arpl   %sp,0x70(%ebp)
  10917a:	74 69                	je     1091e5 <__debug_baud_rate+0x1111>
  10917c:	6f                   	outsl  %ds:(%esi),(%dx)
  10917d:	6e                   	outsb  %ds:(%esi),(%dx)
  10917e:	3a 20                	cmp    (%eax),%ah
  109180:	50                   	push   %eax
  109181:	61                   	popa   
  109182:	67 65 20 66 61       	and    %ah,%gs:0x61(%bp)
  109187:	75 6c                	jne    1091f5 <__debug_baud_rate+0x1121>
  109189:	74 20                	je     1091ab <__debug_baud_rate+0x10d7>
  10918b:	61                   	popa   
  10918c:	74 20                	je     1091ae <__debug_baud_rate+0x10da>
  10918e:	61                   	popa   
  10918f:	64 64 72 65          	fs fs jb 1091f8 <__debug_baud_rate+0x1124>
  109193:	73 73                	jae    109208 <__debug_baud_rate+0x1134>
  109195:	20 30                	and    %dh,(%eax)
  109197:	78 25                	js     1091be <__debug_baud_rate+0x10ea>
  109199:	78 0a                	js     1091a5 <__debug_baud_rate+0x10d1>
  10919b:	0a 00                	or     (%eax),%al
  10919d:	61                   	popa   
  10919e:	72 63                	jb     109203 <__debug_baud_rate+0x112f>
  1091a0:	68 2f 69 33 38       	push   $0x3833692f
  1091a5:	36 2f                	ss das 
  1091a7:	69 6e 74 65 72 72 75 	imul   $0x75727265,0x74(%esi),%ebp
  1091ae:	70 74                	jo     109224 <__debug_baud_rate+0x1150>
  1091b0:	2e 63 00             	arpl   %ax,%cs:(%eax)
  1091b3:	00 2a                	add    %ch,(%edx)
  1091b5:	2a 2a                	sub    (%edx),%ch
  1091b7:	20 49 53             	and    %cl,0x53(%ecx)
  1091ba:	52                   	push   %edx
  1091bb:	20 64 65 74          	and    %ah,0x74(%ebp,%eiz,2)
  1091bf:	65 63 74 65 64       	arpl   %si,%gs:0x64(%ebp,%eiz,2)
  1091c4:	20 65 78             	and    %ah,0x78(%ebp)
  1091c7:	63 65 70             	arpl   %sp,0x70(%ebp)
  1091ca:	74 69                	je     109235 <__debug_baud_rate+0x1161>
  1091cc:	6f                   	outsl  %ds:(%esi),(%dx)
  1091cd:	6e                   	outsb  %ds:(%esi),(%dx)
  1091ce:	20 25 69 20 2d 20    	and    %ah,0x202d2069
  1091d4:	25 73 0a 0a 00       	and    $0xa0a73,%eax
  1091d9:	00 00                	add    %al,(%eax)
  1091db:	00 2a                	add    %ch,(%edx)
  1091dd:	2a 2a                	sub    (%edx),%ch
  1091df:	20 49 53             	and    %cl,0x53(%ecx)
  1091e2:	52                   	push   %edx
  1091e3:	20 64 65 74          	and    %ah,0x74(%ebp,%eiz,2)
  1091e7:	65 63 74 65 64       	arpl   %si,%gs:0x64(%ebp,%eiz,2)
  1091ec:	20 65 78             	and    %ah,0x78(%ebp)
  1091ef:	63 65 70             	arpl   %sp,0x70(%ebp)
  1091f2:	74 69                	je     10925d <__debug_baud_rate+0x1189>
  1091f4:	6f                   	outsl  %ds:(%esi),(%dx)
  1091f5:	6e                   	outsb  %ds:(%esi),(%dx)
  1091f6:	20 25 69 20 2d 20    	and    %ah,0x202d2069
  1091fc:	55                   	push   %ebp
  1091fd:	4e                   	dec    %esi
  1091fe:	4b                   	dec    %ebx
  1091ff:	4e                   	dec    %esi
  109200:	4f                   	dec    %edi
  109201:	57                   	push   %edi
  109202:	4e                   	dec    %esi
  109203:	20 54 59 50          	and    %dl,0x50(%ecx,%ebx,2)
  109207:	45                   	inc    %ebp
  109208:	0a 0a                	or     (%edx),%cl
  10920a:	00 00                	add    %al,(%eax)
  10920c:	1b 5b 31             	sbb    0x31(%ebx),%ebx
  10920f:	3b 33                	cmp    (%ebx),%esi
  109211:	31 6d 46             	xor    %ebp,0x46(%ebp)
  109214:	41                   	inc    %ecx
  109215:	55                   	push   %ebp
  109216:	4c                   	dec    %esp
  109217:	54                   	push   %esp
  109218:	20 52 45             	and    %dl,0x45(%edx)
  10921b:	47                   	inc    %edi
  10921c:	49                   	dec    %ecx
  10921d:	53                   	push   %ebx
  10921e:	54                   	push   %esp
  10921f:	45                   	inc    %ebp
  109220:	52                   	push   %edx
  109221:	53                   	push   %ebx
  109222:	3a 0a                	cmp    (%edx),%cl
  109224:	1b 5b 30             	sbb    0x30(%ebx),%ebx
  109227:	3b 33                	cmp    (%ebx),%esi
  109229:	31 6d 00             	xor    %ebp,0x0(%ebp)
  10922c:	45                   	inc    %ebp
  10922d:	41                   	inc    %ecx
  10922e:	58                   	pop    %eax
  10922f:	20 25 30 38 78 20    	and    %ah,0x20783830
  109235:	45                   	inc    %ebp
  109236:	42                   	inc    %edx
  109237:	58                   	pop    %eax
  109238:	20 25 30 38 78 20    	and    %ah,0x20783830
  10923e:	45                   	inc    %ebp
  10923f:	43                   	inc    %ebx
  109240:	58                   	pop    %eax
  109241:	20 25 30 38 78 20    	and    %ah,0x20783830
  109247:	45                   	inc    %ebp
  109248:	44                   	inc    %esp
  109249:	58                   	pop    %eax
  10924a:	20 25 30 38 78 0a    	and    %ah,0xa783830
  109250:	00 00                	add    %al,(%eax)
  109252:	00 00                	add    %al,(%eax)
  109254:	45                   	inc    %ebp
  109255:	44                   	inc    %esp
  109256:	49                   	dec    %ecx
  109257:	20 25 30 38 78 20    	and    %ah,0x20783830
  10925d:	45                   	inc    %ebp
  10925e:	53                   	push   %ebx
  10925f:	49                   	dec    %ecx
  109260:	20 25 30 38 78 20    	and    %ah,0x20783830
  109266:	45                   	inc    %ebp
  109267:	42                   	inc    %edx
  109268:	50                   	push   %eax
  109269:	20 25 30 38 78 20    	and    %ah,0x20783830
  10926f:	45                   	inc    %ebp
  109270:	53                   	push   %ebx
  109271:	50                   	push   %eax
  109272:	20 25 30 38 78 0a    	and    %ah,0xa783830
  109278:	00 45 52             	add    %al,0x52(%ebp)
  10927b:	52                   	push   %edx
  10927c:	20 25 30 38 78 20    	and    %ah,0x20783830
  109282:	45                   	inc    %ebp
  109283:	49                   	dec    %ecx
  109284:	50                   	push   %eax
  109285:	20 25 30 38 78 0a    	and    %ah,0xa783830
  10928b:	0a 00                	or     (%eax),%al
  10928d:	00 00                	add    %al,(%eax)
  10928f:	00 43 53             	add    %al,0x53(%ebx)
  109292:	20 25 30 34 78 20    	and    %ah,0x20783430
  109298:	44                   	inc    %esp
  109299:	53                   	push   %ebx
  10929a:	20 25 30 34 78 20    	and    %ah,0x20783430
  1092a0:	45                   	inc    %ebp
  1092a1:	53                   	push   %ebx
  1092a2:	20 25 30 34 78 20    	and    %ah,0x20783430
  1092a8:	47                   	inc    %edi
  1092a9:	53                   	push   %ebx
  1092aa:	20 25 30 34 78 0a    	and    %ah,0xa783430
  1092b0:	00 00                	add    %al,(%eax)
  1092b2:	00 00                	add    %al,(%eax)
  1092b4:	47                   	inc    %edi
  1092b5:	44                   	inc    %esp
  1092b6:	54                   	push   %esp
  1092b7:	52                   	push   %edx
  1092b8:	20 25 30 38 78 20    	and    %ah,0x20783830
  1092be:	25 30 34 78 0a       	and    $0xa783430,%eax
  1092c3:	49                   	dec    %ecx
  1092c4:	44                   	inc    %esp
  1092c5:	54                   	push   %esp
  1092c6:	52                   	push   %edx
  1092c7:	20 25 30 38 78 20    	and    %ah,0x20783830
  1092cd:	25 30 34 78 0a       	and    $0xa783430,%eax
  1092d2:	00 68 61             	add    %ch,0x61(%eax)
  1092d5:	6c                   	insb   (%dx),%es:(%edi)
  1092d6:	00 00                	add    %al,(%eax)
  1092d8:	49                   	dec    %ecx
  1092d9:	6e                   	outsb  %ds:(%esi),(%dx)
  1092da:	74 65                	je     109341 <__debug_baud_rate+0x126d>
  1092dc:	72 72                	jb     109350 <__debug_baud_rate+0x127c>
  1092de:	75 70                	jne    109350 <__debug_baud_rate+0x127c>
  1092e0:	74 73                	je     109355 <__debug_baud_rate+0x1281>
  1092e2:	20 65 6e             	and    %ah,0x6e(%ebp)
  1092e5:	61                   	popa   
  1092e6:	62 6c 65 64          	bound  %ebp,0x64(%ebp,%eiz,2)
  1092ea:	20 73 75             	and    %dh,0x75(%ebx)
  1092ed:	63 63 65             	arpl   %sp,0x65(%ebx)
  1092f0:	73 73                	jae    109365 <__debug_baud_rate+0x1291>
  1092f2:	66 75 6c             	data16 jne 109361 <__debug_baud_rate+0x128d>
  1092f5:	6c                   	insb   (%dx),%es:(%edi)
  1092f6:	79 0a                	jns    109302 <__debug_baud_rate+0x122e>
  1092f8:	00 00                	add    %al,(%eax)
  1092fa:	00 00                	add    %al,(%eax)
  1092fc:	2a 2a                	sub    (%edx),%ch
  1092fe:	2a 20                	sub    (%eax),%ah
  109300:	54                   	push   %esp
  109301:	68 65 20 6d 65       	push   $0x656d2065
  109306:	6d                   	insl   (%dx),%es:(%edi)
  109307:	6f                   	outsl  %ds:(%esi),(%dx)
  109308:	72 79                	jb     109383 <__debug_baud_rate+0x12af>
  10930a:	20 6d 61             	and    %ch,0x61(%ebp)
  10930d:	6e                   	outsb  %ds:(%esi),(%dx)
  10930e:	61                   	popa   
  10930f:	67 65 72 20          	addr16 gs jb 109333 <__debug_baud_rate+0x125f>
  109313:	66 61                	popaw  
  109315:	69 6c 65 64 20 74 6f 	imul   $0x206f7420,0x64(%ebp,%eiz,2),%ebp
  10931c:	20 
  10931d:	61                   	popa   
  10931e:	6c                   	insb   (%dx),%es:(%edi)
  10931f:	6c                   	insb   (%dx),%es:(%edi)
  109320:	6f                   	outsl  %ds:(%esi),(%dx)
  109321:	63 61 74             	arpl   %sp,0x74(%ecx)
  109324:	65 20 65 6e          	and    %ah,%gs:0x6e(%ebp)
  109328:	6f                   	outsl  %ds:(%esi),(%dx)
  109329:	75 67                	jne    109392 <__debug_baud_rate+0x12be>
  10932b:	68 20 6d 65 6d       	push   $0x6d656d20
  109330:	6f                   	outsl  %ds:(%esi),(%dx)
  109331:	72 79                	jb     1093ac <__debug_baud_rate+0x12d8>
  109333:	2e 0a 00             	or     %cs:(%eax),%al
  109336:	61                   	popa   
  109337:	72 63                	jb     10939c <__debug_baud_rate+0x12c8>
  109339:	68 2f 69 33 38       	push   $0x3833692f
  10933e:	36 2f                	ss das 
  109340:	6d                   	insl   (%dx),%es:(%edi)
  109341:	65 6d                	gs insl (%dx),%es:(%edi)
  109343:	2e 63 00             	arpl   %ax,%cs:(%eax)
  109346:	00 00                	add    %al,(%eax)
  109348:	2a 2a                	sub    (%edx),%ch
  10934a:	2a 20                	sub    (%eax),%ah
  10934c:	46                   	inc    %esi
  10934d:	61                   	popa   
  10934e:	69 6c 65 64 20 74 6f 	imul   $0x206f7420,0x64(%ebp,%eiz,2),%ebp
  109355:	20 
  109356:	61                   	popa   
  109357:	6c                   	insb   (%dx),%es:(%edi)
  109358:	6c                   	insb   (%dx),%es:(%edi)
  109359:	6f                   	outsl  %ds:(%esi),(%dx)
  10935a:	63 61 74             	arpl   %sp,0x74(%ecx)
  10935d:	65 20 25 69 20 62 79 	and    %ah,%gs:0x79622069
  109364:	74 65                	je     1093cb <__debug_baud_rate+0x12f7>
  109366:	73 20                	jae    109388 <__debug_baud_rate+0x12b4>
  109368:	28 73 65             	sub    %dh,0x65(%ebx)
  10936b:	71 75                	jno    1093e2 <__debug_baud_rate+0x130e>
  10936d:	65 6e                	outsb  %gs:(%esi),(%dx)
  10936f:	63 65 3a             	arpl   %sp,0x3a(%ebp)
  109372:	20 25 73 29 0a 00    	and    %ah,0xa2973
  109378:	2a 2a                	sub    (%edx),%ch
  10937a:	2a 20                	sub    (%eax),%ah
  10937c:	54                   	push   %esp
  10937d:	6f                   	outsl  %ds:(%esi),(%dx)
  10937e:	6f                   	outsl  %ds:(%esi),(%dx)
  10937f:	20 6d 75             	and    %ch,0x75(%ebp)
  109382:	63 68 20             	arpl   %bp,0x20(%eax)
  109385:	70 68                	jo     1093ef <__debug_baud_rate+0x131b>
  109387:	79 73                	jns    1093fc <__debug_baud_rate+0x1328>
  109389:	69 63 61 6c 20 6d 65 	imul   $0x656d206c,0x61(%ebx),%esp
  109390:	6d                   	insl   (%dx),%es:(%edi)
  109391:	6f                   	outsl  %ds:(%esi),(%dx)
  109392:	72 79                	jb     10940d <__debug_baud_rate+0x1339>
  109394:	20 69 73             	and    %ch,0x73(%ecx)
  109397:	20 69 6e             	and    %ch,0x6e(%ecx)
  10939a:	20 75 73             	and    %dh,0x73(%ebp)
  10939d:	65 2e 20 52 65       	gs and %dl,%cs:0x65(%edx)
  1093a2:	61                   	popa   
  1093a3:	63 68 65             	arpl   %bp,0x65(%eax)
  1093a6:	64 20 74 68 65       	and    %dh,%fs:0x65(%eax,%ebp,2)
  1093ab:	20 6d 61             	and    %ch,0x61(%ebp)
  1093ae:	78 69                	js     109419 <__debug_baud_rate+0x1345>
  1093b0:	6d                   	insl   (%dx),%es:(%edi)
  1093b1:	75 6d                	jne    109420 <__debug_baud_rate+0x134c>
  1093b3:	20 73 69             	and    %dh,0x69(%ebx)
  1093b6:	7a 65                	jp     10941d <__debug_baud_rate+0x1349>
  1093b8:	20 6f 66             	and    %ch,0x66(%edi)
  1093bb:	20 74 68 65          	and    %dh,0x65(%eax,%ebp,2)
  1093bf:	20 69 64             	and    %ch,0x64(%ecx)
  1093c2:	65 6e                	outsb  %gs:(%esi),(%dx)
  1093c4:	74 69                	je     10942f <__debug_baud_rate+0x135b>
  1093c6:	74 79                	je     109441 <__debug_baud_rate+0x136d>
  1093c8:	20 6d 61             	and    %ch,0x61(%ebp)
  1093cb:	70 70                	jo     10943d <__debug_baud_rate+0x1369>
  1093cd:	65 64 20 72 65       	gs and %dh,%fs:0x65(%edx)
  1093d2:	67 69 6f 6e 2e 00 6d 	imul   $0x656d002e,0x6e(%bx),%ebp
  1093d9:	65 
  1093da:	6d                   	insl   (%dx),%es:(%edi)
  1093db:	00 54 6f 6f          	add    %dl,0x6f(%edi,%ebp,2)
  1093df:	20 6d 75             	and    %ch,0x75(%ebp)
  1093e2:	63 68 20             	arpl   %bp,0x20(%eax)
  1093e5:	6d                   	insl   (%dx),%es:(%edi)
  1093e6:	65 6d                	gs insl (%dx),%es:(%edi)
  1093e8:	6f                   	outsl  %ds:(%esi),(%dx)
  1093e9:	72 79                	jb     109464 <__debug_baud_rate+0x1390>
  1093eb:	20 69 6e             	and    %ch,0x6e(%ecx)
  1093ee:	20 50 4d             	and    %dl,0x4d(%eax)
  1093f1:	4d                   	dec    %ebp
  1093f2:	20 62 69             	and    %ah,0x69(%edx)
  1093f5:	74 6d                	je     109464 <__debug_baud_rate+0x1390>
  1093f7:	61                   	popa   
  1093f8:	70 2e                	jo     109428 <__debug_baud_rate+0x1354>
  1093fa:	20 4d 61             	and    %cl,0x61(%ebp)
  1093fd:	78 69                	js     109468 <__debug_baud_rate+0x1394>
  1093ff:	6d                   	insl   (%dx),%es:(%edi)
  109400:	75 6d                	jne    10946f <__debug_baud_rate+0x139b>
  109402:	20 61 6c             	and    %ah,0x6c(%ecx)
  109405:	6c                   	insb   (%dx),%es:(%edi)
  109406:	6f                   	outsl  %ds:(%esi),(%dx)
  109407:	77 65                	ja     10946e <__debug_baud_rate+0x139a>
  109409:	64 20 6d 65          	and    %ch,%fs:0x65(%ebp)
  10940d:	6d                   	insl   (%dx),%es:(%edi)
  10940e:	6f                   	outsl  %ds:(%esi),(%dx)
  10940f:	72 79                	jb     10948a <__debug_baud_rate+0x13b6>
  109411:	20 73 69             	and    %dh,0x69(%ebx)
  109414:	7a 65                	jp     10947b <__debug_baud_rate+0x13a7>
  109416:	20 69 73             	and    %ch,0x73(%ecx)
  109419:	20 25 69 20 4b 42    	and    %ah,0x424b2069
  10941f:	20 61 6e             	and    %ah,0x6e(%ecx)
  109422:	64 20 66 6f          	and    %ah,%fs:0x6f(%esi)
  109426:	75 6e                	jne    109496 <__debug_baud_rate+0x13c2>
  109428:	64 20 25 69 20 4b 42 	and    %ah,%fs:0x424b2069
  10942f:	20 2d 20 6c 69 6d    	and    %ch,0x6d696c20
  109435:	69 74 69 6e 67 20 73 	imul   $0x69732067,0x6e(%ecx,%ebp,2),%esi
  10943c:	69 
  10943d:	7a 65                	jp     1094a4 <__debug_baud_rate+0x13d0>
  10943f:	0a 00                	or     (%eax),%al
  109441:	00 00                	add    %al,(%eax)
  109443:	00 09                	add    %cl,(%ecx)
  109445:	74 61                	je     1094a8 <__debug_baud_rate+0x13d4>
  109447:	62 6c 65 5f          	bound  %ebp,0x5f(%ebp,%eiz,2)
  10944b:	66 72 61             	data16 jb 1094af <__debug_baud_rate+0x13db>
  10944e:	6d                   	insl   (%dx),%es:(%edi)
  10944f:	65 20 3d 20 30 78 25 	and    %bh,%gs:0x25783020
  109456:	78 20                	js     109478 <__debug_baud_rate+0x13a4>
  109458:	70 61                	jo     1094bb <__debug_baud_rate+0x13e7>
  10945a:	67 65 5f             	addr16 gs pop %edi
  10945d:	74 61                	je     1094c0 <__debug_baud_rate+0x13ec>
  10945f:	62 6c 65 20          	bound  %ebp,0x20(%ebp,%eiz,2)
  109463:	3d 20 30 78 25       	cmp    $0x25783020,%eax
  109468:	78 0a                	js     109474 <__debug_baud_rate+0x13a0>
  10946a:	00 00                	add    %al,(%eax)
  10946c:	46                   	inc    %esi
  10946d:	69 6e 69 73 68 65 64 	imul   $0x64656873,0x69(%esi),%ebp
  109474:	20 63 72             	and    %ah,0x72(%ebx)
  109477:	65 61                	gs popa 
  109479:	74 69                	je     1094e4 <__debug_baud_rate+0x1410>
  10947b:	6e                   	outsb  %ds:(%esi),(%dx)
  10947c:	67 20 6d 65          	and    %ch,0x65(%di)
  109480:	6d                   	insl   (%dx),%es:(%edi)
  109481:	6f                   	outsl  %ds:(%esi),(%dx)
  109482:	72 79                	jb     1094fd <__debug_baud_rate+0x1429>
  109484:	20 6d 61             	and    %ch,0x61(%ebp)
  109487:	70 2e                	jo     1094b7 <__debug_baud_rate+0x13e3>
  109489:	0a 00                	or     (%eax),%al
  10948b:	00 09                	add    %cl,(%ecx)
  10948d:	4b                   	dec    %ebx
  10948e:	65 72 6e             	gs jb  1094ff <__debug_baud_rate+0x142b>
  109491:	65 6c                	gs insb (%dx),%es:(%edi)
  109493:	20 63 6f             	and    %ah,0x6f(%ebx)
  109496:	64 65 20 69 73       	fs and %ch,%gs:0x73(%ecx)
  10949b:	20 66 72             	and    %ah,0x72(%esi)
  10949e:	6f                   	outsl  %ds:(%esi),(%dx)
  10949f:	6d                   	insl   (%dx),%es:(%edi)
  1094a0:	20 30                	and    %dh,(%eax)
  1094a2:	78 30                	js     1094d4 <__debug_baud_rate+0x1400>
  1094a4:	20 2d 20 30 78 25    	and    %ch,0x25783020
  1094aa:	78 0a                	js     1094b6 <__debug_baud_rate+0x13e2>
  1094ac:	00 00                	add    %al,(%eax)
  1094ae:	00 00                	add    %al,(%eax)
  1094b0:	09 4b 65             	or     %ecx,0x65(%ebx)
  1094b3:	72 6e                	jb     109523 <__debug_baud_rate+0x144f>
  1094b5:	65 6c                	gs insb (%dx),%es:(%edi)
  1094b7:	20 68 65             	and    %ch,0x65(%eax)
  1094ba:	61                   	popa   
  1094bb:	70 20                	jo     1094dd <__debug_baud_rate+0x1409>
  1094bd:	77 69                	ja     109528 <__debug_baud_rate+0x1454>
  1094bf:	6c                   	insb   (%dx),%es:(%edi)
  1094c0:	6c                   	insb   (%dx),%es:(%edi)
  1094c1:	20 62 65             	and    %ah,0x65(%edx)
  1094c4:	67 69 6e 20 61 74 20 	imul   $0x30207461,0x20(%bp),%ebp
  1094cb:	30 
  1094cc:	78 25                	js     1094f3 <__debug_baud_rate+0x141f>
  1094ce:	78 0a                	js     1094da <__debug_baud_rate+0x1406>
  1094d0:	00 00                	add    %al,(%eax)
  1094d2:	00 00                	add    %al,(%eax)
  1094d4:	50                   	push   %eax
  1094d5:	61                   	popa   
  1094d6:	67 65 20 64 69       	and    %ah,%gs:0x69(%si)
  1094db:	72 65                	jb     109542 <__debug_baud_rate+0x146e>
  1094dd:	63 74 6f 72          	arpl   %si,0x72(%edi,%ebp,2)
  1094e1:	79 20                	jns    109503 <__debug_baud_rate+0x142f>
  1094e3:	69 73 20 61 76 61 69 	imul   $0x69617661,0x20(%ebx),%esi
  1094ea:	6c                   	insb   (%dx),%es:(%edi)
  1094eb:	61                   	popa   
  1094ec:	62 6c 65 20          	bound  %ebp,0x20(%ebp,%eiz,2)
  1094f0:	61                   	popa   
  1094f1:	74 3a                	je     10952d <__debug_baud_rate+0x1459>
  1094f3:	20 30                	and    %dh,(%eax)
  1094f5:	78 25                	js     10951c <__debug_baud_rate+0x1448>
  1094f7:	78 0a                	js     109503 <__debug_baud_rate+0x142f>
  1094f9:	00 48 65             	add    %cl,0x65(%eax)
  1094fc:	61                   	popa   
  1094fd:	70 20                	jo     10951f <__debug_baud_rate+0x144b>
  1094ff:	6e                   	outsb  %ds:(%esi),(%dx)
  109500:	6f                   	outsl  %ds:(%esi),(%dx)
  109501:	74 20                	je     109523 <__debug_baud_rate+0x144f>
  109503:	79 65                	jns    10956a <__debug_baud_rate+0x1496>
  109505:	74 20                	je     109527 <__debug_baud_rate+0x1453>
  109507:	72 65                	jb     10956e <__debug_baud_rate+0x149a>
  109509:	61                   	popa   
  10950a:	64 79 0a             	fs jns 109517 <__debug_baud_rate+0x1443>
  10950d:	00 00                	add    %al,(%eax)
  10950f:	00 48 65             	add    %cl,0x65(%eax)
  109512:	61                   	popa   
  109513:	70 20                	jo     109535 <__debug_baud_rate+0x1461>
  109515:	73 69                	jae    109580 <__debug_baud_rate+0x14ac>
  109517:	7a 65                	jp     10957e <__debug_baud_rate+0x14aa>
  109519:	20 65 78             	and    %ah,0x78(%ebp)
  10951c:	70 61                	jo     10957f <__debug_baud_rate+0x14ab>
  10951e:	6e                   	outsb  %ds:(%esi),(%dx)
  10951f:	73 69                	jae    10958a <__debug_baud_rate+0x14b6>
  109521:	6f                   	outsl  %ds:(%esi),(%dx)
  109522:	6e                   	outsb  %ds:(%esi),(%dx)
  109523:	20 6d 75             	and    %ch,0x75(%ebp)
  109526:	73 74                	jae    10959c <__debug_baud_rate+0x14c8>
  109528:	20 62 65             	and    %ah,0x65(%edx)
  10952b:	20 61 20             	and    %ah,0x20(%ecx)
  10952e:	6d                   	insl   (%dx),%es:(%edi)
  10952f:	75 6c                	jne    10959d <__debug_baud_rate+0x14c9>
  109531:	74 69                	je     10959c <__debug_baud_rate+0x14c8>
  109533:	70 6c                	jo     1095a1 <__debug_baud_rate+0x14cd>
  109535:	65 20 6f 66          	and    %ch,%gs:0x66(%edi)
  109539:	20 30                	and    %dh,(%eax)
  10953b:	78 25                	js     109562 <__debug_baud_rate+0x148e>
  10953d:	78 0a                	js     109549 <__debug_baud_rate+0x1475>
  10953f:	00 73 62             	add    %dh,0x62(%ebx)
  109542:	72 6b                	jb     1095af <__debug_baud_rate+0x14db>
  109544:	20 66 6f             	and    %ah,0x6f(%esi)
  109547:	75 6e                	jne    1095b7 <__debug_baud_rate+0x14e3>
  109549:	64 20 6f 64          	and    %ch,%fs:0x64(%edi)
  10954d:	64 20 70 61          	and    %dh,%fs:0x61(%eax)
  109551:	67 65 73 20          	addr16 gs jae 109575 <__debug_baud_rate+0x14a1>
  109555:	61                   	popa   
  109556:	74 20                	je     109578 <__debug_baud_rate+0x14a4>
  109558:	30 78 25             	xor    %bh,0x25(%eax)
  10955b:	78 20                	js     10957d <__debug_baud_rate+0x14a9>
  10955d:	2d 20 30 78 25       	sub    $0x25783020,%eax
  109562:	78 0a                	js     10956e <__debug_baud_rate+0x149a>
  109564:	00 00                	add    %al,(%eax)
  109566:	00 00                	add    %al,(%eax)
  109568:	25 73 0a 00 61       	and    $0x61000a73,%eax
  10956d:	72 63                	jb     1095d2 <__debug_baud_rate+0x14fe>
  10956f:	68 2f 69 33 38       	push   $0x3833692f
  109574:	36 2f                	ss das 
  109576:	61                   	popa   
  109577:	72 63                	jb     1095dc <__debug_baud_rate+0x1508>
  109579:	68 2e 63 00 00       	push   $0x632e
  10957e:	00 00                	add    %al,(%eax)
  109580:	48                   	dec    %eax
  109581:	65 78 61             	gs js  1095e5 <__debug_baud_rate+0x1511>
  109584:	68 65 64 72 6f       	push   $0x6f726465
  109589:	6e                   	outsb  %ds:(%esi),(%dx)
  10958a:	20 25 64 2e 25 64    	and    %ah,0x64252e64
  109590:	2e 25 64 2d 25 73    	cs and $0x73252d64,%eax
  109596:	2d 25 73 20 28       	sub    $0x28207325,%eax
  10959b:	63 6f 64             	arpl   %bp,0x64(%edi)
  10959e:	65 6e                	outsb  %gs:(%esi),(%dx)
  1095a0:	61                   	popa   
  1095a1:	6d                   	insl   (%dx),%es:(%edi)
  1095a2:	65 20 22             	and    %ah,%gs:(%edx)
  1095a5:	25 73 22 29 0a       	and    $0xa292273,%eax
  1095aa:	00 09                	add    %cl,(%ecx)
  1095ac:	43                   	inc    %ebx
  1095ad:	6f                   	outsl  %ds:(%esi),(%dx)
  1095ae:	6d                   	insl   (%dx),%es:(%edi)
  1095af:	70 69                	jo     10961a <__debug_baud_rate+0x1546>
  1095b1:	6c                   	insb   (%dx),%es:(%edi)
  1095b2:	65 64 20 62 79       	gs and %ah,%fs:0x79(%edx)
  1095b7:	20 25 73 20 6f 6e    	and    %ah,0x6e6f2073
  1095bd:	20 25 73 20 25 73    	and    %ah,0x73252073
  1095c3:	0a 0a                	or     (%edx),%cl
  1095c5:	00 46 6f             	add    %al,0x6f(%esi)
  1095c8:	75 6e                	jne    109638 <__debug_baud_rate+0x1564>
  1095ca:	64 20 61 20          	and    %ah,%fs:0x20(%ecx)
  1095ce:	4d                   	dec    %ebp
  1095cf:	75 6c                	jne    10963d <__debug_baud_rate+0x1569>
  1095d1:	74 69                	je     10963c <__debug_baud_rate+0x1568>
  1095d3:	62 6f 6f             	bound  %ebp,0x6f(%edi)
  1095d6:	74 31                	je     109609 <__debug_baud_rate+0x1535>
  1095d8:	20 73 74             	and    %dh,0x74(%ebx)
  1095db:	72 75                	jb     109652 <__debug_baud_rate+0x157e>
  1095dd:	63 74 75 72          	arpl   %si,0x72(%ebp,%esi,2)
  1095e1:	65 0a 00             	or     %gs:(%eax),%al
  1095e4:	46                   	inc    %esi
  1095e5:	6f                   	outsl  %ds:(%esi),(%dx)
  1095e6:	75 6e                	jne    109656 <__debug_baud_rate+0x1582>
  1095e8:	64 20 61 20          	and    %ah,%fs:0x20(%ecx)
  1095ec:	4d                   	dec    %ebp
  1095ed:	75 6c                	jne    10965b <__debug_baud_rate+0x1587>
  1095ef:	74 69                	je     10965a <__debug_baud_rate+0x1586>
  1095f1:	62 6f 6f             	bound  %ebp,0x6f(%edi)
  1095f4:	74 32                	je     109628 <__debug_baud_rate+0x1554>
  1095f6:	20 73 74             	and    %dh,0x74(%ebx)
  1095f9:	72 75                	jb     109670 <__debug_baud_rate+0x159c>
  1095fb:	63 74 75 72          	arpl   %si,0x72(%ebp,%esi,2)
  1095ff:	65 0a 00             	or     %gs:(%eax),%al
  109602:	61                   	popa   
  109603:	72 63                	jb     109668 <__debug_baud_rate+0x1594>
  109605:	68 00 00 2a 2a       	push   $0x2a2a0000
  10960a:	2a 20                	sub    (%eax),%ah
  10960c:	55                   	push   %ebp
  10960d:	6e                   	outsb  %ds:(%esi),(%dx)
  10960e:	6b 6e 6f 77          	imul   $0x77,0x6f(%esi),%ebp
  109612:	6e                   	outsb  %ds:(%esi),(%dx)
  109613:	20 6d 75             	and    %ch,0x75(%ebp)
  109616:	6c                   	insb   (%dx),%es:(%edi)
  109617:	74 69                	je     109682 <__debug_baud_rate+0x15ae>
  109619:	62 6f 6f             	bound  %ebp,0x6f(%edi)
  10961c:	74 20                	je     10963e <__debug_baud_rate+0x156a>
  10961e:	73 74                	jae    109694 <__debug_baud_rate+0x15c0>
  109620:	72 75                	jb     109697 <__debug_baud_rate+0x15c3>
  109622:	63 74 75 72          	arpl   %si,0x72(%ebp,%esi,2)
  109626:	65 20 77 68          	and    %dh,%gs:0x68(%edi)
  10962a:	65 6e                	outsb  %gs:(%esi),(%dx)
  10962c:	20 63 68             	and    %ah,0x68(%ebx)
  10962f:	65 63 6b 69          	arpl   %bp,%gs:0x69(%ebx)
  109633:	6e                   	outsb  %ds:(%esi),(%dx)
  109634:	67 20 6b 65          	and    %ch,0x65(%bp,%di)
  109638:	72 6e                	jb     1096a8 <__debug_baud_rate+0x15d4>
  10963a:	65 6c                	gs insb (%dx),%es:(%edi)
  10963c:	2e 0a 00             	or     %cs:(%eax),%al
  10963f:	00 4c 6f 61          	add    %cl,0x61(%edi,%ebp,2)
  109643:	64 65 64 20 62 79    	fs gs and %ah,%fs:0x79(%edx)
  109649:	20 27                	and    %ah,(%edi)
  10964b:	25 73 27 20 77       	and    $0x77202773,%eax
  109650:	69 74 68 20 63 6f 6d 	imul   $0x6d6d6f63,0x20(%eax,%ebp,2),%esi
  109657:	6d 
  109658:	61                   	popa   
  109659:	6e                   	outsb  %ds:(%esi),(%dx)
  10965a:	64 20 6c 69 6e       	and    %ch,%fs:0x6e(%ecx,%ebp,2)
  10965f:	65 20 27             	and    %ah,%gs:(%edi)
  109662:	25 73 27 0a 00       	and    $0xa2773,%eax
  109667:	00 41 76             	add    %al,0x76(%ecx)
  10966a:	61                   	popa   
  10966b:	69 6c 61 62 6c 65 20 	imul   $0x7020656c,0x62(%ecx,%eiz,2),%ebp
  109672:	70 
  109673:	68 79 73 69 63       	push   $0x63697379
  109678:	61                   	popa   
  109679:	6c                   	insb   (%dx),%es:(%edi)
  10967a:	20 6d 65             	and    %ch,0x65(%ebp)
  10967d:	6d                   	insl   (%dx),%es:(%edi)
  10967e:	6f                   	outsl  %ds:(%esi),(%dx)
  10967f:	72 79                	jb     1096fa <__debug_baud_rate+0x1626>
  109681:	20 74 6f 20          	and    %dh,0x20(%edi,%ebp,2)
  109685:	6d                   	insl   (%dx),%es:(%edi)
  109686:	61                   	popa   
  109687:	63 68 69             	arpl   %bp,0x69(%eax)
  10968a:	6e                   	outsb  %ds:(%esi),(%dx)
  10968b:	65 3a 20             	cmp    %gs:(%eax),%ah
  10968e:	25 69 20 4b 42       	and    $0x424b2069,%eax
  109693:	0a 00                	or     (%eax),%al
  109695:	00 00                	add    %al,(%eax)
  109697:	00 4b 65             	add    %cl,0x65(%ebx)
  10969a:	72 6e                	jb     10970a <__debug_baud_rate+0x1636>
  10969c:	65 6c                	gs insb (%dx),%es:(%edi)
  10969e:	20 69 73             	and    %ch,0x73(%ecx)
  1096a1:	20 75 73             	and    %dh,0x73(%ebp)
  1096a4:	69 6e 67 20 25 69 20 	imul   $0x20692520,0x67(%esi),%ebp
  1096ab:	4b                   	dec    %ebx
  1096ac:	42                   	inc    %edx
  1096ad:	20 69 6e             	and    %ch,0x6e(%ecx)
  1096b0:	20 6d 65             	and    %ch,0x65(%ebp)
  1096b3:	6d                   	insl   (%dx),%es:(%edi)
  1096b4:	6f                   	outsl  %ds:(%esi),(%dx)
  1096b5:	72 79                	jb     109730 <__debug_baud_rate+0x165c>
  1096b7:	20 2d 20 65 78 74    	and    %ch,0x74786520
  1096bd:	72 61                	jb     109720 <__debug_baud_rate+0x164c>
  1096bf:	20 64 61 74          	and    %ah,0x74(%ecx,%eiz,2)
  1096c3:	61                   	popa   
  1096c4:	73 74                	jae    10973a <__debug_baud_rate+0x1666>
  1096c6:	72 75                	jb     10973d <__debug_baud_rate+0x1669>
  1096c8:	63 74 75 72          	arpl   %si,0x72(%ebp,%esi,2)
  1096cc:	65 73 20             	gs jae 1096ef <__debug_baud_rate+0x161b>
  1096cf:	61                   	popa   
  1096d0:	72 65                	jb     109737 <__debug_baud_rate+0x1663>
  1096d2:	20 75 73             	and    %dh,0x73(%ebp)
  1096d5:	69 6e 67 20 25 69 20 	imul   $0x20692520,0x67(%esi),%ebp
  1096dc:	4b                   	dec    %ebx
  1096dd:	42                   	inc    %edx
  1096de:	0a 00                	or     (%eax),%al
  1096e0:	73 75                	jae    109757 <__debug_baud_rate+0x1683>
  1096e2:	70 70                	jo     109754 <__debug_baud_rate+0x1680>
  1096e4:	6f                   	outsl  %ds:(%esi),(%dx)
  1096e5:	72 74                	jb     10975b <__debug_baud_rate+0x1687>
  1096e7:	65 64 00 6e 6f       	gs add %ch,%fs:0x6f(%esi)
  1096ec:	74 20                	je     10970e <__debug_baud_rate+0x163a>
  1096ee:	73 75                	jae    109765 <__debug_baud_rate+0x1691>
  1096f0:	70 70                	jo     109762 <__debug_baud_rate+0x168e>
  1096f2:	6f                   	outsl  %ds:(%esi),(%dx)
  1096f3:	72 74                	jb     109769 <__debug_baud_rate+0x1695>
  1096f5:	65 64 00 41 6c       	gs add %al,%fs:0x6c(%ecx)
  1096fa:	6c                   	insb   (%dx),%es:(%edi)
  1096fb:	6f                   	outsl  %ds:(%esi),(%dx)
  1096fc:	63 61 74             	arpl   %sp,0x74(%ecx)
  1096ff:	6f                   	outsl  %ds:(%esi),(%dx)
  109700:	72 20                	jb     109722 <__debug_baud_rate+0x164e>
  109702:	69 6e 66 6f 72 6d 61 	imul   $0x616d726f,0x66(%esi),%ebp
  109709:	74 69                	je     109774 <__debug_baud_rate+0x16a0>
  10970b:	6f                   	outsl  %ds:(%esi),(%dx)
  10970c:	6e                   	outsb  %ds:(%esi),(%dx)
  10970d:	3a 20                	cmp    (%eax),%ah
  10970f:	25 73 20 76 65       	and    $0x65762073,%eax
  109714:	72 73                	jb     109789 <__debug_baud_rate+0x16b5>
  109716:	69 6f 6e 20 25 69 2e 	imul   $0x2e692520,0x6e(%edi),%ebp
  10971d:	25 69 20 28 76       	and    $0x76282069,%eax
  109722:	61                   	popa   
  109723:	6c                   	insb   (%dx),%es:(%edi)
  109724:	6c                   	insb   (%dx),%es:(%edi)
  109725:	6f                   	outsl  %ds:(%esi),(%dx)
  109726:	63 20                	arpl   %sp,(%eax)
  109728:	25 73 2c 20 70       	and    $0x70202c73,%eax
  10972d:	72 6f                	jb     10979e <__debug_baud_rate+0x16ca>
  10972f:	66 69 6c 69 6e 67 20 	imul   $0x2067,0x6e(%ecx,%ebp,2),%bp
  109736:	25 73 29 0a 00       	and    $0xa2973,%eax
  10973b:	00 67 40             	add    %ah,0x40(%edi)
  10973e:	10 00                	adc    %al,(%eax)
  109740:	fd                   	std    
  109741:	3f                   	aas    
  109742:	10 00                	adc    %al,(%eax)
  109744:	04 40                	add    $0x40,%al
  109746:	10 00                	adc    %al,(%eax)
  109748:	21 40 10             	and    %eax,0x10(%eax)
  10974b:	00 28                	add    %ch,(%eax)
  10974d:	40                   	inc    %eax
  10974e:	10 00                	adc    %al,(%eax)
  109750:	2f                   	das    
  109751:	40                   	inc    %eax
  109752:	10 00                	adc    %al,(%eax)
  109754:	36 40                	ss inc %eax
  109756:	10 00                	adc    %al,(%eax)
  109758:	3d 40 10 00 44       	cmp    $0x44001040,%eax
  10975d:	40                   	inc    %eax
  10975e:	10 00                	adc    %al,(%eax)
  109760:	4b                   	dec    %ebx
  109761:	40                   	inc    %eax
  109762:	10 00                	adc    %al,(%eax)
  109764:	52                   	push   %edx
  109765:	40                   	inc    %eax
  109766:	10 00                	adc    %al,(%eax)
  109768:	59                   	pop    %ecx
  109769:	40                   	inc    %eax
  10976a:	10 00                	adc    %al,(%eax)
  10976c:	60                   	pusha  
  10976d:	40                   	inc    %eax
  10976e:	10 00                	adc    %al,(%eax)
  109770:	63 6c 6f 63          	arpl   %bp,0x63(%edi,%ebp,2)
  109774:	6b 3a 20             	imul   $0x20,(%edx),%edi
  109777:	46                   	inc    %esi
  109778:	61                   	popa   
  109779:	69 6c 65 64 20 74 6f 	imul   $0x206f7420,0x64(%ebp,%eiz,2),%ebp
  109780:	20 
  109781:	63 61 6c             	arpl   %sp,0x6c(%ecx)
  109784:	63 75 6c             	arpl   %si,0x6c(%ebp)
  109787:	61                   	popa   
  109788:	74 65                	je     1097ef <__debug_baud_rate+0x171b>
  10978a:	20 74 68 65          	and    %dh,0x65(%eax,%ebp,2)
  10978e:	20 54 53 43          	and    %dl,0x43(%ebx,%edx,2)
  109792:	20 4d 48             	and    %cl,0x48(%ebp)
  109795:	7a 20                	jp     1097b7 <__debug_baud_rate+0x16e3>
  109797:	2d 20 64 65 66       	sub    $0x66656420,%eax
  10979c:	61                   	popa   
  10979d:	75 6c                	jne    10980b <__debug_baud_rate+0x1737>
  10979f:	74 69                	je     10980a <__debug_baud_rate+0x1736>
  1097a1:	6e                   	outsb  %ds:(%esi),(%dx)
  1097a2:	67 20 74 6f          	and    %dh,0x6f(%si)
  1097a6:	20 32                	and    %dh,(%edx)
  1097a8:	30 30                	xor    %dh,(%eax)
  1097aa:	30 0a                	xor    %cl,(%edx)
  1097ac:	00 64 72 69          	add    %ah,0x69(%edx,%esi,2)
  1097b0:	76 65                	jbe    109817 <__debug_baud_rate+0x1743>
  1097b2:	72 73                	jb     109827 <__debug_baud_rate+0x1753>
  1097b4:	2f                   	das    
  1097b5:	78 38                	js     1097ef <__debug_baud_rate+0x171b>
  1097b7:	36 2f                	ss das 
  1097b9:	63 6c 6f 63          	arpl   %bp,0x63(%edi,%ebp,2)
  1097bd:	6b 2e 63             	imul   $0x63,(%esi),%ebp
  1097c0:	00 00                	add    %al,(%eax)
  1097c2:	00 00                	add    %al,(%eax)
  1097c4:	63 6c 6f 63          	arpl   %bp,0x63(%edi,%ebp,2)
  1097c8:	6b 3a 20             	imul   $0x20,(%edx),%edi
  1097cb:	54                   	push   %esp
  1097cc:	53                   	push   %ebx
  1097cd:	43                   	inc    %ebx
  1097ce:	20 63 61             	and    %ah,0x61(%ebx)
  1097d1:	6c                   	insb   (%dx),%es:(%edi)
  1097d2:	63 75 6c             	arpl   %si,0x6c(%ebp)
  1097d5:	61                   	popa   
  1097d6:	74 65                	je     10983d <__debug_baud_rate+0x1769>
  1097d8:	64 20 73 70          	and    %dh,%fs:0x70(%ebx)
  1097dc:	65 65 64 20 69 73    	gs gs and %ch,%fs:0x73(%ecx)
  1097e2:	20 25 6c 75 20 4d    	and    %ah,0x4d20756c
  1097e8:	48                   	dec    %eax
  1097e9:	7a 0a                	jp     1097f5 <__debug_baud_rate+0x1721>
  1097eb:	00 63 6c             	add    %ah,0x6c(%ebx)
  1097ee:	6f                   	outsl  %ds:(%esi),(%dx)
  1097ef:	63 6b 3a             	arpl   %bp,0x3a(%ebx)
  1097f2:	20 49 6e             	and    %cl,0x6e(%ecx)
  1097f5:	69 74 69 61 6c 20 62 	imul   $0x6f62206c,0x61(%ecx,%ebp,2),%esi
  1097fc:	6f 
  1097fd:	6f                   	outsl  %ds:(%esi),(%dx)
  1097fe:	74 20                	je     109820 <__debug_baud_rate+0x174c>
  109800:	74 69                	je     10986b <__debug_baud_rate+0x1797>
  109802:	6d                   	insl   (%dx),%es:(%edi)
  109803:	65 20 69 73          	and    %ch,%gs:0x73(%ecx)
  109807:	20 25 6c 75 20 28    	and    %ah,0x2820756c
  10980d:	55                   	push   %ebp
  10980e:	4e                   	dec    %esi
  10980f:	49                   	dec    %ecx
  109810:	58                   	pop    %eax
  109811:	20 74 69 6d          	and    %dh,0x6d(%ecx,%ebp,2)
  109815:	65 73 74             	gs jae 10988c <__debug_baud_rate+0x17b8>
  109818:	61                   	popa   
  109819:	6d                   	insl   (%dx),%es:(%edi)
  10981a:	70 29                	jo     109845 <__debug_baud_rate+0x1771>
  10981c:	0a 00                	or     (%eax),%al
  10981e:	63 6c 6f 63          	arpl   %bp,0x63(%edi,%ebp,2)
  109822:	6b 3a 20             	imul   $0x20,(%edx),%edi
  109825:	54                   	push   %esp
  109826:	53                   	push   %ebx
  109827:	43                   	inc    %ebx
  109828:	20 62 61             	and    %ah,0x61(%edx)
  10982b:	73 65                	jae    109892 <__debug_baud_rate+0x17be>
  10982d:	6c                   	insb   (%dx),%es:(%edi)
  10982e:	69 6e 65 20 69 73 20 	imul   $0x20736920,0x65(%esi),%ebp
  109835:	25 6c 75 75 73       	and    $0x7375756c,%eax
  10983a:	0a 00                	or     (%eax),%al
  10983c:	50                   	push   %eax
  10983d:	72 6f                	jb     1098ae <__debug_baud_rate+0x17da>
  10983f:	67 72 61             	addr16 jb 1098a3 <__debug_baud_rate+0x17cf>
  109842:	6d                   	insl   (%dx),%es:(%edi)
  109843:	6d                   	insl   (%dx),%es:(%edi)
  109844:	61                   	popa   
  109845:	62 6c 65 20          	bound  %ebp,0x20(%ebp,%eiz,2)
  109849:	69 6e 74 65 72 76 61 	imul   $0x61767265,0x74(%esi),%ebp
  109850:	6c                   	insb   (%dx),%es:(%edi)
  109851:	20 74 69 6d          	and    %dh,0x6d(%ecx,%ebp,2)
  109855:	65 72 20             	gs jb  109878 <__debug_baud_rate+0x17a4>
  109858:	69 6e 69 74 69 61 6c 	imul   $0x6c616974,0x69(%esi),%ebp
  10985f:	69 7a 65 64 0a 00 64 	imul   $0x64000a64,0x65(%edx),%edi
  109866:	72 69                	jb     1098d1 <__debug_baud_rate+0x17fd>
  109868:	76 65                	jbe    1098cf <__debug_baud_rate+0x17fb>
  10986a:	72 73                	jb     1098df <__debug_baud_rate+0x180b>
  10986c:	2f                   	das    
  10986d:	78 38                	js     1098a7 <__debug_baud_rate+0x17d3>
  10986f:	36 2f                	ss das 
  109871:	70 69                	jo     1098dc <__debug_baud_rate+0x1808>
  109873:	74 2e                	je     1098a3 <__debug_baud_rate+0x17cf>
  109875:	63 00                	arpl   %ax,(%eax)
	...
  10987f:	00 30                	add    %dh,(%eax)
  109881:	31 32                	xor    %esi,(%edx)
  109883:	33 34 35 36 37 38 39 	xor    0x39383736(,%esi,1),%esi
  10988a:	41                   	inc    %ecx
  10988b:	42                   	inc    %edx
  10988c:	43                   	inc    %ebx
  10988d:	44                   	inc    %esp
  10988e:	45                   	inc    %ebp
  10988f:	46                   	inc    %esi
  109890:	00 30                	add    %dh,(%eax)
  109892:	31 32                	xor    %esi,(%edx)
  109894:	33 34 35 36 37 38 39 	xor    0x39383736(,%esi,1),%esi
  10989b:	61                   	popa   
  10989c:	62 63 64             	bound  %esp,0x64(%ebx)
  10989f:	65 66 00 28          	data16 add %ch,%gs:(%eax)
  1098a3:	6e                   	outsb  %ds:(%esi),(%dx)
  1098a4:	75 6c                	jne    109912 <__debug_baud_rate+0x183e>
  1098a6:	6c                   	insb   (%dx),%es:(%edi)
  1098a7:	29 00                	sub    %eax,(%eax)
  1098a9:	00 00                	add    %al,(%eax)
  1098ab:	00 9e 5f 10 00 b4    	add    %bl,-0x4bffefa1(%esi)
  1098b1:	5f                   	pop    %edi
  1098b2:	10 00                	adc    %al,(%eax)
  1098b4:	b4 5f                	mov    $0x5f,%ah
  1098b6:	10 00                	adc    %al,(%eax)
  1098b8:	b4 5f                	mov    $0x5f,%ah
  1098ba:	10 00                	adc    %al,(%eax)
  1098bc:	b4 5f                	mov    $0x5f,%ah
  1098be:	10 00                	adc    %al,(%eax)
  1098c0:	b4 5f                	mov    $0x5f,%ah
  1098c2:	10 00                	adc    %al,(%eax)
  1098c4:	b4 5f                	mov    $0x5f,%ah
  1098c6:	10 00                	adc    %al,(%eax)
  1098c8:	b4 5f                	mov    $0x5f,%ah
  1098ca:	10 00                	adc    %al,(%eax)
  1098cc:	b4 5f                	mov    $0x5f,%ah
  1098ce:	10 00                	adc    %al,(%eax)
  1098d0:	b4 5f                	mov    $0x5f,%ah
  1098d2:	10 00                	adc    %al,(%eax)
  1098d4:	b4 5f                	mov    $0x5f,%ah
  1098d6:	10 00                	adc    %al,(%eax)
  1098d8:	b4 5f                	mov    $0x5f,%ah
  1098da:	10 00                	adc    %al,(%eax)
  1098dc:	b4 5f                	mov    $0x5f,%ah
  1098de:	10 00                	adc    %al,(%eax)
  1098e0:	b4 5f                	mov    $0x5f,%ah
  1098e2:	10 00                	adc    %al,(%eax)
  1098e4:	b4 5f                	mov    $0x5f,%ah
  1098e6:	10 00                	adc    %al,(%eax)
  1098e8:	b4 5f                	mov    $0x5f,%ah
  1098ea:	10 00                	adc    %al,(%eax)
  1098ec:	b4 5f                	mov    $0x5f,%ah
  1098ee:	10 00                	adc    %al,(%eax)
  1098f0:	b4 5f                	mov    $0x5f,%ah
  1098f2:	10 00                	adc    %al,(%eax)
  1098f4:	b4 5f                	mov    $0x5f,%ah
  1098f6:	10 00                	adc    %al,(%eax)
  1098f8:	b4 5f                	mov    $0x5f,%ah
  1098fa:	10 00                	adc    %al,(%eax)
  1098fc:	b4 5f                	mov    $0x5f,%ah
  1098fe:	10 00                	adc    %al,(%eax)
  109900:	b4 5f                	mov    $0x5f,%ah
  109902:	10 00                	adc    %al,(%eax)
  109904:	b4 5f                	mov    $0x5f,%ah
  109906:	10 00                	adc    %al,(%eax)
  109908:	b4 5f                	mov    $0x5f,%ah
  10990a:	10 00                	adc    %al,(%eax)
  10990c:	b4 5f                	mov    $0x5f,%ah
  10990e:	10 00                	adc    %al,(%eax)
  109910:	b4 5f                	mov    $0x5f,%ah
  109912:	10 00                	adc    %al,(%eax)
  109914:	b4 5f                	mov    $0x5f,%ah
  109916:	10 00                	adc    %al,(%eax)
  109918:	b4 5f                	mov    $0x5f,%ah
  10991a:	10 00                	adc    %al,(%eax)
  10991c:	b4 5f                	mov    $0x5f,%ah
  10991e:	10 00                	adc    %al,(%eax)
  109920:	b4 5f                	mov    $0x5f,%ah
  109922:	10 00                	adc    %al,(%eax)
  109924:	b4 5f                	mov    $0x5f,%ah
  109926:	10 00                	adc    %al,(%eax)
  109928:	b4 5f                	mov    $0x5f,%ah
  10992a:	10 00                	adc    %al,(%eax)
  10992c:	b4 5f                	mov    $0x5f,%ah
  10992e:	10 00                	adc    %al,(%eax)
  109930:	16                   	push   %ss
  109931:	59                   	pop    %ecx
  109932:	10 00                	adc    %al,(%eax)
  109934:	16                   	push   %ss
  109935:	59                   	pop    %ecx
  109936:	10 00                	adc    %al,(%eax)
  109938:	b4 5f                	mov    $0x5f,%ah
  10993a:	10 00                	adc    %al,(%eax)
  10993c:	b4 5f                	mov    $0x5f,%ah
  10993e:	10 00                	adc    %al,(%eax)
  109940:	b4 5f                	mov    $0x5f,%ah
  109942:	10 00                	adc    %al,(%eax)
  109944:	b4 5f                	mov    $0x5f,%ah
  109946:	10 00                	adc    %al,(%eax)
  109948:	b4 5f                	mov    $0x5f,%ah
  10994a:	10 00                	adc    %al,(%eax)
  10994c:	b4 5f                	mov    $0x5f,%ah
  10994e:	10 00                	adc    %al,(%eax)
  109950:	b4 5f                	mov    $0x5f,%ah
  109952:	10 00                	adc    %al,(%eax)
  109954:	b4 5f                	mov    $0x5f,%ah
  109956:	10 00                	adc    %al,(%eax)
  109958:	b4 5f                	mov    $0x5f,%ah
  10995a:	10 00                	adc    %al,(%eax)
  10995c:	b4 5f                	mov    $0x5f,%ah
  10995e:	10 00                	adc    %al,(%eax)
  109960:	b4 5f                	mov    $0x5f,%ah
  109962:	10 00                	adc    %al,(%eax)
  109964:	b4 5f                	mov    $0x5f,%ah
  109966:	10 00                	adc    %al,(%eax)
  109968:	b4 5f                	mov    $0x5f,%ah
  10996a:	10 00                	adc    %al,(%eax)
  10996c:	b4 5f                	mov    $0x5f,%ah
  10996e:	10 00                	adc    %al,(%eax)
  109970:	b4 5f                	mov    $0x5f,%ah
  109972:	10 00                	adc    %al,(%eax)
  109974:	b4 5f                	mov    $0x5f,%ah
  109976:	10 00                	adc    %al,(%eax)
  109978:	4f                   	dec    %edi
  109979:	57                   	push   %edi
  10997a:	10 00                	adc    %al,(%eax)
  10997c:	b4 5f                	mov    $0x5f,%ah
  10997e:	10 00                	adc    %al,(%eax)
  109980:	b4 5f                	mov    $0x5f,%ah
  109982:	10 00                	adc    %al,(%eax)
  109984:	b4 5f                	mov    $0x5f,%ah
  109986:	10 00                	adc    %al,(%eax)
  109988:	b4 5f                	mov    $0x5f,%ah
  10998a:	10 00                	adc    %al,(%eax)
  10998c:	b4 5f                	mov    $0x5f,%ah
  10998e:	10 00                	adc    %al,(%eax)
  109990:	b4 5f                	mov    $0x5f,%ah
  109992:	10 00                	adc    %al,(%eax)
  109994:	b4 5f                	mov    $0x5f,%ah
  109996:	10 00                	adc    %al,(%eax)
  109998:	b4 5f                	mov    $0x5f,%ah
  10999a:	10 00                	adc    %al,(%eax)
  10999c:	b4 5f                	mov    $0x5f,%ah
  10999e:	10 00                	adc    %al,(%eax)
  1099a0:	b4 5f                	mov    $0x5f,%ah
  1099a2:	10 00                	adc    %al,(%eax)
  1099a4:	22 57 10             	and    0x10(%edi),%dl
  1099a7:	00 dd                	add    %bl,%ch
  1099a9:	57                   	push   %edi
  1099aa:	10 00                	adc    %al,(%eax)
  1099ac:	b4 5f                	mov    $0x5f,%ah
  1099ae:	10 00                	adc    %al,(%eax)
  1099b0:	16                   	push   %ss
  1099b1:	59                   	pop    %ecx
  1099b2:	10 00                	adc    %al,(%eax)
  1099b4:	16                   	push   %ss
  1099b5:	59                   	pop    %ecx
  1099b6:	10 00                	adc    %al,(%eax)
  1099b8:	b4 5f                	mov    $0x5f,%ah
  1099ba:	10 00                	adc    %al,(%eax)
  1099bc:	dd 57 10             	fstl   0x10(%edi)
  1099bf:	00 b4 5f 10 00 b4 5f 	add    %dh,0x5fb40010(%edi,%ebx,2)
  1099c6:	10 00                	adc    %al,(%eax)
  1099c8:	b4 5f                	mov    $0x5f,%ah
  1099ca:	10 00                	adc    %al,(%eax)
  1099cc:	b4 5f                	mov    $0x5f,%ah
  1099ce:	10 00                	adc    %al,(%eax)
  1099d0:	b4 5f                	mov    $0x5f,%ah
  1099d2:	10 00                	adc    %al,(%eax)
  1099d4:	b4 5f                	mov    $0x5f,%ah
  1099d6:	10 00                	adc    %al,(%eax)
  1099d8:	48                   	dec    %eax
  1099d9:	57                   	push   %edi
  1099da:	10 00                	adc    %al,(%eax)
  1099dc:	b4 5f                	mov    $0x5f,%ah
  1099de:	10 00                	adc    %al,(%eax)
  1099e0:	b4 5f                	mov    $0x5f,%ah
  1099e2:	10 00                	adc    %al,(%eax)
  1099e4:	31 56 10             	xor    %edx,0x10(%esi)
  1099e7:	00 b4 5f 10 00 a0 58 	add    %dh,0x58a00010(%edi,%ebx,2)
  1099ee:	10 00                	adc    %al,(%eax)
  1099f0:	b4 5f                	mov    $0x5f,%ah
  1099f2:	10 00                	adc    %al,(%eax)
  1099f4:	b4 5f                	mov    $0x5f,%ah
  1099f6:	10 00                	adc    %al,(%eax)
  1099f8:	4f                   	dec    %edi
  1099f9:	57                   	push   %edi
  1099fa:	10 00                	adc    %al,(%eax)
	...
  109a04:	00 00                	add    %al,(%eax)
  109a06:	e0 43                	loopne 109a4b <__debug_baud_rate+0x1977>
  109a08:	00 00                	add    %al,(%eax)
  109a0a:	00 00                	add    %al,(%eax)
  109a0c:	00 6a f8             	add    %ch,-0x8(%edx)
  109a0f:	40                   	inc    %eax
  109a10:	00 00                	add    %al,(%eax)
  109a12:	00 00                	add    %al,(%eax)
  109a14:	00 00                	add    %al,(%eax)
  109a16:	00 80 3f 40 00 00    	add    %al,0x403f(%eax)
	...
  109a24:	00 00                	add    %al,(%eax)
  109a26:	24 40                	and    $0x40,%al
  109a28:	1d 77 4a 07 eb       	sbb    $0xeb074a77,%eax
  109a2d:	ff                   	(bad)  
  109a2e:	ef                   	out    %eax,(%dx)
  109a2f:	3f                   	aas    
  109a30:	f1                   	int1   
  109a31:	68 e3 88 b5 f8       	push   $0xf8b588e3
  109a36:	e4 3e                	in     $0x3e,%al
  109a38:	f1                   	int1   
  109a39:	68 e3 88 b5 f8       	push   $0xf8b588e3
  109a3e:	e4 be                	in     $0xbe,%al
  109a40:	9a 63 10 00 30 63 10 	lcall  $0x1063,$0x30001063
  109a47:	00 37                	add    %dh,(%edi)
  109a49:	63 10                	arpl   %dx,(%eax)
  109a4b:	00 54 63 10          	add    %dl,0x10(%ebx,%eiz,2)
  109a4f:	00 5b 63             	add    %bl,0x63(%ebx)
  109a52:	10 00                	adc    %al,(%eax)
  109a54:	62 63 10             	bound  %esp,0x10(%ebx)
  109a57:	00 69 63             	add    %ch,0x63(%ecx)
  109a5a:	10 00                	adc    %al,(%eax)
  109a5c:	70 63                	jo     109ac1 <__debug_baud_rate+0x19ed>
  109a5e:	10 00                	adc    %al,(%eax)
  109a60:	77 63                	ja     109ac5 <__debug_baud_rate+0x19f1>
  109a62:	10 00                	adc    %al,(%eax)
  109a64:	7e 63                	jle    109ac9 <__debug_baud_rate+0x19f5>
  109a66:	10 00                	adc    %al,(%eax)
  109a68:	85 63 10             	test   %esp,0x10(%ebx)
  109a6b:	00 8c 63 10 00 93 63 	add    %cl,0x63930010(%ebx,%eiz,2)
  109a72:	10 00                	adc    %al,(%eax)
  109a74:	55                   	push   %ebp
  109a75:	54                   	push   %esp
  109a76:	43                   	inc    %ebx
  109a77:	00 53 75             	add    %dl,0x75(%ebx)
  109a7a:	6e                   	outsb  %ds:(%esi),(%dx)
  109a7b:	64 61                	fs popa 
  109a7d:	79 00                	jns    109a7f <__debug_baud_rate+0x19ab>
  109a7f:	4d                   	dec    %ebp
  109a80:	6f                   	outsl  %ds:(%esi),(%dx)
  109a81:	6e                   	outsb  %ds:(%esi),(%dx)
  109a82:	64 61                	fs popa 
  109a84:	79 00                	jns    109a86 <__debug_baud_rate+0x19b2>
  109a86:	54                   	push   %esp
  109a87:	75 65                	jne    109aee <__debug_baud_rate+0x1a1a>
  109a89:	73 64                	jae    109aef <__debug_baud_rate+0x1a1b>
  109a8b:	61                   	popa   
  109a8c:	79 00                	jns    109a8e <__debug_baud_rate+0x19ba>
  109a8e:	57                   	push   %edi
  109a8f:	65 64 6e             	gs outsb %fs:(%esi),(%dx)
  109a92:	65 73 64             	gs jae 109af9 <__debug_baud_rate+0x1a25>
  109a95:	61                   	popa   
  109a96:	79 00                	jns    109a98 <__debug_baud_rate+0x19c4>
  109a98:	54                   	push   %esp
  109a99:	68 75 72 73 64       	push   $0x64737275
  109a9e:	61                   	popa   
  109a9f:	79 00                	jns    109aa1 <__debug_baud_rate+0x19cd>
  109aa1:	46                   	inc    %esi
  109aa2:	72 69                	jb     109b0d <__debug_baud_rate+0x1a39>
  109aa4:	64 61                	fs popa 
  109aa6:	79 00                	jns    109aa8 <__debug_baud_rate+0x19d4>
  109aa8:	53                   	push   %ebx
  109aa9:	61                   	popa   
  109aaa:	74 75                	je     109b21 <__debug_baud_rate+0x1a4d>
  109aac:	72 64                	jb     109b12 <__debug_baud_rate+0x1a3e>
  109aae:	61                   	popa   
  109aaf:	79 00                	jns    109ab1 <__debug_baud_rate+0x19dd>
  109ab1:	53                   	push   %ebx
  109ab2:	75 6e                	jne    109b22 <__debug_baud_rate+0x1a4e>
  109ab4:	00 4d 6f             	add    %cl,0x6f(%ebp)
  109ab7:	6e                   	outsb  %ds:(%esi),(%dx)
  109ab8:	00 54 75 65          	add    %dl,0x65(%ebp,%esi,2)
  109abc:	00 57 65             	add    %dl,0x65(%edi)
  109abf:	64 00 54 68 75       	add    %dl,%fs:0x75(%eax,%ebp,2)
  109ac4:	00 46 72             	add    %al,0x72(%esi)
  109ac7:	69 00 53 61 74 00    	imul   $0x746153,(%eax),%eax
  109acd:	4a                   	dec    %edx
  109ace:	61                   	popa   
  109acf:	6e                   	outsb  %ds:(%esi),(%dx)
  109ad0:	75 61                	jne    109b33 <__debug_baud_rate+0x1a5f>
  109ad2:	72 79                	jb     109b4d <__debug_baud_rate+0x1a79>
  109ad4:	00 46 65             	add    %al,0x65(%esi)
  109ad7:	62 72 75             	bound  %esi,0x75(%edx)
  109ada:	61                   	popa   
  109adb:	72 79                	jb     109b56 <__debug_baud_rate+0x1a82>
  109add:	00 4d 61             	add    %cl,0x61(%ebp)
  109ae0:	72 63                	jb     109b45 <__debug_baud_rate+0x1a71>
  109ae2:	68 00 41 70 72       	push   $0x72704100
  109ae7:	69 6c 00 4d 61 79 00 	imul   $0x4a007961,0x4d(%eax,%eax,1),%ebp
  109aee:	4a 
  109aef:	75 6e                	jne    109b5f <__debug_baud_rate+0x1a8b>
  109af1:	65 00 4a 75          	add    %cl,%gs:0x75(%edx)
  109af5:	6c                   	insb   (%dx),%es:(%edi)
  109af6:	79 00                	jns    109af8 <__debug_baud_rate+0x1a24>
  109af8:	41                   	inc    %ecx
  109af9:	75 67                	jne    109b62 <__debug_baud_rate+0x1a8e>
  109afb:	75 73                	jne    109b70 <__debug_baud_rate+0x1a9c>
  109afd:	74 00                	je     109aff <__debug_baud_rate+0x1a2b>
  109aff:	53                   	push   %ebx
  109b00:	65 70 74             	gs jo  109b77 <__debug_baud_rate+0x1aa3>
  109b03:	65 6d                	gs insl (%dx),%es:(%edi)
  109b05:	62 65 72             	bound  %esp,0x72(%ebp)
  109b08:	00 4f 63             	add    %cl,0x63(%edi)
  109b0b:	74 6f                	je     109b7c <__debug_baud_rate+0x1aa8>
  109b0d:	62 65 72             	bound  %esp,0x72(%ebp)
  109b10:	00 4e 6f             	add    %cl,0x6f(%esi)
  109b13:	76 65                	jbe    109b7a <__debug_baud_rate+0x1aa6>
  109b15:	6d                   	insl   (%dx),%es:(%edi)
  109b16:	62 65 72             	bound  %esp,0x72(%ebp)
  109b19:	00 44 65 63          	add    %al,0x63(%ebp,%eiz,2)
  109b1d:	65 6d                	gs insl (%dx),%es:(%edi)
  109b1f:	62 65 72             	bound  %esp,0x72(%ebp)
  109b22:	00 4a 61             	add    %cl,0x61(%edx)
  109b25:	6e                   	outsb  %ds:(%esi),(%dx)
  109b26:	00 46 65             	add    %al,0x65(%esi)
  109b29:	62 00                	bound  %eax,(%eax)
  109b2b:	4d                   	dec    %ebp
  109b2c:	61                   	popa   
  109b2d:	72 00                	jb     109b2f <__debug_baud_rate+0x1a5b>
  109b2f:	41                   	inc    %ecx
  109b30:	70 72                	jo     109ba4 <__debug_baud_rate+0x1ad0>
  109b32:	00 4a 75             	add    %cl,0x75(%edx)
  109b35:	6e                   	outsb  %ds:(%esi),(%dx)
  109b36:	00 4a 75             	add    %cl,0x75(%edx)
  109b39:	6c                   	insb   (%dx),%es:(%edi)
  109b3a:	00 41 75             	add    %al,0x75(%ecx)
  109b3d:	67 00 53 65          	add    %dl,0x65(%bp,%di)
  109b41:	70 00                	jo     109b43 <__debug_baud_rate+0x1a6f>
  109b43:	4f                   	dec    %edi
  109b44:	63 74 00 4e          	arpl   %si,0x4e(%eax,%eax,1)
  109b48:	6f                   	outsl  %ds:(%esi),(%dx)
  109b49:	76 00                	jbe    109b4b <__debug_baud_rate+0x1a77>
  109b4b:	44                   	inc    %esp
  109b4c:	65 63 00             	arpl   %ax,%gs:(%eax)
  109b4f:	5b                   	pop    %ebx
  109b50:	74 6d                	je     109bbf <__debug_baud_rate+0x1aeb>
  109b52:	20 69 73             	and    %ch,0x73(%ecx)
  109b55:	20 6e 75             	and    %ch,0x75(%esi)
  109b58:	6c                   	insb   (%dx),%es:(%edi)
  109b59:	6c                   	insb   (%dx),%es:(%edi)
  109b5a:	5d                   	pop    %ebp
  109b5b:	00 25 73 00 00 25    	add    %ah,0x25000073
  109b61:	73 20                	jae    109b83 <__debug_baud_rate+0x1aaf>
  109b63:	25 73 20 25 30       	and    $0x30252073,%eax
  109b68:	32 64 20 25          	xor    0x25(%eax,%eiz,1),%ah
  109b6c:	30 32                	xor    %dh,(%edx)
  109b6e:	64 3a 25 30 32 64 3a 	cmp    %fs:0x3a643230,%ah
  109b75:	25 30 32 64 20       	and    $0x20643230,%eax
  109b7a:	25 30 34 64 00       	and    $0x643430,%eax
  109b7f:	25 30 32 64 00       	and    $0x643230,%eax
  109b84:	25 30 32 64 2f       	and    $0x2f643230,%eax
  109b89:	25 30 32 64 2f       	and    $0x2f643230,%eax
  109b8e:	25 30 32 64 00       	and    $0x643230,%eax
  109b93:	25 32 64 00 25       	and    $0x25006432,%eax
  109b98:	30 34 64             	xor    %dh,(%esp,%eiz,2)
  109b9b:	2d 25 30 32 64       	sub    $0x64323025,%eax
  109ba0:	2d 25 30 32 64       	sub    $0x64323025,%eax
  109ba5:	00 25 30 33 64 00    	add    %ah,0x643330
  109bab:	0a 00                	or     (%eax),%al
  109bad:	41                   	inc    %ecx
  109bae:	4d                   	dec    %ebp
  109baf:	00 50 4d             	add    %dl,0x4d(%eax)
  109bb2:	00 61 6d             	add    %ah,0x6d(%ecx)
  109bb5:	00 70 6d             	add    %dh,0x6d(%eax)
  109bb8:	00 25 30 32 64 3a    	add    %ah,0x3a643230
  109bbe:	25 30 32 64 3a       	and    $0x3a643230,%eax
  109bc3:	25 30 32 64 20       	and    $0x20643230,%eax
  109bc8:	25 73 00 25 30       	and    $0x30250073,%eax
  109bcd:	32 64 3a 25          	xor    0x25(%edx,%edi,1),%ah
  109bd1:	30 32                	xor    %dh,(%edx)
  109bd3:	64 00 25 6c 64 00 09 	add    %ah,%fs:0x900646c
  109bda:	00 25 30 32 64 3a    	add    %ah,0x3a643230
  109be0:	25 30 32 64 3a       	and    $0x3a643230,%eax
  109be5:	25 30 32 64 00       	and    $0x643230,%eax
  109bea:	25 64 00 25 30       	and    $0x30250064,%eax
  109bef:	34 64                	xor    $0x64,%al
  109bf1:	00 25 63 25 30 32    	add    %ah,0x32302563
  109bf7:	64 25 30 32 64 00    	fs and $0x643230,%eax
  109bfd:	25 63 00 3c 25       	and    $0x253c0063,%eax
  109c02:	63 20                	arpl   %sp,(%eax)
  109c04:	75 6e                	jne    109c74 <__debug_baud_rate+0x1ba0>
  109c06:	73 75                	jae    109c7d <__debug_baud_rate+0x1ba9>
  109c08:	70 70                	jo     109c7a <__debug_baud_rate+0x1ba6>
  109c0a:	6f                   	outsl  %ds:(%esi),(%dx)
  109c0b:	72 74                	jb     109c81 <__debug_baud_rate+0x1bad>
  109c0d:	65 64 3e 00 00       	gs fs add %al,%ds:(%eax)
  109c12:	00 00                	add    %al,(%eax)
  109c14:	04 70                	add    $0x70,%al
  109c16:	10 00                	adc    %al,(%eax)
  109c18:	3f                   	aas    
  109c19:	70 10                	jo     109c2b <__debug_baud_rate+0x1b57>
  109c1b:	00 3f                	add    %bh,(%edi)
  109c1d:	70 10                	jo     109c2f <__debug_baud_rate+0x1b5b>
  109c1f:	00 3f                	add    %bh,(%edi)
  109c21:	70 10                	jo     109c33 <__debug_baud_rate+0x1b5f>
  109c23:	00 3f                	add    %bh,(%edi)
  109c25:	70 10                	jo     109c37 <__debug_baud_rate+0x1b63>
  109c27:	00 3f                	add    %bh,(%edi)
  109c29:	70 10                	jo     109c3b <__debug_baud_rate+0x1b67>
  109c2b:	00 3f                	add    %bh,(%edi)
  109c2d:	70 10                	jo     109c3f <__debug_baud_rate+0x1b6b>
  109c2f:	00 3f                	add    %bh,(%edi)
  109c31:	70 10                	jo     109c43 <__debug_baud_rate+0x1b6f>
  109c33:	00 3f                	add    %bh,(%edi)
  109c35:	70 10                	jo     109c47 <__debug_baud_rate+0x1b73>
  109c37:	00 3f                	add    %bh,(%edi)
  109c39:	70 10                	jo     109c4b <__debug_baud_rate+0x1b77>
  109c3b:	00 3f                	add    %bh,(%edi)
  109c3d:	70 10                	jo     109c4f <__debug_baud_rate+0x1b7b>
  109c3f:	00 3f                	add    %bh,(%edi)
  109c41:	70 10                	jo     109c53 <__debug_baud_rate+0x1b7f>
  109c43:	00 3f                	add    %bh,(%edi)
  109c45:	70 10                	jo     109c57 <__debug_baud_rate+0x1b83>
  109c47:	00 3f                	add    %bh,(%edi)
  109c49:	70 10                	jo     109c5b <__debug_baud_rate+0x1b87>
  109c4b:	00 3f                	add    %bh,(%edi)
  109c4d:	70 10                	jo     109c5f <__debug_baud_rate+0x1b8b>
  109c4f:	00 3f                	add    %bh,(%edi)
  109c51:	70 10                	jo     109c63 <__debug_baud_rate+0x1b8f>
  109c53:	00 3f                	add    %bh,(%edi)
  109c55:	70 10                	jo     109c67 <__debug_baud_rate+0x1b93>
  109c57:	00 3f                	add    %bh,(%edi)
  109c59:	70 10                	jo     109c6b <__debug_baud_rate+0x1b97>
  109c5b:	00 3f                	add    %bh,(%edi)
  109c5d:	70 10                	jo     109c6f <__debug_baud_rate+0x1b9b>
  109c5f:	00 3f                	add    %bh,(%edi)
  109c61:	70 10                	jo     109c73 <__debug_baud_rate+0x1b9f>
  109c63:	00 3f                	add    %bh,(%edi)
  109c65:	70 10                	jo     109c77 <__debug_baud_rate+0x1ba3>
  109c67:	00 3f                	add    %bh,(%edi)
  109c69:	70 10                	jo     109c7b <__debug_baud_rate+0x1ba7>
  109c6b:	00 3f                	add    %bh,(%edi)
  109c6d:	70 10                	jo     109c7f <__debug_baud_rate+0x1bab>
  109c6f:	00 3f                	add    %bh,(%edi)
  109c71:	70 10                	jo     109c83 <__debug_baud_rate+0x1baf>
  109c73:	00 3f                	add    %bh,(%edi)
  109c75:	70 10                	jo     109c87 <__debug_baud_rate+0x1bb3>
  109c77:	00 3f                	add    %bh,(%edi)
  109c79:	70 10                	jo     109c8b <__debug_baud_rate+0x1bb7>
  109c7b:	00 3f                	add    %bh,(%edi)
  109c7d:	70 10                	jo     109c8f <__debug_baud_rate+0x1bbb>
  109c7f:	00 3f                	add    %bh,(%edi)
  109c81:	70 10                	jo     109c93 <__debug_baud_rate+0x1bbf>
  109c83:	00 bf 68 10 00 11    	add    %bh,0x11001068(%edi)
  109c89:	69 10 00 a0 69 10    	imul   $0x1069a000,(%eax),%edx
  109c8f:	00 ff                	add    %bh,%bh
  109c91:	69 10 00 3f 70 10    	imul   $0x10703f00,(%eax),%edx
  109c97:	00 73 6a             	add    %dh,0x6a(%ebx)
  109c9a:	10 00                	adc    %al,(%eax)
  109c9c:	1e                   	push   %ds
  109c9d:	70 10                	jo     109caf <__debug_baud_rate+0x1bdb>
  109c9f:	00 af 6a 10 00 d1    	add    %ch,-0x2effef96(%edi)
  109ca5:	6a 10                	push   $0x10
  109ca7:	00 3f                	add    %bh,(%edi)
  109ca9:	70 10                	jo     109cbb <__debug_baud_rate+0x1be7>
  109cab:	00 3f                	add    %bh,(%edi)
  109cad:	70 10                	jo     109cbf <__debug_baud_rate+0x1beb>
  109caf:	00 3f                	add    %bh,(%edi)
  109cb1:	70 10                	jo     109cc3 <__debug_baud_rate+0x1bef>
  109cb3:	00 02                	add    %al,(%edx)
  109cb5:	6c                   	insb   (%dx),%es:(%edi)
  109cb6:	10 00                	adc    %al,(%eax)
  109cb8:	3f                   	aas    
  109cb9:	70 10                	jo     109ccb <__debug_baud_rate+0x1bf7>
  109cbb:	00 3f                	add    %bh,(%edi)
  109cbd:	70 10                	jo     109ccf <__debug_baud_rate+0x1bfb>
  109cbf:	00 75 6c             	add    %dh,0x6c(%ebp)
  109cc2:	10 00                	adc    %al,(%eax)
  109cc4:	3f                   	aas    
  109cc5:	70 10                	jo     109cd7 <__debug_baud_rate+0x1c03>
  109cc7:	00 34 6d 10 00 8a 6d 	add    %dh,0x6d8a0010(,%ebp,2)
  109cce:	10 00                	adc    %al,(%eax)
  109cd0:	c9                   	leave  
  109cd1:	6d                   	insl   (%dx),%es:(%edi)
  109cd2:	10 00                	adc    %al,(%eax)
  109cd4:	1e                   	push   %ds
  109cd5:	70 10                	jo     109ce7 <__debug_baud_rate+0x1c13>
  109cd7:	00 1e                	add    %bl,(%esi)
  109cd9:	70 10                	jo     109ceb <__debug_baud_rate+0x1c17>
  109cdb:	00 1e                	add    %bl,(%esi)
  109cdd:	70 10                	jo     109cef <__debug_baud_rate+0x1c1b>
  109cdf:	00 a2 6e 10 00 12    	add    %ah,0x1200106e(%edx)
  109ce5:	6f                   	outsl  %ds:(%esi),(%dx)
  109ce6:	10 00                	adc    %al,(%eax)
  109ce8:	e7 6f                	out    %eax,$0x6f
  109cea:	10 00                	adc    %al,(%eax)
  109cec:	3f                   	aas    
  109ced:	70 10                	jo     109cff <__debug_baud_rate+0x1c2b>
  109cef:	00 3f                	add    %bh,(%edi)
  109cf1:	70 10                	jo     109d03 <__debug_baud_rate+0x1c2f>
  109cf3:	00 3f                	add    %bh,(%edi)
  109cf5:	70 10                	jo     109d07 <__debug_baud_rate+0x1c33>
  109cf7:	00 3f                	add    %bh,(%edi)
  109cf9:	70 10                	jo     109d0b <__debug_baud_rate+0x1c37>
  109cfb:	00 3f                	add    %bh,(%edi)
  109cfd:	70 10                	jo     109d0f <__debug_baud_rate+0x1c3b>
  109cff:	00 3f                	add    %bh,(%edi)
  109d01:	70 10                	jo     109d13 <__debug_baud_rate+0x1c3f>
  109d03:	00 96 68 10 00 e8    	add    %dl,-0x17ffef98(%esi)
  109d09:	68 10 00 3a 69       	push   $0x693a0010
  109d0e:	10 00                	adc    %al,(%eax)
  109d10:	dd 69 10             	(bad)  0x10(%ecx)
  109d13:	00 51 6a             	add    %dl,0x6a(%ecx)
  109d16:	10 00                	adc    %al,(%eax)
  109d18:	3f                   	aas    
  109d19:	70 10                	jo     109d2b <__debug_baud_rate+0x1c57>
  109d1b:	00 1e                	add    %bl,(%esi)
  109d1d:	70 10                	jo     109d2f <__debug_baud_rate+0x1c5b>
  109d1f:	00 e8                	add    %ch,%al
  109d21:	68 10 00 3f 70       	push   $0x703f0010
  109d26:	10 00                	adc    %al,(%eax)
  109d28:	35 6b 10 00 57       	xor    $0x5700106b,%eax
  109d2d:	6b 10 00             	imul   $0x0,(%eax),%edx
  109d30:	79 6b                	jns    109d9d <__rodata_end+0x22>
  109d32:	10 00                	adc    %al,(%eax)
  109d34:	dd 6b 10             	(bad)  0x10(%ebx)
  109d37:	00 24 6c             	add    %ah,(%esp,%ebp,2)
  109d3a:	10 00                	adc    %al,(%eax)
  109d3c:	3f                   	aas    
  109d3d:	70 10                	jo     109d4f <__debug_baud_rate+0x1c7b>
  109d3f:	00 42 6c             	add    %al,0x6c(%edx)
  109d42:	10 00                	adc    %al,(%eax)
  109d44:	3f                   	aas    
  109d45:	70 10                	jo     109d57 <__debug_baud_rate+0x1c83>
  109d47:	00 a8 6c 10 00 60    	add    %ch,0x6000106c(%eax)
  109d4d:	6d                   	insl   (%dx),%es:(%edi)
  109d4e:	10 00                	adc    %al,(%eax)
  109d50:	ab                   	stos   %eax,%es:(%edi)
  109d51:	6d                   	insl   (%dx),%es:(%edi)
  109d52:	10 00                	adc    %al,(%eax)
  109d54:	fb                   	sti    
  109d55:	6d                   	insl   (%dx),%es:(%edi)
  109d56:	10 00                	adc    %al,(%eax)
  109d58:	3f                   	aas    
  109d59:	70 10                	jo     109d6b <__debug_baud_rate+0x1c97>
  109d5b:	00 2e                	add    %ch,(%esi)
  109d5d:	6e                   	outsb  %ds:(%esi),(%dx)
  109d5e:	10 00                	adc    %al,(%eax)
  109d60:	50                   	push   %eax
  109d61:	6e                   	outsb  %ds:(%esi),(%dx)
  109d62:	10 00                	adc    %al,(%eax)
  109d64:	d4 6e                	aam    $0x6e
  109d66:	10 00                	adc    %al,(%eax)
  109d68:	39 6f 10             	cmp    %ebp,0x10(%edi)
  109d6b:	00 25 61 20 25 62    	add    %ah,0x62252061
  109d71:	20 25 64 20 25 54    	and    %ah,0x54252064
  109d77:	20                   	.byte 0x20
  109d78:	25                   	.byte 0x25
  109d79:	59                   	pop    %ecx
	...

Disassembly of section .eh_frame:

00109d7c <.eh_frame>:
  109d7c:	14 00                	adc    $0x0,%al
  109d7e:	00 00                	add    %al,(%eax)
  109d80:	00 00                	add    %al,(%eax)
  109d82:	00 00                	add    %al,(%eax)
  109d84:	01 7a 52             	add    %edi,0x52(%edx)
  109d87:	00 01                	add    %al,(%ecx)
  109d89:	7c 08                	jl     109d93 <__rodata_end+0x18>
  109d8b:	01 1b                	add    %ebx,(%ebx)
  109d8d:	0c 04                	or     $0x4,%al
  109d8f:	04 88                	add    $0x88,%al
  109d91:	01 00                	add    %eax,(%eax)
  109d93:	00 48 00             	add    %cl,0x0(%eax)
  109d96:	00 00                	add    %al,(%eax)
  109d98:	1c 00                	sbb    $0x0,%al
  109d9a:	00 00                	add    %al,(%eax)
  109d9c:	94                   	xchg   %eax,%esp
  109d9d:	d3 ff                	sar    %cl,%edi
  109d9f:	ff 1a                	lcall  *(%edx)
  109da1:	01 00                	add    %eax,(%eax)
  109da3:	00 00                	add    %al,(%eax)
  109da5:	41                   	inc    %ecx
  109da6:	0e                   	push   %cs
  109da7:	08 85 02 42 0d 05    	or     %al,0x50d4202(%ebp)
  109dad:	46                   	inc    %esi
  109dae:	87 03                	xchg   %eax,(%ebx)
  109db0:	86 04 83             	xchg   %al,(%ebx,%eax,4)
  109db3:	05 65 0a c3 41       	add    $0x41c30a65,%eax
  109db8:	c6 41 c7 41          	movb   $0x41,-0x39(%ecx)
  109dbc:	c5 0c 04             	lds    (%esp,%eax,1),%ecx
  109dbf:	04 47                	add    $0x47,%al
  109dc1:	0b 4e 0a             	or     0xa(%esi),%ecx
  109dc4:	c3                   	ret    
  109dc5:	41                   	inc    %ecx
  109dc6:	c6 41 c7 41          	movb   $0x41,-0x39(%ecx)
  109dca:	c5 0c 04             	lds    (%esp,%eax,1),%ecx
  109dcd:	04 47                	add    $0x47,%al
  109dcf:	0b 02                	or     (%edx),%eax
  109dd1:	46                   	inc    %esi
  109dd2:	0a c3                	or     %bl,%al
  109dd4:	41                   	inc    %ecx
  109dd5:	c6 41 c7 41          	movb   $0x41,-0x39(%ecx)
  109dd9:	c5 0c 04             	lds    (%esp,%eax,1),%ecx
  109ddc:	04 47                	add    $0x47,%al
  109dde:	0b 00                	or     (%eax),%eax
  109de0:	58                   	pop    %eax
  109de1:	00 00                	add    %al,(%eax)
  109de3:	00 68 00             	add    %ch,0x0(%eax)
  109de6:	00 00                	add    %al,(%eax)
  109de8:	68 d4 ff ff 3e       	push   $0x3effffd4
  109ded:	01 00                	add    %eax,(%eax)
  109def:	00 00                	add    %al,(%eax)
  109df1:	41                   	inc    %ecx
  109df2:	0e                   	push   %cs
  109df3:	08 85 02 42 0d 05    	or     %al,0x50d4202(%ebp)
  109df9:	46                   	inc    %esi
  109dfa:	87 03                	xchg   %eax,(%ebx)
  109dfc:	86 04 83             	xchg   %al,(%ebx,%eax,4)
  109dff:	05 62 0a c3 41       	add    $0x41c30a62,%eax
  109e04:	c6 41 c7 41          	movb   $0x41,-0x39(%ecx)
  109e08:	c5 0c 04             	lds    (%esp,%eax,1),%ecx
  109e0b:	04 42                	add    $0x42,%al
  109e0d:	0b 4d 0a             	or     0xa(%ebp),%ecx
  109e10:	c3                   	ret    
  109e11:	41                   	inc    %ecx
  109e12:	c6 41 c7 41          	movb   $0x41,-0x39(%ecx)
  109e16:	c5 0c 04             	lds    (%esp,%eax,1),%ecx
  109e19:	04 48                	add    $0x48,%al
  109e1b:	0b 62 0a             	or     0xa(%edx),%esp
  109e1e:	c3                   	ret    
  109e1f:	41                   	inc    %ecx
  109e20:	c6 41 c7 41          	movb   $0x41,-0x39(%ecx)
  109e24:	c5 0c 04             	lds    (%esp,%eax,1),%ecx
  109e27:	04 43                	add    $0x43,%al
  109e29:	0b 02                	or     (%edx),%eax
  109e2b:	b5 0a                	mov    $0xa,%ch
  109e2d:	c3                   	ret    
  109e2e:	41                   	inc    %ecx
  109e2f:	c6 41 c7 41          	movb   $0x41,-0x39(%ecx)
  109e33:	c5 0c 04             	lds    (%esp,%eax,1),%ecx
  109e36:	04 48                	add    $0x48,%al
  109e38:	0b 00                	or     (%eax),%eax
	...

Disassembly of section .data:

0010a000 <__kernel_version_format>:
  10a000:	00 80 10 00      	add    %al,-0x7ff0fff0(%eax)

0010a004 <__kernel_build_date>:
  10a004:	0f 80 10 00      	jo     802ba01a <MULTIBOOT_MAGIC+0x647df018>

0010a008 <__kernel_build_time>:
  10a008:	1b 80 10 00      	sbb    -0x7fcffff0(%eax),%eax

0010a00c <__kernel_version_codename>:
  10a00c:	30 80 10 00      	xor    %al,-0x7fc7fff0(%eax)

0010a010 <__kernel_ascii_art_formatted>:
  10a010:	38 80 10 00      	cmp    %al,-0x7f27fff0(%eax)

0010a014 <__kernel_build_configuration>:
  10a014:	d8 80 10 00      	fadds  -0x7f21fff0(%eax)

0010a018 <__kernel_architecture>:
  10a018:	de 80 10 00      	fiadds -0x7f1cfff0(%eax)

0010a01c <__kernel_compiler>:
  10a01c:	e3 80                	jecxz  109f9e <__rodata_end+0x223>
  10a01e:	10 00                	adc    %al,(%eax)

0010a020 <__kernel_stop_codes>:
  10a020:	07                   	pop    %es
  10a021:	00 00                	add    %al,(%eax)
	...

0010a024 <kernel_bugcode_strings>:
  10a024:	2c 81                	sub    $0x81,%al
  10a026:	10 00                	adc    %al,(%eax)
  10a028:	3e 81 10 00 56 81 10 	adcl   $0x10815600,%ds:(%eax)
  10a02f:	00 70 81             	add    %dh,-0x7f(%eax)
  10a032:	10 00                	adc    %al,(%eax)
  10a034:	7e 81                	jle    109fb7 <__rodata_end+0x23c>
  10a036:	10 00                	adc    %al,(%eax)
  10a038:	91                   	xchg   %eax,%ecx
  10a039:	81 10 00 a9 81 10    	adcl   $0x1081a900,(%eax)
	...

0010a040 <kernel_panic_messages>:
  10a040:	c4 81 10 00 f0 81    	les    -0x7e0ffff0(%ecx),%eax
  10a046:	10 00                	adc    %al,(%eax)
  10a048:	38 82 10 00 a8 82    	cmp    %al,-0x7d57fff0(%edx)
  10a04e:	10 00                	adc    %al,(%eax)
  10a050:	00 83 10 00 7c 83    	add    %al,-0x7c83fff0(%ebx)
  10a056:	10 00                	adc    %al,(%eax)
  10a058:	b8 83 10 00        	mov    $0x15001083,%eax

0010a05c <x.3>:
  10a05c:	15 cd 5b 07        	adc    $0xe5075bcd,%eax

0010a060 <y.2>:
  10a060:	e5 55                	in     $0x55,%eax
  10a062:	9a 15      	lcall  $0x331f,$0x123bb515

0010a064 <z.1>:
  10a064:	b5 3b                	mov    $0x3b,%ch
  10a066:	12 1f                	adc    (%edi),%bl

0010a068 <w.0>:
  10a068:	33 13                	xor    (%ebx),%edx
  10a06a:	49                   	dec    %ecx
  10a06b:	05 00 00 00 00       	add    $0x0,%eax
	...

0010a080 <hal_exception_table>:
  10a080:	88 8f 10 00 97 8f    	mov    %cl,-0x7068fff0(%edi)
  10a086:	10 00                	adc    %al,(%eax)
  10a088:	a2 8f 10 00 b0       	mov    %al,0xb000108f
  10a08d:	8f                   	(bad)  
  10a08e:	10 00                	adc    %al,(%eax)
  10a090:	c0 8f 10 00 ce 8f 10 	rorb   $0x10,-0x7031fff0(%edi)
  10a097:	00 e3                	add    %ah,%bl
  10a099:	8f                   	(bad)  
  10a09a:	10 00                	adc    %al,(%eax)
  10a09c:	f2 8f                	repnz (bad) 
  10a09e:	10 00                	adc    %al,(%eax)
  10a0a0:	07                   	pop    %es
  10a0a1:	90                   	nop
  10a0a2:	10 00                	adc    %al,(%eax)
  10a0a4:	14 90                	adc    $0x90,%al
  10a0a6:	10 00                	adc    %al,(%eax)
  10a0a8:	30 90 10 00 3c 90    	xor    %dl,-0x6fc3fff0(%eax)
  10a0ae:	10 00                	adc    %al,(%eax)
  10a0b0:	50                   	push   %eax
  10a0b1:	90                   	nop
  10a0b2:	10 00                	adc    %al,(%eax)
  10a0b4:	64 90                	fs nop
  10a0b6:	10 00                	adc    %al,(%eax)
  10a0b8:	7d 90                	jge    10a04a <kernel_panic_messages+0xa>
  10a0ba:	10 00                	adc    %al,(%eax)
  10a0bc:	88 90 10 00 91 90    	mov    %dl,-0x6f6efff0(%eax)
  10a0c2:	10 00                	adc    %al,(%eax)
  10a0c4:	9f                   	lahf   
  10a0c5:	90                   	nop
  10a0c6:	10 00                	adc    %al,(%eax)
  10a0c8:	af                   	scas   %es:(%edi),%eax
  10a0c9:	90                   	nop
  10a0ca:	10 00                	adc    %al,(%eax)
  10a0cc:	bd 90 10 00 db       	mov    $0xdb001090,%ebp
  10a0d1:	90                   	nop
  10a0d2:	10 00                	adc    %al,(%eax)
  10a0d4:	f4                   	hlt    
  10a0d5:	90                   	nop
  10a0d6:	10 00                	adc    %al,(%eax)
  10a0d8:	88 90 10 00 88 90    	mov    %dl,-0x6f77fff0(%eax)
  10a0de:	10 00                	adc    %al,(%eax)
  10a0e0:	88 90 10 00 88 90    	mov    %dl,-0x6f77fff0(%eax)
  10a0e6:	10 00                	adc    %al,(%eax)
  10a0e8:	88 90 10 00 88 90    	mov    %dl,-0x6f77fff0(%eax)
  10a0ee:	10 00                	adc    %al,(%eax)
  10a0f0:	14 91                	adc    $0x91,%al
  10a0f2:	10 00                	adc    %al,(%eax)
  10a0f4:	33 91 10 00 4f 91    	xor    -0x6eb0fff0(%ecx),%edx
  10a0fa:	10 00                	adc    %al,(%eax)

0010a0fc <highest_kernel_address>:
  10a0fc:	a6                   	cmpsb  %es:(%edi),%ds:(%esi)
  10a0fd:	ff 10                	call   *(%eax)
	...

0010a100 <serial_currentPort>:
  10a100:	f8                   	clc    
  10a101:	03         	add    0x25(%eax),%eax

0010a102 <serial_currentBaud>:
  10a102:	80 25 00 00 00 00 00 	andb   $0x0,0x0
	...

0010a120 <weekdays>:
  10a120:	78 9a                	js     10a0bc <hal_exception_table+0x3c>
  10a122:	10 00                	adc    %al,(%eax)
  10a124:	7f 9a                	jg     10a0c0 <hal_exception_table+0x40>
  10a126:	10 00                	adc    %al,(%eax)
  10a128:	86 9a 10 00 8e 9a    	xchg   %bl,-0x6571fff0(%edx)
  10a12e:	10 00                	adc    %al,(%eax)
  10a130:	98                   	cwtl   
  10a131:	9a 10 00 a1 9a 10 00 	lcall  $0x10,$0x9aa10010
  10a138:	a8 9a                	test   $0x9a,%al
  10a13a:	10 00                	adc    %al,(%eax)

0010a13c <weekdays_short>:
  10a13c:	b1 9a                	mov    $0x9a,%cl
  10a13e:	10 00                	adc    %al,(%eax)
  10a140:	b5 9a                	mov    $0x9a,%ch
  10a142:	10 00                	adc    %al,(%eax)
  10a144:	b9 9a 10 00 bd       	mov    $0xbd00109a,%ecx
  10a149:	9a 10 00 c1 9a 10 00 	lcall  $0x10,$0x9ac10010
  10a150:	c5 9a 10 00 c9 9a    	lds    -0x6536fff0(%edx),%ebx
  10a156:	10 00                	adc    %al,(%eax)
	...

0010a160 <months>:
  10a160:	cd 9a                	int    $0x9a
  10a162:	10 00                	adc    %al,(%eax)
  10a164:	d5 9a                	aad    $0x9a
  10a166:	10 00                	adc    %al,(%eax)
  10a168:	de 9a 10 00 e4 9a    	ficomps -0x651bfff0(%edx)
  10a16e:	10 00                	adc    %al,(%eax)
  10a170:	ea 9a 10 00 ee 9a 10 	ljmp   $0x109a,$0xee00109a
  10a177:	00 f3                	add    %dh,%bl
  10a179:	9a 10 00 f8 9a 10 00 	lcall  $0x10,$0x9af80010
  10a180:	ff 9a 10 00 09 9b    	lcall  *-0x64f6fff0(%edx)
  10a186:	10 00                	adc    %al,(%eax)
  10a188:	11 9b 10 00 1a 9b    	adc    %ebx,-0x64e5fff0(%ebx)
  10a18e:	10 00                	adc    %al,(%eax)
	...

0010a1a0 <months_short>:
  10a1a0:	23 9b 10 00 27 9b    	and    -0x64d8fff0(%ebx),%ebx
  10a1a6:	10 00                	adc    %al,(%eax)
  10a1a8:	2b 9b 10 00 2f 9b    	sub    -0x64d0fff0(%ebx),%ebx
  10a1ae:	10 00                	adc    %al,(%eax)
  10a1b0:	ea 9a 10 00 33 9b 10 	ljmp   $0x109b,$0x3300109a
  10a1b7:	00 37                	add    %dh,(%edi)
  10a1b9:	9b                   	fwait
  10a1ba:	10 00                	adc    %al,(%eax)
  10a1bc:	3b 9b 10 00 3f 9b    	cmp    -0x64c0fff0(%ebx),%ebx
  10a1c2:	10 00                	adc    %al,(%eax)
  10a1c4:	43                   	inc    %ebx
  10a1c5:	9b                   	fwait
  10a1c6:	10 00                	adc    %al,(%eax)
  10a1c8:	47                   	inc    %edi
  10a1c9:	9b                   	fwait
  10a1ca:	10 00                	adc    %al,(%eax)
  10a1cc:	4b                   	dec    %ebx
  10a1cd:	9b                   	fwait
  10a1ce:	10 00                	adc    %al,(%eax)

Disassembly of section .bss:

0010b000 <clock_device>:
	...

0010b018 <tick_count>:
	...

0010b020 <is_ready>:
	...

0010b040 <clock_callback_table>:
	...

0010b240 <generic_serial_write_character>:
  10b240:	00 00                	add    %al,(%eax)
	...

0010b244 <debug_putchar_method>:
  10b244:	00 00                	add    %al,(%eax)
	...

0010b248 <alloc_info>:
  10b248:	00 00                	add    %al,(%eax)
	...

0010b24c <profile_data>:
  10b24c:	00 00                	add    %al,(%eax)
	...

0010b250 <frames>:
  10b250:	00 00                	add    %al,(%eax)
	...

0010b254 <nframes>:
  10b254:	00 00                	add    %al,(%eax)
	...

0010b258 <pmm_memorySize>:
  10b258:	00 00                	add    %al,(%eax)
	...

0010b25c <pmm_usedBlocks>:
  10b25c:	00 00                	add    %al,(%eax)
	...

0010b260 <pmm_maxBlocks>:
	...

0010b280 <allocator_information>:
	...

0010b2a0 <klmalloc_bin_head>:
	...

0010b2e0 <klmalloc_big_bins>:
	...

0010b314 <klmalloc_newest_big>:
	...

0010b320 <hal_idt_table>:
	...

0010bb20 <hal_handler_table>:
	...

0010bf1c <mem_currentDirectory>:
  10bf1c:	00 00                	add    %al,(%eax)
	...

0010bf20 <mem_kernelDirectory>:
  10bf20:	00 00                	add    %al,(%eax)
	...

0010bf24 <mem_kernelHeap>:
  10bf24:	00 00                	add    %al,(%eax)
	...

0010bf28 <boottime>:
	...

0010bf30 <tsc_baseline>:
	...

0010bf38 <tsc_mhz>:
	...

0010bf40 <pit_ticks>:
	...

0010bf50 <__stack_bottom>:
	...

0010ff50 <__stack_top>:
	...

0010ff60 <_timevalue>:
	...

0010ff8c <output>:
	...

Disassembly of section .comment:

00000000 <.comment>:
   0:	47                   	inc    %edi
   1:	43                   	inc    %ebx
   2:	43                   	inc    %ebx
   3:	3a 20                	cmp    (%eax),%ah
   5:	28 47 4e             	sub    %al,0x4e(%edi)
   8:	55                   	push   %ebp
   9:	29 20                	sub    %esp,(%eax)
   b:	31 34 2e             	xor    %esi,(%esi,%ebp,1)
   e:	31 2e                	xor    %ebp,(%esi)
  10:	30 00                	xor    %al,(%eax)
